(lp0
S'Neutral'
p1
aS'Very alert'
p2
accopy_reg
_reconstructor
p3
(cfuture.types.newstr
newstr
p4
c__builtin__
unicode
p5
VFaces, it was more difficult to perceive the minute details of the scenes, and many of them seemed to blur together in similarity.
p6
tp7
Rp8
ag3
(g4
g5
VEach side was equally difficult.
p9
tp10
Rp11
ag3
(g4
g5
VI tried to pick out how much of the screen the face took up, certain complexions and features, etc. I tried to remember one stand-out feature from each image.
p12
tp13
Rp14
a.