(lp0
S'A little boring'
p1
aS'A little tired'
p2
accopy_reg
_reconstructor
p3
(cfuture.types.newstr
newstr
p4
c__builtin__
unicode
p5
VBackgrounds were easier if they had distinct features (a mountain, water, a specific pattern, etc)
p6
tp7
Rp8
ag3
(g4
g5
VBackgrounds. It was easier to tune out the smaller face in the middle than to tune out the entire background behind the face.
p9
tp10
Rp11
ag3
(g4
g5
VJust looking for key features (bushy hair, specific trees, etc)
p12
tp13
Rp14
a.