(dp0
S'cue_tuples'
p1
(lp2
(S'cue_L'
p3
S'L'
p4
I0
tp5
a(g3
g4
I1
tp6
a(g3
g4
I0
tp7
a(g3
g4
I0
tp8
a(g3
g4
I1
tp9
a(g3
g4
I0
tp10
a(g3
g4
I0
tp11
a(g3
g4
I0
tp12
a(g3
g4
I0
tp13
a(g3
g4
I0
tp14
asS'uncued'
p15
(lp16
S'00149931230fa_sunaauglwmctnkxyird.jpg'
p17
aS'00630940928fa_sunaczwgyukesaajxnx.jpg'
p18
aS'00752960620fa_sunafbwnojpqeyzssoe.jpg'
p19
aS'00911960530fa_sunaooaqzputrowwbsw.jpg'
p20
aS'00146960620fb_sunaatpeezlljqaxlhj.jpg'
p21
aS'00705960530fa_sunaduslxfzlbxlllnz.jpg'
p22
aS'00115931230fa_sunaakmxzhuceuiryah.jpg'
p23
aS'00070940307fa_sunaaeplwsfslcbtojr.jpg'
p24
aS'01000960627fa_sunbvzmgrdvaakxusbu.jpg'
p25
aS'00933960627fa_sunapwjkcxdaeqehfql.jpg'
p26
asS'cued'
p27
(lp28
S'00977960627fa_sunbbxkanhzjgbwyxqs.jpg'
p29
aS'00763941205fa_sunafhmnhsdurlvddpw.jpg'
p30
aS'00280940422fb_sunabohxbskznglnrhv.jpg'
p31
aS'00676941121fa_sunadpnqovzckyikrjo.jpg'
p32
aS'00847940307fa_sunaivdjruhkrfywfed.jpg'
p33
aS'00554940519fa_sunacfdkbsrughwqwtt.jpg'
p34
aS'01004960627fa_sunbwtlihsuptkrckid.jpg'
p35
aS'00096931230fa_sunaaiqiqcggrskoqgy.jpg'
p36
aS'00797960620fa_sunagufzbeteqdjxais.jpg'
p37
aS'00316940422fa_sunabxmguapjekttvwm.jpg'
p38
asS'uncued_RT'
p39
(lp40
F1.2881858348846436
aF1.1839380264282227
aF0.6410109996795654
aF0.5716290473937988
aF0.5721120834350586
aF0.6095180511474609
aF0.33690690994262695
aF0.5276331901550293
aF0.4439082145690918
aF0.4937150478363037
asS'cued_RT'
p41
(lp42
s.