(dp0
S'cue_tuples'
p1
(lp2
(S'cue_L'
p3
S'L'
p4
I0
tp5
a(g3
g4
I0
tp6
a(g3
g4
I0
tp7
a(g3
g4
I0
tp8
a(g3
g4
I1
tp9
a(g3
g4
I0
tp10
a(g3
g4
I0
tp11
a(g3
g4
I0
tp12
a(g3
g4
I0
tp13
a(g3
g4
I0
tp14
asS'uncued'
p15
(lp16
S'00720960620fa_sunaecpkgfewqqreqwe.jpg'
p17
aS'00835940307fa_sunaijsqpvodplbwxkf.jpg'
p18
aS'00982960627fa_sunbesrwkdsffeogeqq.jpg'
p19
aS'00773941201fa_sunafvcflzhlqloapyo.jpg'
p20
aS'00786941205fa_sunagmhildamktmqjss.jpg'
p21
aS'00598940928fa_sunacxeheuiigkcgquf.jpg'
p22
aS'00082931230fa_sunaafvitpexrpvumsa.jpg'
p23
aS'00901960530fa_sunammbnoambmhdxdwd.jpg'
p24
aS'00507940519fa_sunacacflqoyxhsqzhe.jpg'
p25
aS'00276940422fa_sunabmytpyhsgigllxu.jpg'
p26
asS'cued'
p27
(lp28
S'00986960627fa_sunbgzjryivyczuvkvm.jpg'
p29
aS'00568940928fa_sunacsdhbbsybcyxnel.jpg'
p30
aS'00906960530fa_sunantryfbloeaomfta.jpg'
p31
aS'00529940519fa_sunacbeefkxpymwevpk.jpg'
p32
aS'00971960627fa_sunbbegcweqnetpdlrh.jpg'
p33
aS'00288940422fa_sunabppokiyglaxpcha.jpg'
p34
aS'00811960530fa_sunahedfrhtcwpneund.jpg'
p35
aS'00878960530fa_sunakgbnzxmfohgehnu.jpg'
p36
aS'00265940128fb_sunabkmdplkdbvxriff.jpg'
p37
aS'00766960620fa_sunafijbgncijwykrnl.jpg'
p38
asS'uncued_RT'
p39
(lp40
F0.8312571048736572
aF0.3678591251373291
aF0.7725300788879395
aF0.4245779514312744
aF0.2908639907836914
aF0.5382730960845947
aF0.40781712532043457
aF0.4826779365539551
aF0.3703157901763916
aF0.28043603897094727
asS'cued_RT'
p41
(lp42
s.