(dp0
S'images'
p1
(lp2
S'sunagvjurcwdbixvnyi.jpg'
p3
aS'sunacsdhbbsybcyxnel.jpg'
p4
aS'00727941205fa.jpg'
p5
aS'sunabkmdplkdbvxriff.jpg'
p6
aS'sunacbeefkxpymwevpk.jpg'
p7
aS'sunacxeheuiigkcgquf.jpg'
p8
aS'00811960530fa.jpg'
p9
aS'sunagfvluwixdsozaql.jpg'
p10
aS'sunacacflqoyxhsqzhe.jpg'
p11
aS'00851940307fa.jpg'
p12
aS'sunbgzjryivyczuvkvm.jpg'
p13
aS'sunantryfbloeaomfta.jpg'
p14
aS'00901960530fa.jpg'
p15
aS'00773941201fa.jpg'
p16
aS'00288940422fa.jpg'
p17
aS'00835940307fa.jpg'
p18
aS'sunakgbnzxmfohgehnu.jpg'
p19
aS'sunammbnoambmhdxdwd.jpg'
p20
aS'00786941205fa.jpg'
p21
aS'sunaafvitpexrpvumsa.jpg'
p22
aS'sunaijsqpvodplbwxkf.jpg'
p23
aS'00507940519fa.jpg'
p24
aS'00982960627fa.jpg'
p25
aS'sunabmytpyhsgigllxu.jpg'
p26
aS'00082931230fa.jpg'
p27
aS'00906960530fa.jpg'
p28
aS'00720960620fa.jpg'
p29
aS'sunagmwxxwymwojbvgi.jpg'
p30
aS'00265940128fb.jpg'
p31
aS'sunabppokiyglaxpcha.jpg'
p32
aS'sunafvcflzhlqloapyo.jpg'
p33
aS'sunbesrwkdsffeogeqq.jpg'
p34
aS'sunagmhildamktmqjss.jpg'
p35
aS'sunahedfrhtcwpneund.jpg'
p36
aS'00090931230fa.jpg'
p37
aS'00766960620fa.jpg'
p38
aS'00529940519fa.jpg'
p39
aS'00971960627fa.jpg'
p40
aS'00878960530fa.jpg'
p41
aS'00276940422fa.jpg'
p42
asS'ratings'
p43
(lp44
(lp45
(NF0.0
tp46
aa(lp47
(NF0.0
tp48
a(I4
F1.303
tp49
aa(lp50
(NF0.0
tp51
a(I3
F1.779
tp52
aa(lp53
(NF0.0
tp54
a(I1
F1.697
tp55
aa(lp56
(NF0.0
tp57
a(I4
F1.896
tp58
aa(lp59
(NF0.0
tp60
a(I1
F1.248
tp61
aa(lp62
(NF0.0
tp63
aa(lp64
(NF0.0
tp65
a(I2
F1.765
tp66
aa(lp67
(NF0.0
tp68
a(I1
F1.013
tp69
aa(lp70
(NF0.0
tp71
a(I3
F1.065
tp72
aa(lp73
(NF0.0
tp74
a(I4
F1.096
tp75
aa(lp76
(NF0.0
tp77
a(I4
F1.68
tp78
aa(lp79
(NF0.0
tp80
a(I3
F1.193
tp81
aa(lp82
(NF0.0
tp83
a(I2
F1.212
tp84
aa(lp85
(NF0.0
tp86
a(I2
F1.424
tp87
aa(lp88
(NF0.0
tp89
a(I2
F0.997
tp90
aa(lp91
(NF0.0
tp92
a(I1
F1.132
tp93
aa(lp94
(NF0.0
tp95
a(I2
F1.613
tp96
aa(lp97
(NF0.0
tp98
a(I2
F1.43
tp99
aa(lp100
(NF0.0
tp101
a(I2
F1.485
tp102
aa(lp103
(NF0.0
tp104
a(I2
F1.29
tp105
aa(lp106
(NF0.0
tp107
a(I3
F1.379
tp108
aa(lp109
(NF0.0
tp110
a(I2
F0.965
tp111
aa(lp112
(NF0.0
tp113
a(I1
F1.296
tp114
aa(lp115
(NF0.0
tp116
a(I2
F1.78
tp117
aa(lp118
(NF0.0
tp119
a(I2
F1.587
tp120
aa(lp121
(NF0.0
tp122
a(I3
F1.529
tp123
aa(lp124
(NF0.0
tp125
a(I1
F1.464
tp126
aa(lp127
(NF0.0
tp128
a(I1
F1.097
tp129
aa(lp130
(NF0.0
tp131
a(I1
F1.547
tp132
aa(lp133
(NF0.0
tp134
a(I1
F1.579
tp135
aa(lp136
(NF0.0
tp137
a(I1
F1.746
tp138
aa(lp139
(NF0.0
tp140
a(I1
F1.062
tp141
aa(lp142
(NF0.0
tp143
a(I1
F0.997
tp144
aa(lp145
(NF0.0
tp146
a(I2
F0.896
tp147
aa(lp148
(NF0.0
tp149
aa(lp150
(NF0.0
tp151
a(I3
F1.227
tp152
aa(lp153
(NF0.0
tp154
a(I3
F1.296
tp155
aa(lp156
(NF0.0
tp157
a(I3
F1.247
tp158
aa(lp159
(NF0.0
tp160
a(I2
F1.062
tp161
aasS'run_time'
p162
F122.94564819335938
sS'total_iters'
p163
(lp164
I0
aI1
aI2
aI3
aI4
aI5
aI6
aI7
aI8
aI9
aI10
aI11
aI12
aI13
aI14
aI15
aI16
aI17
aI18
aI19
aI20
aI21
aI22
aI23
aI24
aI25
aI26
aI27
aI28
aI29
aI30
aI31
aI32
aI33
aI34
aI35
aI36
aI37
aI38
aI39
as.