(dp0
S'cue_tuples'
p1
(lp2
(S'cue_L'
p3
S'F'
p4
I0
tp5
a(g3
g4
I0
tp6
a(g3
g4
I0
tp7
a(g3
g4
I0
tp8
a(g3
g4
I0
tp9
a(g3
g4
I1
tp10
a(g3
g4
I0
tp11
a(g3
g4
I0
tp12
a(g3
g4
I0
tp13
a(g3
g4
I0
tp14
asS'uncued'
p15
(lp16
S'00834940307fa_sunaibnpvhkdpdnzcnz.jpg'
p17
aS'00130931230fa_sunaamvxnvouicstkjb.jpg'
p18
aS'00154931230fa_sunaauueuhhvklldjik.jpg'
p19
aS'00985960627fa_sunbgklxeqjhdbyfhhy.jpg'
p20
aS'00138931230fa_sunaapfaivxqoynnwwp.jpg'
p21
aS'00197940128fa_sunaaylzyqlqrsmfwif.jpg'
p22
aS'00609940928fa_sunacycdoztxoluxjyk.jpg'
p23
aS'00730960620fa_sunaekgzpfilgjxpeyq.jpg'
p24
aS'00968960627fa_sunbagfpovqwbuexqdn.jpg'
p25
aS'00935960627fa_sunaqbmgkgqucajzrkp.jpg'
p26
asS'cued'
p27
(lp28
S'00864940307fa_sunajawzbrlrwafowen.jpg'
p29
aS'00774941201fa_sunafvtpfczkzopbgue.jpg'
p30
aS'00221940128fa_sunabcfpwlpolnutyju.jpg'
p31
aS'00271940422fa_sunabmbnddafmywtjjj.jpg'
p32
aS'00158931230fb_sunaavchcbptaerhcfy.jpg'
p33
aS'00919960620fa_sunapmfmzadmosuogaz.jpg'
p34
aS'00778941205fa_sunagcthdfirrcawoic.jpg'
p35
aS'00124931230fa_sunaalhlvzmjmitybdn.jpg'
p36
aS'00126931230fb_sunaamdjwemxpmmtypi.jpg'
p37
aS'00931960627fa_sunaptrqvaooxfvktvw.jpg'
p38
asS'uncued_RT'
p39
(lp40
F0.4228529930114746
aF0.3264479637145996
aF0.5325808525085449
aF0.427325963973999
aF0.4369640350341797
aF0.5814080238342285
aF0.3607010841369629
aF0.36676788330078125
aF0.4513509273529053
aF0.41405797004699707
asS'cued_RT'
p41
(lp42
s.