(dp0
S'images'
p1
(lp2
S'sunabyfxcxhdebvdyfd.jpg'
p3
aS'00132931230fb.jpg'
p4
aS'00987960627fa.jpg'
p5
aS'00532960627fa.jpg'
p6
aS'00631940928fa.jpg'
p7
aS'01009960627fa.jpg'
p8
aS'00198940128fb.jpg'
p9
aS'sunaetydippjxikifsb.jpg'
p10
aS'sunbloeoiozwjjsiamp.jpg'
p11
aS'00905960530fa.jpg'
p12
aS'00162931230fb.jpg'
p13
aS'00914960620fa.jpg'
p14
aS'00505960627fa.jpg'
p15
aS'00787960620fa.jpg'
p16
aS'sunbaejotfklekvpxcz.jpg'
p17
aS'sunaavjinpnkappuonm.jpg'
p18
aS'00751960620fa.jpg'
p19
aS'00262940128fa.jpg'
p20
aS'sunainqelldeebvxtcz.jpg'
p21
aS'00925960627fa.jpg'
p22
aS'sunanmoqeyprjjjfxjt.jpg'
p23
aS'00119931230fb.jpg'
p24
aS'sunaccdtpgenvcbcbcf.jpg'
p25
aS'00784941205fb.jpg'
p26
aS'00976960627fa.jpg'
p27
aS'00955960627fb.jpg'
p28
aS'sunabcuurugvxwparpk.jpg'
p29
aS'00498960627fa.jpg'
p30
aS'00681941121fa.jpg'
p31
aS'sunapqwnqzxlsfvgsjm.jpg'
p32
aS'sunabzjxlmkwnwzimua.jpg'
p33
aS'00961960627fa.jpg'
p34
aS'00242940128fa.jpg'
p35
aS'sunabzuqsrgcsonqlkz.jpg'
p36
aS'sunaangbuylfvckqqoo.jpg'
p37
aS'sunabizydfotqddlnjp.jpg'
p38
aS'sunbxzweleltykebgan.jpg'
p39
aS'sunaanjcbzdvtvblsdy.jpg'
p40
aS'sunaakvmbftkrgqhjun.jpg'
p41
aS'00762941201fa.jpg'
p42
asS'ratings'
p43
(lp44
(lp45
(NF0.0
tp46
a(I1
F1.161
tp47
aa(lp48
(NF0.0
tp49
a(I2
F1.813
tp50
aa(lp51
(NF0.0
tp52
a(I3
F1.246
tp53
aa(lp54
(NF0.0
tp55
a(I2
F1.396
tp56
aa(lp57
(NF0.0
tp58
a(I2
F1.752
tp59
aa(lp60
(NF0.0
tp61
a(I4
F1.34
tp62
aa(lp63
(NF0.0
tp64
a(I4
F0.863
tp65
aa(lp66
(NF0.0
tp67
a(I2
F1.263
tp68
aa(lp69
(NF0.0
tp70
a(I3
F1.764
tp71
aa(lp72
(NF0.0
tp73
a(I2
F1.298
tp74
aa(lp75
(NF0.0
tp76
a(I4
F1.697
tp77
aa(lp78
(NF0.0
tp79
a(I4
F1.314
tp80
aa(lp81
(NF0.0
tp82
a(I2
F1.363
tp83
aa(lp84
(NF0.0
tp85
a(I2
F0.997
tp86
aa(lp87
(NF0.0
tp88
a(I3
F0.795
tp89
aa(lp90
(NF0.0
tp91
a(I2
F1.614
tp92
aa(lp93
(NF0.0
tp94
a(I2
F1.867
tp95
aa(lp96
(NF0.0
tp97
a(I2
F1.229
tp98
aa(lp99
(NF0.0
tp100
a(I2
F0.763
tp101
aa(lp102
(NF0.0
tp103
a(I4
F1.362
tp104
aa(lp105
(NF0.0
tp106
a(I2
F1.261
tp107
aa(lp108
(NF0.0
tp109
a(I2
F0.798
tp110
aa(lp111
(NF0.0
tp112
a(I2
F0.663
tp113
aa(lp114
(NF0.0
tp115
a(I2
F0.713
tp116
aa(lp117
(NF0.0
tp118
a(I3
F0.912
tp119
aa(lp120
(NF0.0
tp121
a(I3
F0.945
tp122
aa(lp123
(NF0.0
tp124
a(I4
F1.079
tp125
aa(lp126
(NF0.0
tp127
a(I4
F1.31
tp128
aa(lp129
(NF0.0
tp130
a(I2
F1.229
tp131
aa(lp132
(NF0.0
tp133
a(I2
F1.214
tp134
aa(lp135
(NF0.0
tp136
a(I3
F1.063
tp137
aa(lp138
(NF0.0
tp139
a(I2
F0.915
tp140
aa(lp141
(NF0.0
tp142
a(I4
F0.979
tp143
aa(lp144
(NF0.0
tp145
a(I4
F1.128
tp146
aa(lp147
(NF0.0
tp148
a(I2
F0.901
tp149
aa(lp150
(NF0.0
tp151
a(I2
F0.779
tp152
aa(lp153
(NF0.0
tp154
a(I2
F0.901
tp155
aa(lp156
(NF0.0
tp157
a(I2
F0.696
tp158
aa(lp159
(NF0.0
tp160
a(I2
F0.964
tp161
aa(lp162
(NF0.0
tp163
a(I4
F1.166
tp164
aasS'run_time'
p165
F122.94666981697083
sS'total_iters'
p166
(lp167
I0
aI1
aI2
aI3
aI4
aI5
aI6
aI7
aI8
aI9
aI10
aI11
aI12
aI13
aI14
aI15
aI16
aI17
aI18
aI19
aI20
aI21
aI22
aI23
aI24
aI25
aI26
aI27
aI28
aI29
aI30
aI31
aI32
aI33
aI34
aI35
aI36
aI37
aI38
aI39
as.