(dp0
S'images'
p1
(lp2
S'sunapileznnbbmrwoei.jpg'
p3
aS'sunahwgbqkqcrwprgvh.jpg'
p4
aS'00576941031fa.jpg'
p5
aS'sunaahedjlmtqekgyvj.jpg'
p6
aS'00859940307fa.jpg'
p7
aS'00481940519fa.jpg'
p8
aS'sunaemcowdozyphwknd.jpg'
p9
aS'sunaaheqzstzxuadglu.jpg'
p10
aS'sunafkmnlytenlsywia.jpg'
p11
aS'00144931230fb.jpg'
p12
aS'sunbfyvfqiimvdaxlqn.jpg'
p13
aS'sunafgdqbclkwfocdhg.jpg'
p14
aS'sunabeyhmxodahoieyk.jpg'
p15
aS'00952960627fa.jpg'
p16
aS'00102931230fa.jpg'
p17
aS'sunanwjjyqqwzqrqagd.jpg'
p18
aS'sunabanoxjtqxamkucc.jpg'
p19
aS'sunaiwduelojtwaqeyh.jpg'
p20
aS'00089931230fa.jpg'
p21
aS'00829940307fa.jpg'
p22
aS'sunacvjlsylseoghjup.jpg'
p23
aS'sunathzzbcwjykldrem.jpg'
p24
aS'00761960627fa.jpg'
p25
aS'00210940128fb.jpg'
p26
aS'sunaathajvxrgptwhoj.jpg'
p27
aS'00719960620fa.jpg'
p28
aS'sunadzuvtmtmgupotmf.jpg'
p29
aS'00915960620fa.jpg'
p30
aS'00741941201fa.jpg'
p31
aS'sunaeisnjeetzmkbuad.jpg'
p32
aS'00908960530fa.jpg'
p33
aS'00245940128fa.jpg'
p34
aS'sunaydywdmvlfddbxbk.jpg'
p35
aS'sunaejnvnpltdmhbcsi.jpg'
p36
aS'00965960627fa.jpg'
p37
aS'sunaaftlyfudyzuhqzf.jpg'
p38
aS'sunaofikylqtxphvdem.jpg'
p39
aS'sunbbgtoeuzierkkajt.jpg'
p40
aS'00768941205fa.jpg'
p41
aS'00123931230fb.jpg'
p42
asS'ratings'
p43
(lp44
(lp45
(NF0.0
tp46
a(I1
F1.223
tp47
aa(lp48
(NF0.0
tp49
a(I2
F0.896
tp50
aa(lp51
(NF0.0
tp52
a(I3
F1.099
tp53
aa(lp54
(NF0.0
tp55
a(I2
F1.312
tp56
aa(lp57
(NF0.0
tp58
a(I4
F1.063
tp59
aa(lp60
(NF0.0
tp61
a(I4
F1.043
tp62
aa(lp63
(NF0.0
tp64
a(I4
F1.813
tp65
aa(lp66
(NF0.0
tp67
a(I4
F1.213
tp68
aa(lp69
(NF0.0
tp70
a(I4
F0.671
tp71
aa(lp72
(NF0.0
tp73
a(I3
F1.112
tp74
aa(lp75
(NF0.0
tp76
a(I2
F1.48
tp77
aa(lp78
(NF0.0
tp79
a(I3
F1.323
tp80
aa(lp81
(NF0.0
tp82
a(I4
F1.713
tp83
aa(lp84
(NF0.0
tp85
a(I2
F1.13
tp86
aa(lp87
(NF0.0
tp88
a(I4
F0.894
tp89
aa(lp90
(NF0.0
tp91
a(I2
F1.028
tp92
aa(lp93
(NF0.0
tp94
a(I2
F1.13
tp95
aa(lp96
(NF0.0
tp97
a(I2
F0.795
tp98
aa(lp99
(NF0.0
tp100
a(I4
F1.528
tp101
aa(lp102
(NF0.0
tp103
a(I4
F1.196
tp104
aa(lp105
(NF0.0
tp106
a(I2
F0.907
tp107
aa(lp108
(NF0.0
tp109
a(I2
F1.047
tp110
aa(lp111
(NF0.0
tp112
a(I3
F1.132
tp113
aa(lp114
(NF0.0
tp115
a(I2
F1.395
tp116
aa(lp117
(NF0.0
tp118
a(I3
F0.83
tp119
aa(lp120
(NF0.0
tp121
a(I3
F1.58
tp122
aa(lp123
(NF0.0
tp124
a(I2
F1.444
tp125
aa(lp126
(NF0.0
tp127
a(I4
F1.447
tp128
aa(lp129
(NF0.0
tp130
a(I2
F1.182
tp131
aa(lp132
(NF0.0
tp133
a(I4
F1.027
tp134
aa(lp135
(NF0.0
tp136
a(I1
F1.149
tp137
aa(lp138
(NF0.0
tp139
a(I2
F1.397
tp140
aa(lp141
(NF0.0
tp142
a(I2
F1.055
tp143
aa(lp144
(NF0.0
tp145
a(I4
F1.079
tp146
aa(lp147
(NF0.0
tp148
a(I2
F1.241
tp149
aa(lp150
(NF0.0
tp151
a(I1
F1.238
tp152
aa(lp153
(NF0.0
tp154
a(I1
F1.964
tp155
aa(lp156
(NF0.0
tp157
a(I1
F1.346
tp158
aa(lp159
(NF0.0
tp160
a(I2
F0.863
tp161
aa(lp162
(NF0.0
tp163
a(I1
F0.871
tp164
aasS'run_time'
p165
F122.74611186981201
sS'total_iters'
p166
(lp167
I0
aI1
aI2
aI3
aI4
aI5
aI6
aI7
aI8
aI9
aI10
aI11
aI12
aI13
aI14
aI15
aI16
aI17
aI18
aI19
aI20
aI21
aI22
aI23
aI24
aI25
aI26
aI27
aI28
aI29
aI30
aI31
aI32
aI33
aI34
aI35
aI36
aI37
aI38
aI39
as.