(dp0
S'cue_tuples'
p1
(lp2
(S'cue_R'
p3
S'L'
p4
I0
tp5
a(g3
g4
I0
tp6
a(g3
g4
I0
tp7
a(g3
g4
I0
tp8
a(g3
g4
I0
tp9
a(g3
g4
I0
tp10
a(g3
g4
I0
tp11
a(g3
g4
I0
tp12
a(g3
g4
I0
tp13
a(g3
g4
I0
tp14
asS'uncued'
p15
(lp16
S'00952960627fa_sunathzzbcwjykldrem.jpg'
p17
aS'00908960530fa_sunanwjjyqqwzqrqagd.jpg'
p18
aS'00965960627fa_sunaydywdmvlfddbxbk.jpg'
p19
aS'00245940128fa_sunabeyhmxodahoieyk.jpg'
p20
aS'00910960530fa_sunaofikylqtxphvdem.jpg'
p21
aS'00915960620fa_sunapileznnbbmrwoei.jpg'
p22
aS'00761960627fa_sunafgdqbclkwfocdhg.jpg'
p23
aS'00210940128fb_sunabanoxjtqxamkucc.jpg'
p24
aS'00144931230fb_sunaathajvxrgptwhoj.jpg'
p25
aS'00102931230fa_sunaajspcoepticvplv.jpg'
p26
asS'cued'
p27
(lp28
S'00728941205fa_sunaejnvnpltdmhbcsi.jpg'
p29
aS'00741941201fa_sunaemcowdozyphwknd.jpg'
p30
aS'00829940307fa_sunahwgbqkqcrwprgvh.jpg'
p31
aS'00089931230fa_sunaagcpoejbuzyvddd.jpg'
p32
aS'00973960627fa_sunbbgtoeuzierkkajt.jpg'
p33
aS'00576941031fa_sunacvjlsylseoghjup.jpg'
p34
aS'00859940307fa_sunaiycurtqsfkvcaso.jpg'
p35
aS'00719960620fa_sunadzuvtmtmgupotmf.jpg'
p36
aS'00092931230fa_sunaaheqzstzxuadglu.jpg'
p37
aS'00768941205fa_sunafkmnlytenlsywia.jpg'
p38
asS'uncued_RT'
p39
(lp40
sS'cued_RT'
p41
(lp42
F0.4472169876098633
aF0.5612931251525879
aF0.46987295150756836
aF0.5582680702209473
aF0.4441709518432617
aF0.405987024307251
aF0.3303229808807373
aF0.46590304374694824
aF0.4070699214935303
aF0.5002899169921875
as.