(dp0
S'images'
p1
(lp2
S'sunadfktsqjthoglcsm.jpg'
p3
aS'00635941031fa.jpg'
p4
aS'sunafowswglhxcsufpo.jpg'
p5
aS'00825940307fa.jpg'
p6
aS'sunagdzlvkqtpnfxfcg.jpg'
p7
aS'00779941205fa.jpg'
p8
aS'00793941205fa.jpg'
p9
aS'sunaddsaeicthrfbkhe.jpg'
p10
aS'sunbddbivbptlrlauhy.jpg'
p11
aS'00782941205fa.jpg'
p12
aS'sunaaexqbtdswxrqjvz.jpg'
p13
aS'00818940307fa.jpg'
p14
aS'sunagtjwilqjvxohypn.jpg'
p15
aS'sunaivdylrawbmhryfp.jpg'
p16
aS'sunaffgsyyvoqdlkmnk.jpg'
p17
aS'sunaenwuebvlpdmntju.jpg'
p18
aS'00848940307fa.jpg'
p19
aS'sunaflojskatpeqyzqp.jpg'
p20
aS'00574940928fa.jpg'
p21
aS'00760960620fa.jpg'
p22
aS'sunafpfpiiujzoesnqg.jpg'
p23
aS'sunahrltmuwbiehihpe.jpg'
p24
aS'sunaisiwfgppimtnmxl.jpg'
p25
aS'sunahpblecxtmuzkmxb.jpg'
p26
aS'00185940422fb.jpg'
p27
aS'00638941031fa.jpg'
p28
aS'sunavspxmxubqaeidjt.jpg'
p29
aS'sunanainkqdvktzoxyl.jpg'
p30
aS'00841940307fa.jpg'
p31
aS'00909960530.jpg'
p32
aS'00958960627fa.jpg'
p33
aS'00191940128fb.jpg'
p34
aS'sunaffstbkappprzxnv.jpg'
p35
aS'00978960627fa.jpg'
p36
aS'00302940422fa.jpg'
p37
aS'sunaawqdbpihmlbwyyn.jpg'
p38
aS'00771941205fa.jpg'
p39
aS'00080931230fb.jpg'
p40
aS'sunacvbrcejzwmcgnoq.jpg'
p41
aS'00770941201fa.jpg'
p42
asS'ratings'
p43
(lp44
(lp45
(NF0.0
tp46
a(I1
F1.244
tp47
aa(lp48
(NF0.0
tp49
a(I2
F1.266
tp50
aa(lp51
(NF0.0
tp52
aa(lp53
(NF0.0
tp54
a(I2
F1.547
tp55
aa(lp56
(NF0.0
tp57
a(I1
F1.589
tp58
aa(lp59
(NF0.0
tp60
a(I2
F1.046
tp61
aa(lp62
(NF0.0
tp63
a(I2
F1.228
tp64
aa(lp65
(NF0.0
tp66
a(I2
F0.987
tp67
aa(lp68
(NF0.0
tp69
a(I4
F1.144
tp70
aa(lp71
(NF0.0
tp72
a(I2
F0.897
tp73
aa(lp74
(NF0.0
tp75
a(I4
F1.035
tp76
aa(lp77
(NF0.0
tp78
a(I1
F0.763
tp79
aa(lp80
(NF0.0
tp81
a(I4
F0.912
tp82
aa(lp83
(NF0.0
tp84
a(I2
F1.332
tp85
aa(lp86
(NF0.0
tp87
a(I4
F0.719
tp88
aa(lp89
(NF0.0
tp90
a(I4
F0.997
tp91
aa(lp92
(NF0.0
tp93
a(I3
F1.43
tp94
aa(lp95
(NF0.0
tp96
a(I1
F1.274
tp97
aa(lp98
(NF0.0
tp99
a(I2
F0.696
tp100
aa(lp101
(NF0.0
tp102
a(I2
F1.336
tp103
aa(lp104
(NF0.0
tp105
a(I4
F0.942
tp106
aa(lp107
(NF0.0
tp108
a(I2
F1.114
tp109
aa(lp110
(NF0.0
tp111
a(I2
F1.513
tp112
aa(lp113
(NF0.0
tp114
a(I2
F0.811
tp115
aa(lp116
(NF0.0
tp117
a(I2
F0.979
tp118
aa(lp119
(NF0.0
tp120
a(I2
F0.629
tp121
aa(lp122
(NF0.0
tp123
a(I2
F1.03
tp124
aa(lp125
(NF0.0
tp126
a(I2
F0.731
tp127
aa(lp128
(NF0.0
tp129
a(I2
F0.746
tp130
aa(lp131
(NF0.0
tp132
a(I2
F1.118
tp133
aa(lp134
(NF0.0
tp135
a(I2
F0.596
tp136
aa(lp137
(NF0.0
tp138
a(I2
F1.111
tp139
aa(lp140
(NF0.0
tp141
a(I2
F1.004
tp142
aa(lp143
(NF0.0
tp144
a(I3
F1.162
tp145
aa(lp146
(NF0.0
tp147
a(I3
F1.527
tp148
aa(lp149
(NF0.0
tp150
a(I3
F1.127
tp151
aa(lp152
(NF0.0
tp153
a(I2
F0.711
tp154
aa(lp155
(NF0.0
tp156
a(I4
F1.296
tp157
aa(lp158
(NF0.0
tp159
a(I4
F1.052
tp160
aa(lp161
(NF0.0
tp162
a(I2
F1.263
tp163
aasS'run_time'
p164
F123.21277713775635
sS'total_iters'
p165
(lp166
I0
aI1
aI2
aI3
aI4
aI5
aI6
aI7
aI8
aI9
aI10
aI11
aI12
aI13
aI14
aI15
aI16
aI17
aI18
aI19
aI20
aI21
aI22
aI23
aI24
aI25
aI26
aI27
aI28
aI29
aI30
aI31
aI32
aI33
aI34
aI35
aI36
aI37
aI38
aI39
as.