(dp0
S'cue_tuples'
p1
(lp2
(S'cue_R'
p3
S'F'
p4
I0
tp5
a(g3
g4
I0
tp6
a(g3
g4
I1
tp7
a(g3
g4
I0
tp8
a(g3
g4
I0
tp9
a(g3
g4
I0
tp10
a(g3
g4
I0
tp11
a(g3
g4
I0
tp12
a(g3
g4
I0
tp13
a(g3
g4
I0
tp14
asS'uncued'
p15
(lp16
S'00116931230fa_sunaakqepfoeqomfgxf.jpg'
p17
aS'00543940519fa_sunacepzfrmtkiqonpy.jpg'
p18
aS'00745941205fa_sunaeouogqolxvggaoq.jpg'
p19
aS'00877960530fa_sunajxpkuhbizeveguy.jpg'
p20
aS'00871940307_sunajrujcsdxmfbssmc.jpg'
p21
aS'00942960627fa_sunarfdklgdnjgeqfjg.jpg'
p22
aS'00804960530fa_sunagwswhkvnsmuszlz.jpg'
p23
aS'00943960627fa_sunarpsxqkduedrrzyi.jpg'
p24
aS'00959960627fa_sunavxokzybtomhbmvm.jpg'
p25
aS'00112931230fa_sunaakjaacuzulqckgl.jpg'
p26
asS'cued'
p27
(lp28
S'00313940422fa_sunabwjvmoaddlyxfjr.jpg'
p29
aS'00785941205fa_sunaglqunwuycxydmyu.jpg'
p30
aS'00921960627fa_sunapqkpqdfvxlbqwyo.jpg'
p31
aS'00076931230fa_sunaafewhewbxmjiurz.jpg'
p32
aS'00795941205fa_sunagtumacdlmciqamz.jpg'
p33
aS'00862940307fa_sunaizgnnplsvajzhkc.jpg'
p34
aS'00999960627fa_sunbvbrvgbpanfrawft.jpg'
p35
aS'00101931230fb_sunaajqmsaavkmgbsth.jpg'
p36
aS'00979960627fa_sunbdycacjfaujxitbw.jpg'
p37
aS'00960960627fa_sunawksfbacycuhbrsc.jpg'
p38
asS'uncued_RT'
p39
(lp40
F0.4114720821380615
asS'cued_RT'
p41
(lp42
F0.6319332122802734
aF0.483184814453125
aF0.8860821723937988
aF0.5583388805389404
aF0.6681890487670898
aF0.4764862060546875
aF0.35837411880493164
aF0.36295294761657715
aF0.41683101654052734
as.