(dp0
S'images'
p1
(lp2
S'00719941201fa.jpg'
p3
aS'sunagjeesomrwjsfqie.jpg'
p4
aS'sunbtpilbhhbmhmeuzq.jpg'
p5
aS'sundahdxwmcdluscvot.jpg'
p6
aS'00634940928fa.jpg'
p7
aS'00145931230fb.jpg'
p8
aS'sunagutjvdvnhxejerz.jpg'
p9
aS'00163931230fb.jpg'
p10
aS'00694941121fa.jpg'
p11
aS'sunaqyylsngywqzwfmx.jpg'
p12
aS'sunajoveqhiprwqgoco.jpg'
p13
aS'00891960530fa.jpg'
p14
aS'01011960627fa.jpg'
p15
aS'sunabgfhvifeijihhjw.jpg'
p16
aS'00983960627fa.jpg'
p17
aS'sunadcphrizvfpljiqt.jpg'
p18
aS'00809960620fa.jpg'
p19
aS'00869940307fa.jpg'
p20
aS'00208940128fa.jpg'
p21
aS'sunabbafjowbzcvbucc.jpg'
p22
aS'00260940128fa.jpg'
p23
aS'sunabllobxadqcyttej.jpg'
p24
aS'00773960620fa.jpg'
p25
aS'sunadvithllcgmfxsrn.jpg'
p26
aS'sunabwfvcqqidycwypa.jpg'
p27
aS'sunbasypfgzjtomktmu.jpg'
p28
aS'00970960627fa.jpg'
p29
aS'sunaavodbcpygkggnfp.jpg'
p30
aS'00893960530Fa.jpg'
p31
aS'00997960627fa.jpg'
p32
aS'00938960627fa.jpg'
p33
aS'sunahbvlpavurqoxdeq.jpg'
p34
aS'sunbbhqyyzmsxhsbjmp.jpg'
p35
aS'00816941205fa.jpg'
p36
aS'sunagjzcrjvmxzqzljx.jpg'
p37
aS'00783941205fa.jpg'
p38
aS'00922960627fa.jpg'
p39
aS'sunalkiibhqpxfamlll.jpg'
p40
aS'sunaaekxzjzrfgtkwjf.jpg'
p41
aS'sunaazzyhbvqjpmazjq.jpg'
p42
asS'ratings'
p43
(lp44
(lp45
(NF0.0
tp46
a(I4
F1.348
tp47
aa(lp48
(NF0.0
tp49
a(I4
F1.424
tp50
aa(lp51
(NF0.0
tp52
a(I2
F0.946
tp53
aa(lp54
(NF0.0
tp55
a(I3
F1.05
tp56
aa(lp57
(NF0.0
tp58
a(I2
F1.177
tp59
aa(lp60
(NF0.0
tp61
a(I2
F0.944
tp62
aa(lp63
(NF0.0
tp64
a(I3
F1.11
tp65
aa(lp66
(NF0.0
tp67
a(I3
F0.761
tp68
aa(lp69
(NF0.0
tp70
a(I3
F0.614
tp71
aa(lp72
(NF0.0
tp73
a(I3
F0.962
tp74
aa(lp75
(NF0.0
tp76
a(I2
F0.945
tp77
aa(lp78
(NF0.0
tp79
a(I2
F0.726
tp80
aa(lp81
(NF0.0
tp82
a(I3
F1.094
tp83
aa(lp84
(NF0.0
tp85
a(I1
F0.831
tp86
aa(lp87
(NF0.0
tp88
a(I1
F0.644
tp89
aa(lp90
(NF0.0
tp91
a(I1
F0.75
tp92
aa(lp93
(NF0.0
tp94
a(I2
F1.112
tp95
aa(lp96
(NF0.0
tp97
a(I4
F1.028
tp98
aa(lp99
(NF0.0
tp100
a(I1
F0.829
tp101
aa(lp102
(NF0.0
tp103
a(I4
F1.328
tp104
aa(lp105
(NF0.0
tp106
a(I2
F1.046
tp107
aa(lp108
(NF0.0
tp109
a(I1
F1.361
tp110
aa(lp111
(NF0.0
tp112
a(I4
F1.095
tp113
aa(lp114
(NF0.0
tp115
a(I3
F1.279
tp116
aa(lp117
(NF0.0
tp118
a(I1
F0.795
tp119
aa(lp120
(NF0.0
tp121
a(I1
F0.98
tp122
aa(lp123
(NF0.0
tp124
a(I2
F1.13
tp125
aa(lp126
(NF0.0
tp127
a(I2
F1.262
tp128
aa(lp129
(NF0.0
tp130
a(I3
F1.024
tp131
aa(lp132
(NF0.0
tp133
a(I4
F1.796
tp134
aa(lp135
(NF0.0
tp136
a(I2
F1.08
tp137
aa(lp138
(NF0.0
tp139
a(I2
F1.046
tp140
aa(lp141
(NF0.0
tp142
a(I2
F1.112
tp143
aa(lp144
(NF0.0
tp145
a(I4
F1.029
tp146
aa(lp147
(NF0.0
tp148
a(I4
F1.131
tp149
aa(lp150
(NF0.0
tp151
a(I4
F0.764
tp152
aa(lp153
(NF0.0
tp154
a(I2
F0.761
tp155
aa(lp156
(NF0.0
tp157
a(I2
F0.768
tp158
aa(lp159
(NF0.0
tp160
a(I2
F1.077
tp161
aa(lp162
(NF0.0
tp163
a(I1
F0.829
tp164
aasS'run_time'
p165
F123.01277780532837
sS'total_iters'
p166
(lp167
I0
aI1
aI2
aI3
aI4
aI5
aI6
aI7
aI8
aI9
aI10
aI11
aI12
aI13
aI14
aI15
aI16
aI17
aI18
aI19
aI20
aI21
aI22
aI23
aI24
aI25
aI26
aI27
aI28
aI29
aI30
aI31
aI32
aI33
aI34
aI35
aI36
aI37
aI38
aI39
as.