(dp0
S'cue_tuples'
p1
(lp2
(S'cue_R'
p3
S'F'
p4
I0
tp5
a(g3
g4
I0
tp6
a(g3
g4
I0
tp7
a(g3
g4
I0
tp8
a(g3
g4
I0
tp9
a(g3
g4
I0
tp10
a(g3
g4
I0
tp11
a(g3
g4
I0
tp12
a(g3
g4
I0
tp13
a(g3
g4
I0
tp14
asS'uncued'
p15
(lp16
S'00145931230fb_sunaatjesvdupctftmn.jpg'
p17
aS'00827940307fa_sunahtfxgsrmkiulnwk.jpg'
p18
aS'00891960530fa_sunalkiibhqpxfamlll.jpg'
p19
aS'00719941201fa_sunadvithllcgmfxsrn.jpg'
p20
aS'00260940128fa_sunabgfhvifeijihhjw.jpg'
p21
aS'00938960627fa_sunaqyylsngywqzwfmx.jpg'
p22
aS'00634940928fa_sunadcphrizvfpljiqt.jpg'
p23
aS'00869940307fa_sunajoveqhiprwqgoco.jpg'
p24
aS'01011960627fa_sundahdxwmcdluscvot.jpg'
p25
aS'00819940307fa_sunahqldjibofgsfdgb.jpg'
p26
asS'cued'
p27
(lp28
S'00208940128fa_sunaazzyhbvqjpmazjq.jpg'
p29
aS'00063931230fa_sunaaelyvurpntclgau.jpg'
p30
aS'00997960627fa_sunbtpilbhhbmhmeuzq.jpg'
p31
aS'00783941205fa_sunagjeesomrwjsfqie.jpg'
p32
aS'00970960627fa_sunbasypfgzjtomktmu.jpg'
p33
aS'00163931230fb_sunaavodbcpygkggnfp.jpg'
p34
aS'00809960620fa_sunahbvlpavurqoxdeq.jpg'
p35
aS'00799941205fa_sunagutjvdvnhxejerz.jpg'
p36
aS'00773960620fa_sunafvsxtzaizojicxx.jpg'
p37
aS'00308940422fb_sunabwfvcqqidycwypa.jpg'
p38
asS'uncued_RT'
p39
(lp40
sS'cued_RT'
p41
(lp42
F1.2022159099578857
aF0.33338212966918945
aF0.41231608390808105
aF0.4473600387573242
aF0.5684080123901367
aF0.39068603515625
aF0.3535151481628418
aF0.32865095138549805
aF0.32695698738098145
aF0.29346489906311035
as.