(dp0
S'cue_tuples'
p1
(lp2
(S'cue_R'
p3
S'F'
p4
I0
tp5
a(g3
g4
I0
tp6
a(g3
g4
I0
tp7
a(g3
g4
I0
tp8
a(g3
g4
I0
tp9
a(g3
g4
I0
tp10
a(g3
g4
I0
tp11
a(g3
g4
I0
tp12
a(g3
g4
I0
tp13
a(g3
g4
I0
tp14
asS'uncued'
p15
(lp16
S'00990960627fa_sunbpflsdaxnddnwcqi.jpg'
p17
aS'00955960627fb_sunauburywlkjszngcq.jpg'
p18
aS'00313940422fa_sunabwjvmoaddlyxfjr.jpg'
p19
aS'00795941205fa_sunagtumacdlmciqamz.jpg'
p20
aS'00937960627fa_sunaqsolmfydodnakub.jpg'
p21
aS'00562941031fa_sunacjnahdmqfnjfwqx.jpg'
p22
aS'00620940928fa_sunacypmnujalygkunp.jpg'
p23
aS'00753941201fa_sunafcofuuzebuadceo.jpg'
p24
aS'00730960620fa_sunaekgzpfilgjxpeyq.jpg'
p25
aS'00209940128fb_sunabaergayifsgacxt.jpg'
p26
asS'cued'
p27
(lp28
S'00153931230fa_sunaauhozyxzeeqstxi.jpg'
p29
aS'00532960627fa_sunaccdtpgenvcbcbcf.jpg'
p30
aS'00070940307fa_sunaaeplwsfslcbtojr.jpg'
p31
aS'00800941205fb_sunagvjurcwdbixvnyi.jpg'
p32
aS'00576941031fa_sunacvjlsylseoghjup.jpg'
p33
aS'00633940928fa_sunadbhmrgrrpyzglxs.jpg'
p34
aS'00870940307fa_sunajrgtewnualfcerj.jpg'
p35
aS'00227940128fa_sunabckqabszusgcykj.jpg'
p36
aS'00630940928fa_sunaczwgyukesaajxnx.jpg'
p37
aS'00270940422fb_sunabllobxadqcyttej.jpg'
p38
asS'uncued_RT'
p39
(lp40
sS'cued_RT'
p41
(lp42
F0.5847549438476562
aF0.4601709842681885
aF0.4436001777648926
aF0.5600249767303467
aF0.3344240188598633
aF0.4151878356933594
aF0.48729705810546875
aF0.43437695503234863
aF0.3713350296020508
aF0.3438758850097656
as.