(dp0
S'cue_tuples'
p1
(lp2
(S'cue_L'
p3
S'F'
p4
I0
tp5
a(g3
g4
I0
tp6
a(g3
g4
I0
tp7
a(g3
g4
I0
tp8
a(g3
g4
I0
tp9
a(g3
g4
I0
tp10
a(g3
g4
I0
tp11
a(g3
g4
I0
tp12
a(g3
g4
I0
tp13
a(g3
g4
I0
tp14
asS'uncued'
p15
(lp16
S'00836940307fa_sunainqelldeebvxtcz.jpg'
p17
aS'00910960530fa_sunaofikylqtxphvdem.jpg'
p18
aS'00092931230fa_sunaaheqzstzxuadglu.jpg'
p19
aS'00815941205fa_sunahiphsekjihkafsl.jpg'
p20
aS'00663941121fa_sunadnjjzohjhbohlwq.jpg'
p21
aS'00839940307fa_sunaipyohrqlwngaqif.jpg'
p22
aS'00884960530fa_sunakodkcslgqhqlgwl.jpg'
p23
aS'00741941201fa_sunaemcowdozyphwknd.jpg'
p24
aS'00935960627fa_sunaqbmgkgqucajzrkp.jpg'
p25
aS'00077931230fb_sunaafgqutfaishsxyu.jpg'
p26
asS'cued'
p27
(lp28
S'00720960620fa_sunaecpkgfewqqreqwe.jpg'
p29
aS'01007960627fa_sunbxarcshsnqsefemx.jpg'
p30
aS'00719960620fa_sunadzuvtmtmgupotmf.jpg'
p31
aS'00581940928fa_sunacvzhvcksnwqcqbw.jpg'
p32
aS'00097931230fa_sunaajayojuslbbnneg.jpg'
p33
aS'00901960530fa_sunammbnoambmhdxdwd.jpg'
p34
aS'00889960530fa_sunaletopenvvozhpxc.jpg'
p35
aS'00095931230fa_sunaahzooisqkwlxwoz.jpg'
p36
aS'01002960627fb_sunbwaafjdebjzttuvq.jpg'
p37
aS'00827940307fa_sunahtfxgsrmkiulnwk.jpg'
p38
asS'uncued_RT'
p39
(lp40
F0.665693998336792
aF0.42835402488708496
aF0.4336090087890625
aF0.413830041885376
aF0.5312380790710449
aF0.3365490436553955
aF0.4767780303955078
aF0.37955212593078613
aF0.39282894134521484
aF0.4083678722381592
asS'cued_RT'
p41
(lp42
s.