(dp0
S'images'
p1
(lp2
S'sunagvprlbprarvgdvj.jpg'
p3
aS'00263940128fb.jpg'
p4
aS'00874940307fa.jpg'
p5
aS'sunaetydippjxikifsb.jpg'
p6
aS'sunaisiwfgppimtnmxl.jpg'
p7
aS'00130931230fa.jpg'
p8
aS'00761960627fa.jpg'
p9
aS'sunaivdylrawbmhryfp.jpg'
p10
aS'sunaobtizabegtwfwul.jpg'
p11
aS'00976960627fa.jpg'
p12
aS'sunafgdqbclkwfocdhg.jpg'
p13
aS'00822940307fa.jpg'
p14
aS'00752960620fa.jpg'
p15
aS'00262940128fa.jpg'
p16
aS'sunasnqkkyhilqkxiqm.jpg'
p17
aS'01207940128fa.jpg'
p18
aS'sundbixjudsgeuuehrn.jpg'
p19
aS'00841940307fa.jpg'
p20
aS'00877960530fa.jpg'
p21
aS'00746941201fa.jpg'
p22
aS'sunadikxpvqeabxrvvc.jpg'
p23
aS'00744941201fa.jpg'
p24
aS'sunabizydfotqddlnjp.jpg'
p25
aS'00997960627fa.jpg'
p26
aS'sunablfqiwfqomjarht.jpg'
p27
aS'00949960627fb.jpg'
p28
aS'sunaflojskatpeqyzqp.jpg'
p29
aS'sunahpblecxtmuzkmxb.jpg'
p30
aS'sunantryfbloeaomfta.jpg'
p31
aS'00913960530fa.jpg'
p32
aS'sunagwzdbtlixdhgolm.jpg'
p33
aS'sunabxsuqbleluwczoy.jpg'
p34
aS'00146960620fb.jpg'
p35
aS'00880960530fa.jpg'
p36
aS'sunasrjlmglmjzbmqxb.jpg'
p37
aS'00986960627fa.jpg'
p38
aS'sunaejnvnpltdmhbcsi.jpg'
p39
aS'sunbwyuesflwdpqtgoy.jpg'
p40
aS'sunaedtgwjvvziytspa.jpg'
p41
aS'00938960627fa.jpg'
p42
asS'ratings'
p43
(lp44
(lp45
(NF0.0
tp46
aa(lp47
(NF0.0
tp48
a(I4
F1.611
tp49
aa(lp50
(NF0.0
tp51
a(I2
F0.973
tp52
aa(lp53
(NF0.0
tp54
a(I3
F1.676
tp55
aa(lp56
(NF0.0
tp57
a(I1
F1.593
tp58
aa(lp59
(NF0.0
tp60
a(I3
F1.246
tp61
aa(lp62
(NF0.0
tp63
a(I2
F1.039
tp64
aa(lp65
(NF0.0
tp66
a(I3
F1.093
tp67
aa(lp68
(NF0.0
tp69
a(I1
F1.109
tp70
aa(lp71
(NF0.0
tp72
a(I3
F1.575
tp73
aa(lp74
(NF0.0
tp75
a(I2
F0.977
tp76
aa(lp77
(NF0.0
tp78
a(I4
F1.007
tp79
aa(lp80
(NF0.0
tp81
a(I3
F1.358
tp82
aa(lp83
(NF0.0
tp84
a(I2
F0.925
tp85
aa(lp86
(NF0.0
tp87
a(I1
F1.074
tp88
aa(lp89
(NF0.0
tp90
a(I3
F0.774
tp91
aa(lp92
(NF0.0
tp93
a(I2
F0.609
tp94
aa(lp95
(NF0.0
tp96
a(I3
F1.125
tp97
aa(lp98
(NF0.0
tp99
a(I3
F0.892
tp100
aa(lp101
(NF0.0
tp102
a(I3
F1.288
tp103
aa(lp104
(NF0.0
tp105
a(I1
F1.226
tp106
aa(lp107
(NF0.0
tp108
a(I2
F1.441
tp109
aa(lp110
(NF0.0
tp111
a(I3
F1.043
tp112
aa(lp113
(NF0.0
tp114
a(I2
F0.761
tp115
aa(lp116
(NF0.0
tp117
a(I3
F1.141
tp118
aa(lp119
(NF0.0
tp120
a(I2
F1.188
tp121
aa(lp122
(NF0.0
tp123
aa(lp124
(NF0.0
tp125
a(I1
F0.926
tp126
aa(lp127
(NF0.0
tp128
a(I3
F0.708
tp129
aa(lp130
(NF0.0
tp131
a(I2
F0.605
tp132
aa(lp133
(NF0.0
tp134
a(I3
F0.809
tp135
aa(lp136
(NF0.0
tp137
a(I3
F1.027
tp138
aa(lp139
(NF0.0
tp140
a(I2
F0.573
tp141
aa(lp142
(NF0.0
tp143
a(I3
F0.541
tp144
aa(lp145
(NF0.0
tp146
a(I4
F1.409
tp147
aa(lp148
(NF0.0
tp149
a(I2
F1.475
tp150
aa(lp151
(NF0.0
tp152
a(I1
F1.409
tp153
aa(lp154
(NF0.0
tp155
a(I1
F0.859
tp156
aa(lp157
(NF0.0
tp158
a(I3
F0.777
tp159
aa(lp160
(NF0.0
tp161
a(I2
F1.237
tp162
aasS'run_time'
p163
F122.8596339225769
sS'total_iters'
p164
(lp165
I0
aI1
aI2
aI3
aI4
aI5
aI6
aI7
aI8
aI9
aI10
aI11
aI12
aI13
aI14
aI15
aI16
aI17
aI18
aI19
aI20
aI21
aI22
aI23
aI24
aI25
aI26
aI27
aI28
aI29
aI30
aI31
aI32
aI33
aI34
aI35
aI36
aI37
aI38
aI39
as.