(dp0
S'cue_tuples'
p1
(lp2
(S'cue_L'
p3
S'F'
p4
I0
tp5
a(g3
g4
I0
tp6
a(g3
g4
I0
tp7
a(g3
g4
I0
tp8
a(g3
g4
I0
tp9
a(g3
g4
I0
tp10
a(g3
g4
I1
tp11
a(g3
g4
I0
tp12
a(g3
g4
I0
tp13
a(g3
g4
I0
tp14
asS'uncued'
p15
(lp16
S'00564941031fa_sunacsaovnjezqwbykf.jpg'
p17
aS'00983960627fa_sunbfyvfqiimvdaxlqn.jpg'
p18
aS'00742941201fa_sunaenwuebvlpdmntju.jpg'
p19
aS'00147931230fb_sunaatpkocdkocwxpkb.jpg'
p20
aS'00794960620fa_sunagtqhhwxjeuxdebe.jpg'
p21
aS'00914960620fa_sunaozisvwfbmlkfhzv.jpg'
p22
aS'00138931230fa_sunaapfaivxqoynnwwp.jpg'
p23
aS'00921960627fa_sunapqkpqdfvxlbqwyo.jpg'
p24
aS'00705941205fa_sunadtlxenqqxsyjvix.jpg'
p25
aS'00786941205fa_sunagmhildamktmqjss.jpg'
p26
asS'cued'
p27
(lp28
S'00571940928fa_sunacuatpqpqhyjhjqk.jpg'
p29
aS'00124931230fa_sunaalhlvzmjmitybdn.jpg'
p30
aS'00876960620fa_sunajwqkfsykceonyig.jpg'
p31
aS'00071941031fa_sunaaexqbtdswxrqjvz.jpg'
p32
aS'00851940307fa_sunaivflshbyfrfzhqb.jpg'
p33
aS'00953960627fa_sunatstrpjxhvtbaczf.jpg'
p34
aS'00919960620fa_sunapmfmzadmosuogaz.jpg'
p35
aS'00242940128fa_sunabcuurugvxwparpk.jpg'
p36
aS'00782941205fa_sunagfvluwixdsozaql.jpg'
p37
aS'00809960620fa_sunahbvlpavurqoxdeq.jpg'
p38
asS'uncued_RT'
p39
(lp40
F0.47789907455444336
aF0.5567519664764404
aF0.3464939594268799
aF0.3344449996948242
aF0.2794620990753174
aF0.3644568920135498
aF0.36567211151123047
aF0.30885791778564453
aF0.2975189685821533
aF0.35121893882751465
asS'cued_RT'
p41
(lp42
s.