(dp0
S'cue_tuples'
p1
(lp2
(S'cue_R'
p3
S'F'
p4
I0
tp5
a(g3
g4
I0
tp6
a(g3
g4
I0
tp7
a(g3
g4
I0
tp8
a(g3
g4
I0
tp9
a(g3
g4
I0
tp10
a(g3
g4
I0
tp11
a(g3
g4
I1
tp12
a(g3
g4
I1
tp13
a(g3
g4
I0
tp14
asS'uncued'
p15
(lp16
S'00936960627fa_sunaqgjuuwvdcyiccjt.jpg'
p17
aS'00090931230fa_sunaahedjlmtqekgyvj.jpg'
p18
aS'00926960627Fa_sunapqwoeotxshkukbh.jpg'
p19
aS'00789960620fa_sunagpancjmxqfazssf.jpg'
p20
aS'00158931230fb_sunaavchcbptaerhcfy.jpg'
p21
aS'00743941201fa_sunaeoghzrjarigmwua.jpg'
p22
aS'00885960530fa_sunakwlvxjpddialozd.jpg'
p23
aS'00778941205fa_sunagcthdfirrcawoic.jpg'
p24
aS'00098931230fa_sunaajpqmulidejvjsr.jpg'
p25
aS'00557940519fa_sunachtuarilwyqnvjx.jpg'
p26
asS'cued'
p27
(lp28
S'00598941031fa_sunacxtcahkymosigud.jpg'
p29
aS'00858940307fa_sunaixpqndlwhwjtjek.jpg'
p30
aS'00630941031fa_sunadakkdovnuzlycvp.jpg'
p31
aS'00751960620fa_sunaezuszgtxnmsxdbk.jpg'
p32
aS'00670941121fa_sunadochqcucscehsgk.jpg'
p33
aS'00163931230fb_sunaavodbcpygkggnfp.jpg'
p34
aS'00864940307fa_sunajawzbrlrwafowen.jpg'
p35
aS'00776941205fa_sunafxokyavhgptyfye.jpg'
p36
aS'00970960627fa_sunbasypfgzjtomktmu.jpg'
p37
aS'00136931230fb_sunaanptmsknhirrzed.jpg'
p38
asS'uncued_RT'
p39
(lp40
F0.390949010848999
aF0.4370288848876953
asS'cued_RT'
p41
(lp42
F0.3729839324951172
aF0.3903639316558838
aF0.3310518264770508
aF0.39591288566589355
aF0.380357027053833
aF0.427156925201416
aF0.4403259754180908
aF0.43036508560180664
as.