(dp0
S'cue_tuples'
p1
(lp2
(S'cue_L'
p3
S'L'
p4
I0
tp5
a(g3
g4
I1
tp6
a(g3
g4
I0
tp7
a(g3
g4
I1
tp8
a(g3
g4
I0
tp9
a(g3
g4
I0
tp10
a(g3
g4
I0
tp11
a(g3
g4
I0
tp12
a(g3
g4
I0
tp13
a(g3
g4
I0
tp14
asS'uncued'
p15
(lp16
S'00752960620fa_sunafbwnojpqeyzssoe.jpg'
p17
aS'00267940128fb_sunablfqiwfqomjarht.jpg'
p18
aS'00810941205fa_sunahctntqrunhdxhtb.jpg'
p19
aS'00650941031fa_sunadikxpvqeabxrvvc.jpg'
p20
aS'00762941201fa_sunafgzgbisbopcyslr.jpg'
p21
aS'00949960627fb_sunasnqkkyhilqkxiqm.jpg'
p22
aS'00744941201fa_sunaeomlfaabhpswasy.jpg'
p23
aS'00859940307fa_sunaiycurtqsfkvcaso.jpg'
p24
aS'00761960627fa_sunafgdqbclkwfocdhg.jpg'
p25
aS'00262940128fa_sunabizydfotqddlnjp.jpg'
p26
asS'cued'
p27
(lp28
S'01207940128fa_sundbixjudsgeuuehrn.jpg'
p29
aS'00822940307fa_sunahqrxievfeusiqlt.jpg'
p30
aS'00965960627fa_sunaydywdmvlfddbxbk.jpg'
p31
aS'00877960530fa_sunajxpkuhbizeveguy.jpg'
p32
aS'00841940307fa_sunaisiwfgppimtnmxl.jpg'
p33
aS'00801941205fa_sunagvprlbprarvgdvj.jpg'
p34
aS'00745941205fa_sunaeouogqolxvggaoq.jpg'
p35
aS'00746941201fa_sunaetydippjxikifsb.jpg'
p36
aS'01003960627fb_sunbwdrdvsweerwsdrj.jpg'
p37
aS'00909960530_sunaobtizabegtwfwul.jpg'
p38
asS'uncued_RT'
p39
(lp40
F0.3916499614715576
aF0.5249230861663818
aF0.5257408618927002
aF0.4210658073425293
aF0.4049239158630371
aF0.47695207595825195
aF0.4395790100097656
aF0.4219930171966553
aF0.5225210189819336
aF0.3724830150604248
asS'cued_RT'
p41
(lp42
s.