(dp0
S'images'
p1
(lp2
S'sunaeuzwggvibufclwf.jpg'
p3
aS'00978960627fa.jpg'
p4
aS'00306940422fa.jpg'
p5
aS'00993960627fa.jpg'
p6
aS'00984960627fa.jpg'
p7
aS'00498960627fa.jpg'
p8
aS'00887960530.jpg'
p9
aS'sunaanlwnpqndclffxt.jpg'
p10
aS'sunabkngeblodihjvbk.jpg'
p11
aS'sunaathajvxrgptwhoj.jpg'
p12
aS'00589940928fa.jpg'
p13
aS'sunabueyoajufbkraki.jpg'
p14
aS'00854940307fa.jpg'
p15
aS'00086931230fa.jpg'
p16
aS'sunbmaiocftdtvnzgap.jpg'
p17
aS'sunabkmdplkdbvxriff.jpg'
p18
aS'sunaafewhewbxmjiurz.jpg'
p19
aS'sunaakjaacuzulqckgl.jpg'
p20
aS'sunabbwggenhfbftyvi.jpg'
p21
aS'00265940128fb.jpg'
p22
aS'sunbdycacjfaujxitbw.jpg'
p23
aS'00958960627fa.jpg'
p24
aS'00296940422fa.jpg'
p25
aS'sunacmpqqfbsvlzinzl.jpg'
p26
aS'00675941121fa.jpg'
p27
aS'sunagvxkjokqimstxpe.jpg'
p28
aS'00316940422fa.jpg'
p29
aS'00857940307fa.jpg'
p30
aS'sunaavjinpnkappuonm.jpg'
p31
aS'00818940307fa.jpg'
p32
aS'sunbaejotfklekvpxcz.jpg'
p33
aS'sunafkmnlytenlsywia.jpg'
p34
aS'00260940128fa.jpg'
p35
aS'sunafijbgncijwykrnl.jpg'
p36
aS'sunaakxgygjfqrzpyoz.jpg'
p37
aS'00780960530fa.jpg'
p38
aS'00481940519fa.jpg'
p39
aS'sunaatpeezlljqaxlhj.jpg'
p40
aS'sunaajspcoepticvplv.jpg'
p41
aS'sunabppokiyglaxpcha.jpg'
p42
asS'ratings'
p43
(lp44
(lp45
(NF0.0
tp46
a(I4
F1.446
tp47
aa(lp48
(NF0.0
tp49
a(I3
F1.133
tp50
aa(lp51
(NF0.0
tp52
a(I2
F0.863
tp53
aa(lp54
(NF0.0
tp55
a(I2
F1.171
tp56
aa(lp57
(NF0.0
tp58
a(I2
F0.83
tp59
aa(lp60
(NF0.0
tp61
a(I3
F0.93
tp62
aa(lp63
(NF0.0
tp64
a(I2
F0.784
tp65
aa(lp66
(NF0.0
tp67
a(I3
F1.563
tp68
aa(lp69
(NF0.0
tp70
a(I4
F0.776
tp71
aa(lp72
(NF0.0
tp73
a(I3
F1.313
tp74
aa(lp75
(NF0.0
tp76
a(I2
F0.881
tp77
aa(lp78
(NF0.0
tp79
a(I3
F1.042
tp80
aa(lp81
(NF0.0
tp82
a(I1
F1.346
tp83
aa(lp84
(NF0.0
tp85
a(I2
F1.133
tp86
aa(lp87
(NF0.0
tp88
a(I4
F1.175
tp89
aa(lp90
(NF0.0
tp91
a(I4
F1.109
tp92
aa(lp93
(NF0.0
tp94
a(I3
F1.361
tp95
aa(lp96
(NF0.0
tp97
a(I4
F0.767
tp98
aa(lp99
(NF0.0
tp100
a(I2
F1.249
tp101
aa(lp102
(NF0.0
tp103
a(I2
F0.981
tp104
aa(lp105
(NF0.0
tp106
a(I4
F1.243
tp107
aa(lp108
(NF0.0
tp109
a(I2
F0.93
tp110
aa(lp111
(NF0.0
tp112
a(I3
F0.78
tp113
aa(lp114
(NF0.0
tp115
a(I1
F1.277
tp116
aa(lp117
(NF0.0
tp118
a(I2
F0.786
tp119
aa(lp120
(NF0.0
tp121
a(I3
F1.026
tp122
aa(lp123
(NF0.0
tp124
a(I2
F0.932
tp125
aa(lp126
(NF0.0
tp127
a(I3
F0.953
tp128
aa(lp129
(NF0.0
tp130
a(I2
F1.044
tp131
aa(lp132
(NF0.0
tp133
a(I4
F1.215
tp134
aa(lp135
(NF0.0
tp136
a(I2
F1.192
tp137
aa(lp138
(NF0.0
tp139
a(I4
F1.676
tp140
aa(lp141
(NF0.0
tp142
a(I1
F1.103
tp143
aa(lp144
(NF0.0
tp145
a(I1
F0.943
tp146
aa(lp147
(NF0.0
tp148
a(I1
F1.009
tp149
aa(lp150
(NF0.0
tp151
a(I2
F0.942
tp152
aa(lp153
(NF0.0
tp154
a(I1
F1.003
tp155
aa(lp156
(NF0.0
tp157
a(I1
F1.042
tp158
aa(lp159
(NF0.0
tp160
a(I1
F0.961
tp161
aa(lp162
(NF0.0
tp163
a(I4
F0.792
tp164
aasS'run_time'
p165
F123.093514919281
sS'total_iters'
p166
(lp167
I0
aI1
aI2
aI3
aI4
aI5
aI6
aI7
aI8
aI9
aI10
aI11
aI12
aI13
aI14
aI15
aI16
aI17
aI18
aI19
aI20
aI21
aI22
aI23
aI24
aI25
aI26
aI27
aI28
aI29
aI30
aI31
aI32
aI33
aI34
aI35
aI36
aI37
aI38
aI39
as.