(dp0
S'cue_tuples'
p1
(lp2
(S'cue_R'
p3
S'L'
p4
I0
tp5
a(g3
g4
I0
tp6
a(g3
g4
I1
tp7
a(g3
g4
I0
tp8
a(g3
g4
I1
tp9
a(g3
g4
I0
tp10
a(g3
g4
I0
tp11
a(g3
g4
I0
tp12
a(g3
g4
I0
tp13
a(g3
g4
I0
tp14
asS'uncued'
p15
(lp16
S'00979960627fa_sunbdycacjfaujxitbw.jpg'
p17
aS'00306940422fa_sunabueyoajufbkraki.jpg'
p18
aS'00760960620fa_sunaffstbkappprzxnv.jpg'
p19
aS'00112931230fa_sunaakjaacuzulqckgl.jpg'
p20
aS'00978960627fa_sunbddbivbptlrlauhy.jpg'
p21
aS'00144931230fb_sunaathajvxrgptwhoj.jpg'
p22
aS'00984960627fa_sunbfzchmomnvzhbxdg.jpg'
p23
aS'00498960627fa_sunabzjxlmkwnwzimua.jpg'
p24
aS'00218940128fa_sunabbwggenhfbftyvi.jpg'
p25
aS'00993960627fa_sunbprywzqxjcezkbch.jpg'
p26
asS'cued'
p27
(lp28
S'00062931230fb_sunaaelotvjgibjtjhs.jpg'
p29
aS'00265940128fb_sunabkmdplkdbvxriff.jpg'
p30
aS'00086931230fa_sunaafynehyrzpsoaml.jpg'
p31
aS'00887960530_sunalcrtwiycqobgelp.jpg'
p32
aS'00133931230fa_sunaanlwnpqndclffxt.jpg'
p33
aS'00854940307fa_sunaiwduelojtwaqeyh.jpg'
p34
aS'00266940128fb_sunabkngeblodihjvbk.jpg'
p35
aS'00750941201fa_sunaeuzwggvibufclwf.jpg'
p36
aS'00589940928fa_sunacwggadqsfpovdjv.jpg'
p37
aS'00076931230fa_sunaafewhewbxmjiurz.jpg'
p38
asS'uncued_RT'
p39
(lp40
F0.4107699394226074
aF0.4248800277709961
asS'cued_RT'
p41
(lp42
F0.4200458526611328
aF0.4615340232849121
aF0.37776994705200195
aF0.40706586837768555
aF0.4376399517059326
aF0.3894650936126709
aF0.3914361000061035
aF0.5625438690185547
as.