(dp0
S'cue_tuples'
p1
(lp2
(S'cue_R'
p3
S'L'
p4
I0
tp5
a(g3
g4
I0
tp6
a(g3
g4
I0
tp7
a(g3
g4
I0
tp8
a(g3
g4
I0
tp9
a(g3
g4
I0
tp10
a(g3
g4
I0
tp11
a(g3
g4
I0
tp12
a(g3
g4
I0
tp13
a(g3
g4
I0
tp14
asS'uncued'
p15
(lp16
S'00971960627fa_sunbbegcweqnetpdlrh.jpg'
p17
aS'00554940519fa_sunacfdkbsrughwqwtt.jpg'
p18
aS'00185940422fb_sunaawqdbpihmlbwyyn.jpg'
p19
aS'00985960627fa_sunbgklxeqjhdbyfhhy.jpg'
p20
aS'00747941201fa_sunaeutbrtswvsozxyk.jpg'
p21
aS'00931960627fa_sunaptrqvaooxfvktvw.jpg'
p22
aS'00276940422fa_sunabmytpyhsgigllxu.jpg'
p23
aS'00933960627fa_sunapwjkcxdaeqehfql.jpg'
p24
aS'00096931230fa_sunaaiqiqcggrskoqgy.jpg'
p25
aS'01004960627fa_sunbwtlihsuptkrckid.jpg'
p26
asS'cued'
p27
(lp28
S'00892960530fa_sunalntxqqadigcletd.jpg'
p29
aS'00903960620fa_sunanainkqdvktzoxyl.jpg'
p30
aS'00952960627fa_sunathzzbcwjykldrem.jpg'
p31
aS'00145931230fb_sunaatjesvdupctftmn.jpg'
p32
aS'00968960627fa_sunbagfpovqwbuexqdn.jpg'
p33
aS'00772941201fa_sunafpfpiiujzoesnqg.jpg'
p34
aS'00963960627fa_sunayaepykrqvenaqqy.jpg'
p35
aS'00676941121fa_sunadpnqovzckyikrjo.jpg'
p36
aS'00908960530fa_sunanwjjyqqwzqrqagd.jpg'
p37
aS'01009960627fa_sunbxzweleltykebgan.jpg'
p38
asS'uncued_RT'
p39
(lp40
sS'cued_RT'
p41
(lp42
F0.7343471050262451
aF0.5977349281311035
aF0.4386601448059082
aF0.434661865234375
aF0.42951297760009766
aF0.4123549461364746
aF0.41785120964050293
aF0.4601709842681885
aF0.40990400314331055
aF0.3623640537261963
as.