(dp0
S'images'
p1
(lp2
S'00999960627fa.jpg'
p3
aS'00145931230fb.jpg'
p4
aS'sunacfdkbsrughwqwtt.jpg'
p5
aS'00747941201fa.jpg'
p6
aS'sunaaiqiqcggrskoqgy.jpg'
p7
aS'sunbxzweleltykebgan.jpg'
p8
aS'sunapwjkcxdaeqehfql.jpg'
p9
aS'00908960530fa.jpg'
p10
aS'01009960627fa.jpg'
p11
aS'00245940128fa.jpg'
p12
aS'00892960530fa.jpg'
p13
aS'00772941201fa.jpg'
p14
aS'00276940422fa.jpg'
p15
aS'sunathzzbcwjykldrem.jpg'
p16
aS'00185940422fb.jpg'
p17
aS'sunalntxqqadigcletd.jpg'
p18
aS'sunbbegcweqnetpdlrh.jpg'
p19
aS'00933960627fa.jpg'
p20
aS'00931960627fa.jpg'
p21
aS'sunayaepykrqvenaqqy.jpg'
p22
aS'sunanainkqdvktzoxyl.jpg'
p23
aS'00791941205fa.jpg'
p24
aS'sunaeutbrtswvsozxyk.jpg'
p25
aS'sunaaexpnawiehinlpy.jpg'
p26
aS'00108960530fa.jpg'
p27
aS'sunaamsdyakblkfoydx.jpg'
p28
aS'sunarceibpcyacbmfga.jpg'
p29
aS'00783941205fa.jpg'
p30
aS'00120931230fa.jpg'
p31
aS'00636941031fa.jpg'
p32
aS'sunacycdoztxoluxjyk.jpg'
p33
aS'00925960627fa.jpg'
p34
aS'01011960627fa.jpg'
p35
aS'00777941205fa.jpg'
p36
aS'00483940519fa.jpg'
p37
aS'00564940928fa.jpg'
p38
aS'00895960530fa.jpg'
p39
aS'00154931230fa.jpg'
p40
aS'00771941205fa.jpg'
p41
aS'sunanaacmmosxrfwmvl.jpg'
p42
asS'ratings'
p43
(lp44
(lp45
(NF0.0
tp46
a(I1
F1.453
tp47
aa(lp48
(NF0.0
tp49
a(I2
F1.053
tp50
aa(lp51
(NF0.0
tp52
a(I4
F1.059
tp53
aa(lp54
(NF0.0
tp55
a(I3
F0.834
tp56
aa(lp57
(NF0.0
tp58
a(I3
F1.48
tp59
aa(lp60
(NF0.0
tp61
a(I4
F0.843
tp62
aa(lp63
(NF0.0
tp64
a(I4
F1.492
tp65
aa(lp66
(NF0.0
tp67
a(I2
F0.885
tp68
aa(lp69
(NF0.0
tp70
a(I3
F0.997
tp71
aa(lp72
(NF0.0
tp73
a(I3
F0.933
tp74
aa(lp75
(NF0.0
tp76
a(I1
F0.953
tp77
aa(lp78
(NF0.0
tp79
a(I1
F1.294
tp80
aa(lp81
(NF0.0
tp82
a(I1
F0.852
tp83
aa(lp84
(NF0.0
tp85
a(I3
F1.294
tp86
aa(lp87
(NF0.0
tp88
a(I3
F1.151
tp89
aa(lp90
(NF0.0
tp91
a(I1
F1.208
tp92
aa(lp93
(NF0.0
tp94
a(I2
F1.077
tp95
aa(lp96
(NF0.0
tp97
a(I3
F1.163
tp98
aa(lp99
(NF0.0
tp100
a(I3
F1.381
tp101
aa(lp102
(NF0.0
tp103
a(I1
F1.509
tp104
aa(lp105
(NF0.0
tp106
a(I2
F1.243
tp107
aa(lp108
(NF0.0
tp109
a(I3
F1.263
tp110
aa(lp111
(NF0.0
tp112
a(I4
F0.927
tp113
aa(lp114
(NF0.0
tp115
a(I2
F1.115
tp116
aa(lp117
(NF0.0
tp118
a(I3
F1.096
tp119
aa(lp120
(NF0.0
tp121
a(I2
F0.997
tp122
aa(lp123
(NF0.0
tp124
a(I3
F1.66
tp125
aa(lp126
(NF0.0
tp127
a(I3
F1.184
tp128
aa(lp129
(NF0.0
tp130
a(I2
F1.134
tp131
aa(lp132
(NF0.0
tp133
a(I2
F1.064
tp134
aa(lp135
(NF0.0
tp136
a(I4
F1.094
tp137
aa(lp138
(NF0.0
tp139
a(I3
F0.836
tp140
aa(lp141
(NF0.0
tp142
a(I3
F0.766
tp143
aa(lp144
(NF0.0
tp145
a(I2
F0.88
tp146
aa(lp147
(NF0.0
tp148
a(I2
F0.969
tp149
aa(lp150
(NF0.0
tp151
a(I2
F0.734
tp152
aa(lp153
(NF0.0
tp154
a(I2
F0.932
tp155
aa(lp156
(NF0.0
tp157
a(I3
F0.869
tp158
aa(lp159
(NF0.0
tp160
a(I2
F1.415
tp161
aa(lp162
(NF0.0
tp163
a(I3
F1.359
tp164
aasS'run_time'
p165
F122.82859897613525
sS'total_iters'
p166
(lp167
I0
aI1
aI2
aI3
aI4
aI5
aI6
aI7
aI8
aI9
aI10
aI11
aI12
aI13
aI14
aI15
aI16
aI17
aI18
aI19
aI20
aI21
aI22
aI23
aI24
aI25
aI26
aI27
aI28
aI29
aI30
aI31
aI32
aI33
aI34
aI35
aI36
aI37
aI38
aI39
as.