(dp0
S'cued'
p1
(lp2
S'grayscale_a803053.jpg'
p3
aS'grayscale_bost105.jpg'
p4
aS'grayscale_art1316.jpg'
p5
aS'grayscale_art945.jpg'
p6
aS'grayscale_art1617.jpg'
p7
aS'grayscale_art799.jpg'
p8
aS'gray10_crop_grayscale_CFD-AM-244-222-N.jpg'
p9
aS'grayscale_boston68.jpg'
p10
aS'grayscale_art1015.jpg'
p11
aS'grayscale_a487062.jpg'
p12
aS'gray10_crop_grayscale_CFD-AF-234-208-N.jpg'
p13
aS'grayscale_sky21.jpg'
p14
aS'grayscale_bost76.jpg'
p15
aS'gray20_crop_grayscale_CFD-WM-218-074-N.jpg'
p16
aS'grayscale_urban1152.jpg'
p17
aS'gray10_crop_grayscale_CFD-AM-216-114-N.jpg'
p18
aS'grayscale_art775.jpg'
p19
aS'grayscale_par151.jpg'
p20
aS'grayscale_city8.jpg'
p21
aS'grayscale_street50.jpg'
p22
asS'cued_RT'
p23
(lp24
F0.3066549301147461
aF0.35366296768188477
aF0.35808491706848145
aF0.350614070892334
aF0.3227269649505615
aF0.29230308532714844
aF0.3356590270996094
asS'cue_Right'
p25
(lp26
I0
aI0
aI1
aI0
aI1
aI0
aI1
aI0
aI0
aI1
aI1
aI0
aI0
aI1
aI0
aI1
aI0
aI0
aI1
aI0
asS'run_time'
p27
F64.0218870639801
sS'uncued'
p28
(lp29
S'gray20_crop_grayscale_CFD-BF-014-002-N.jpg'
p30
aS'gray15_crop_grayscale_CFD-AM-213-056-N.jpg'
p31
aS'gray15_crop_grayscale_CFD-AM-246-184-N.jpg'
p32
aS'gray20_crop_grayscale_CFD-BF-003-003-N.jpg'
p33
aS'gray15_crop_grayscale_CFD-AM-215-120-N.jpg'
p34
aS'gray15_crop_grayscale_CFD-AM-209-048-N.jpg'
p35
aS'grayscale_p1010521.jpg'
p36
aS'gray10_crop_grayscale_CFD-AM-229-224-N.jpg'
p37
aS'gray10_crop_grayscale_CFD-AF-256-160-N.jpg'
p38
aS'gray15_crop_grayscale_CFD-AF-220-107-N.jpg'
p39
aS'grayscale_art256.jpg'
p40
aS'gray15_crop_grayscale_CFD-AF-209-006-N.jpg'
p41
aS'gray10_crop_grayscale_CFD-AF-213-126-N.jpg'
p42
aS'grayscale_exp19.jpg'
p43
aS'gray20_crop_grayscale_CFD-AM-212-050-N.jpg'
p44
aS'grayscale_art1686.jpg'
p45
aS'gray10_crop_grayscale_CFD-AF-239-171-N.jpg'
p46
aS'gray10_crop_grayscale_CFD-AM-248-104-N.jpg'
p47
aS'gray15_crop_grayscale_CFD-AF-202-122-N.jpg'
p48
aS'gray10_crop_grayscale_CFD-AF-214-139-N.jpg'
p49
asS'total_iters'
p50
I20
sS'uncued_RT'
p51
(lp52
F2.7757070064544678
aF0.3947298526763916
aF0.34658312797546387
aF0.4074440002441406
aF0.3368380069732666
aF0.3448619842529297
aF0.3516819477081299
aF0.3574090003967285
aF0.3474719524383545
aF0.36342906951904297
aF0.33435702323913574
aF0.32725977897644043
aF0.374330997467041
as.