(dp0
S'cued'
p1
(lp2
S'gray10_crop_grayscale_CFD-AM-219-101-N.jpg'
p3
aS'grayscale_city4.jpg'
p4
aS'grayscale_art1717.jpg'
p5
aS'grayscale_urban157.jpg'
p6
aS'grayscale_art1041.jpg'
p7
aS'grayscale_city60.jpg'
p8
aS'gray20_crop_grayscale_CFD-WM-204-031-N.jpg'
p9
aS'gray10_crop_grayscale_CFD-AF-236-145-N.jpg'
p10
aS'grayscale_archi337.jpg'
p11
aS'grayscale_a805043.jpg'
p12
aS'gray10_crop_grayscale_CFD-AF-241-141-N.jpg'
p13
aS'gray20_crop_grayscale_CFD-AM-223-138-N.jpg'
p14
aS'grayscale_boston61.jpg'
p15
aS'grayscale_p1010516.jpg'
p16
aS'gray10_crop_grayscale_CFD-AM-252-114-N.jpg'
p17
aS'gray15_crop_grayscale_CFD-AM-206-086-N.jpg'
p18
aS'grayscale_hexp23.jpg'
p19
aS'gray10_crop_grayscale_CFD-AM-238-269-N.jpg'
p20
aS'grayscale_p9120498.jpg'
p21
aS'grayscale_art1748.jpg'
p22
asS'cued_RT'
p23
(lp24
F0.3810858726501465
aF0.304872989654541
aF0.31371498107910156
aF0.36883115768432617
aF0.40259599685668945
aF0.27772092819213867
aF0.2895519733428955
asS'cue_Right'
p25
(lp26
I1
aI0
aI1
aI0
aI0
aI0
aI1
aI1
aI0
aI1
aI1
aI1
aI0
aI1
aI1
aI1
aI0
aI1
aI0
aI0
asS'run_time'
p27
F61.33009910583496
sS'uncued'
p28
(lp29
S'grayscale_a279033.jpg'
p30
aS'gray10_crop_grayscale_CFD-AF-219-106-N.jpg'
p31
aS'gray10_crop_grayscale_CFD-AF-245-143-N.jpg'
p32
aS'gray20_crop_grayscale_CFD-AM-226-234-N.jpg'
p33
aS'gray15_crop_grayscale_CFD-AF-223-183-N.jpg'
p34
aS'gray20_crop_grayscale_CFD-BF-006-017-N.jpg'
p35
aS'grayscale_sky21.jpg'
p36
aS'grayscale_urb893.jpg'
p37
aS'gray20_crop_grayscale_CFD-AF-250-200-N.jpg'
p38
aS'gray15_crop_grayscale_CFD-AM-225-102-N.jpg'
p39
aS'grayscale_p9120503.jpg'
p40
aS'grayscale_art1751.jpg'
p41
aS'gray20_crop_grayscale_CFD-WM-215-041-N.jpg'
p42
aS'gray10_crop_grayscale_CFD-AM-242-176-N.jpg'
p43
aS'grayscale_urb907.jpg'
p44
aS'grayscale_a806037.jpg'
p45
aS'gray20_crop_grayscale_CFD-AF-248-148-N.jpg'
p46
aS'grayscale_p1010266.jpg'
p47
aS'gray15_crop_grayscale_CFD-AF-208-003-N.jpg'
p48
aS'gray20_crop_grayscale_CFD-AF-251-093-N.jpg'
p49
asS'total_iters'
p50
I20
sS'uncued_RT'
p51
(lp52
F0.3427717685699463
aF0.2857398986816406
aF0.3864879608154297
aF0.38758206367492676
aF0.285336971282959
aF0.35954713821411133
aF0.2766139507293701
aF0.31964993476867676
aF0.3308451175689697
aF0.36675000190734863
aF0.3705480098724365
aF0.361447811126709
aF0.3823108673095703
as.