(dp0
S'images'
p1
(lp2
S'gray15_crop_grayscale_CFD-AF-226-251-N.jpg'
p3
aS'grayscale_art1732.jpg'
p4
aS'gray10_crop_grayscale_CFD-AF-215-70-N.jpg'
p5
aS'gray10_crop_grayscale_CFD-AF-228-173-N.jpg'
p6
aS'grayscale_p1010589.jpg'
p7
aS'gray20_crop_grayscale_CFD-AF-249-092-N.jpg'
p8
aS'gray20_crop_grayscale_CFD-WM-225-127-N.jpg'
p9
aS'grayscale_p1010186.jpg'
p10
aS'grayscale_hexp12.jpg'
p11
aS'grayscale_urban158.jpg'
p12
aS'grayscale_par123.jpg'
p13
aS'grayscale_urban73.jpg'
p14
aS'gray15_crop_grayscale_CFD-AF-252-135-N.jpg'
p15
aS'grayscale_city5.jpg'
p16
aS'gray10_crop_grayscale_CFD-AF-206-079-N.jpg'
p17
aS'grayscale_par85.jpg'
p18
aS'gray15_crop_grayscale_CFD-AM-237-154-N.jpg'
p19
aS'grayscale_p1010073.jpg'
p20
aS'grayscale_sky3.jpg'
p21
aS'grayscale_p9110486.jpg'
p22
aS'grayscale_p1010323.jpg'
p23
aS'grayscale_par118.jpg'
p24
aS'grayscale_boston255.jpg'
p25
aS'grayscale_par162.jpg'
p26
aS'grayscale_gre116.jpg'
p27
aS'grayscale_art1199.jpg'
p28
aS'grayscale_urb911.jpg'
p29
aS'grayscale_boston270.jpg'
p30
aS'grayscale_a212018.jpg'
p31
aS'grayscale_a538076.jpg'
p32
aS'grayscale_p1010619.jpg'
p33
aS'gray15_crop_grayscale_CFD-AF-221-147-N.jpg'
p34
aS'gray15_crop_grayscale_CFD-AM-208-143-N.jpg'
p35
aS'grayscale_street02.jpg'
p36
aS'gray10_crop_grayscale_CFD-AF-204-067-N.jpg'
p37
aS'grayscale_city10.jpg'
p38
aS'grayscale_par87.jpg'
p39
aS'gray10_crop_grayscale_CFD-AF-217-155-N.jpg'
p40
aS'gray20_crop_grayscale_CFD-WM-244-003-N.jpg'
p41
aS'gray15_crop_grayscale_CFD-AM-234-355-N.jpg'
p42
aS'gray15_crop_grayscale_CFD-AM-227-184-N.jpg'
p43
aS'gray20_crop_grayscale_CFD-WM-206-045-N.jpg'
p44
aS'grayscale_urb159.jpg'
p45
aS'gray15_crop_grayscale_CFD-AF-227-207-N.jpg'
p46
aS'gray10_crop_grayscale_CFD-AM-230-150-N.jpg'
p47
aS'grayscale_art1030.jpg'
p48
aS'grayscale_urban1003.jpg'
p49
aS'grayscale_a487092.jpg'
p50
aS'gray10_crop_grayscale_CFD-AM-241-287-N.jpg'
p51
aS'gray15_crop_grayscale_CFD-AF-238-185-N.jpg'
p52
aS'gray10_crop_grayscale_CFD-AM-205-153-N.jpg'
p53
aS'grayscale_urban649.jpg'
p54
aS'grayscale_urb274.jpg'
p55
aS'grayscale_a438011.jpg'
p56
aS'grayscale_boston373.jpg'
p57
aS'gray10_crop_grayscale_CFD-AF-246-242-N.jpg'
p58
aS'gray15_crop_grayscale_CFD-AM-202-079-N.jpg'
p59
aS'gray10_crop_grayscale_CFD-AF-244-168-N.jpg'
p60
aS'gray10_crop_grayscale_CFD-AM-250-149-N.jpg'
p61
aS'gray10_crop_grayscale_CFD-AM-214-168-N.jpg'
p62
asS'ratings'
p63
(lp64
(lp65
(NF0.0
tp66
a(NF1.009
tp67
aa(lp68
(NF0.0
tp69
a(NF1.016
tp70
aa(lp71
(NF0.0
tp72
aa(lp73
(NF0.0
tp74
aa(lp75
(NF0.0
tp76
aa(lp77
(NF0.0
tp78
a(I2
F0.386
tp79
a(I2
F1.001
tp80
aa(lp81
(NF0.0
tp82
aa(lp83
(NF0.0
tp84
aa(lp85
(NF0.0
tp86
aa(lp87
(NF0.0
tp88
a(I1
F0.285
tp89
a(I1
F1.0
tp90
aa(lp91
(NF0.0
tp92
aa(lp93
(NF0.0
tp94
aa(lp95
(NF0.0
tp96
a(I1
F0.302
tp97
a(I1
F1.017
tp98
aa(lp99
(NF0.0
tp100
a(I2
F0.369
tp101
a(I2
F1.017
tp102
aa(lp103
(NF0.0
tp104
a(I3
F0.002
tp105
a(I3
F1.017
tp106
aa(lp107
(NF0.0
tp108
a(I1
F0.002
tp109
a(I1
F1.017
tp110
aa(lp111
(NF0.0
tp112
a(I3
F0.002
tp113
a(I3
F1.017
tp114
aa(lp115
(NF0.0
tp116
a(I2
F0.002
tp117
a(I2
F1.0
tp118
aa(lp119
(NF0.0
tp120
a(I3
F0.018
tp121
a(I3
F1.017
tp122
aa(lp123
(NF0.0
tp124
aa(lp125
(NF0.0
tp126
a(I2
F0.002
tp127
a(I2
F1.017
tp128
aa(lp129
(NF0.0
tp130
a(I1
F0.002
tp131
a(I1
F1.0
tp132
aa(lp133
(NF0.0
tp134
a(I3
F0.084
tp135
a(I3
F1.016
tp136
aa(lp137
(NF0.0
tp138
a(I2
F0.003
tp139
a(I2
F1.016
tp140
aa(lp141
(NF0.0
tp142
a(I3
F0.002
tp143
a(I3
F1.001
tp144
aa(lp145
(NF0.0
tp146
a(I3
F0.036
tp147
a(I3
F1.001
tp148
aa(lp149
(NF0.0
tp150
a(I1
F0.003
tp151
a(I1
F1.017
tp152
aa(lp153
(NF0.0
tp154
a(I3
F0.003
tp155
a(I3
F1.017
tp156
aa(lp157
(NF0.0
tp158
aa(lp159
(NF0.0
tp160
a(I2
F0.402
tp161
a(I2
F1.017
tp162
aa(lp163
(NF0.0
tp164
a(I3
F0.034
tp165
a(I3
F1.017
tp166
aa(lp167
(NF0.0
tp168
a(I1
F0.002
tp169
a(I1
F1.017
tp170
aa(lp171
(NF0.0
tp172
a(I1
F0.002
tp173
a(I1
F1.016
tp174
aa(lp175
(NF0.0
tp176
a(I4
F0.002
tp177
a(I4
F1.017
tp178
aa(lp179
(NF0.0
tp180
a(I1
F0.368
tp181
a(I1
F1.016
tp182
aa(lp183
(NF0.0
tp184
a(I2
F0.085
tp185
a(I2
F1.017
tp186
aa(lp187
(NF0.0
tp188
a(I3
F0.002
tp189
a(I3
F1.016
tp190
aa(lp191
(NF0.0
tp192
aa(lp193
(NF0.0
tp194
a(I4
F0.019
tp195
a(I4
F1.017
tp196
aa(lp197
(NF0.0
tp198
a(I2
F0.003
tp199
a(I2
F1.0
tp200
aa(lp201
(NF0.0
tp202
a(I3
F0.002
tp203
a(I3
F1.001
tp204
aa(lp205
(NF0.0
tp206
a(I4
F0.002
tp207
a(I4
F1.017
tp208
aa(lp209
(NF0.0
tp210
a(I2
F0.003
tp211
a(I2
F1.015
tp212
aa(lp213
(NF0.0
tp214
a(I4
F0.002
tp215
a(I4
F1.0
tp216
aa(lp217
(NF0.0
tp218
a(I2
F0.002
tp219
a(I2
F1.017
tp220
aa(lp221
(NF0.0
tp222
aa(lp223
(NF0.0
tp224
a(I4
F0.002
tp225
a(I4
F1.0
tp226
aa(lp227
(NF0.0
tp228
a(I3
F0.051
tp229
a(I3
F1.016
tp230
aa(lp231
(NF0.0
tp232
a(I2
F0.002
tp233
a(I2
F1.017
tp234
aa(lp235
(NF0.0
tp236
a(I3
F0.019
tp237
a(I3
F1.0
tp238
aa(lp239
(NF0.0
tp240
a(I2
F0.003
tp241
a(I2
F1.016
tp242
aa(lp243
(NF0.0
tp244
a(I3
F0.002
tp245
a(I3
F1.016
tp246
aa(lp247
(NF0.0
tp248
a(I3
F0.002
tp249
a(I3
F1.001
tp250
aa(lp251
(NF0.0
tp252
a(I3
F0.002
tp253
a(I3
F1.001
tp254
aa(lp255
(NF0.0
tp256
a(I2
F0.002
tp257
a(I2
F1.017
tp258
aa(lp259
(NF0.0
tp260
a(I1
F0.002
tp261
a(I1
F1.016
tp262
aa(lp263
(NF0.0
tp264
a(I4
F0.003
tp265
a(I4
F1.015
tp266
aa(lp267
(NF0.0
tp268
a(I3
F0.002
tp269
a(I3
F1.017
tp270
aa(lp271
(NF0.0
tp272
a(I2
F0.002
tp273
a(I2
F1.0
tp274
aa(lp275
(NF0.0
tp276
a(I4
F0.002
tp277
a(I4
F1.016
tp278
aasS'run_time'
p279
F180.90661001205444
sS'total_iters'
p280
(lp281
I0
aI1
aI2
aI3
aI4
aI5
aI6
aI7
aI8
aI9
aI10
aI11
aI12
aI13
aI14
aI15
aI16
aI17
aI18
aI19
aI20
aI21
aI22
aI23
aI24
aI25
aI26
aI27
aI28
aI29
aI30
aI31
aI32
aI33
aI34
aI35
aI36
aI37
aI38
aI39
aI40
aI41
aI42
aI43
aI44
aI45
aI46
aI47
aI48
aI49
aI50
aI51
aI52
aI53
aI54
aI55
aI56
aI57
aI58
aI59
as.