(dp0
S'images'
p1
(lp2
S'grayscale_art945.jpg'
p3
aS'gray25_crop_grayscale_CFD-BF-004-014-N.jpg'
p4
aS'grayscale_art256.jpg'
p5
aS'gray20_crop_grayscale_CFD-BF-003-003-N.jpg'
p6
aS'gray15_crop_grayscale_CFD-AF-209-006-N.jpg'
p7
aS'grayscale_bost76.jpg'
p8
aS'grayscale_city7.jpg'
p9
aS'grayscale_art1754.jpg'
p10
aS'grayscale_urban1152.jpg'
p11
aS'gray20_crop_grayscale_CFD-BF-014-002-N.jpg'
p12
aS'grayscale_p1010521.jpg'
p13
aS'grayscale_city65.jpg'
p14
aS'gray15_crop_grayscale_CFD-AM-209-048-N.jpg'
p15
aS'grayscale_a588087.jpg'
p16
aS'gray15_crop_grayscale_CFD-AM-215-120-N.jpg'
p17
aS'gray10_crop_grayscale_CFD-AM-244-222-N.jpg'
p18
aS'grayscale_a462057.jpg'
p19
aS'gray10_crop_grayscale_CFD-AM-248-104-N.jpg'
p20
aS'grayscale_par33.jpg'
p21
aS'grayscale_art1316.jpg'
p22
aS'gray10_crop_grayscale_CFD-AF-213-126-N.jpg'
p23
aS'grayscale_art1015.jpg'
p24
aS'grayscale_street50.jpg'
p25
aS'grayscale_par94.jpg'
p26
aS'gray15_crop_grayscale_CFD-AF-200-228-N.jpg'
p27
aS'gray20_crop_grayscale_CFD-WM-218-074-N.jpg'
p28
aS'grayscale_street01.jpg'
p29
aS'grayscale_exp19.jpg'
p30
aS'gray20_crop_grayscale_CFD-AM-212-050-N.jpg'
p31
aS'gray10_crop_grayscale_CFD-AF-230-193-N.jpg'
p32
aS'grayscale_a812069.jpg'
p33
aS'gray10_crop_grayscale_CFD-AM-216-114-N.jpg'
p34
aS'gray15_crop_grayscale_CFD-AM-246-184-N.jpg'
p35
aS'grayscale_art869.jpg'
p36
aS'gray10_crop_grayscale_CFD-AF-239-171-N.jpg'
p37
aS'grayscale_art1617.jpg'
p38
aS'gray10_crop_grayscale_CFD-AM-229-224-N.jpg'
p39
aS'grayscale_city8.jpg'
p40
aS'grayscale_art799.jpg'
p41
aS'gray10_crop_grayscale_CFD-AF-256-160-N.jpg'
p42
aS'gray15_crop_grayscale_CFD-AF-202-122-N.jpg'
p43
aS'grayscale_boston68.jpg'
p44
aS'grayscale_sky21.jpg'
p45
aS'gray10_crop_grayscale_CFD-AF-201-060-N.jpg'
p46
aS'grayscale_art1686.jpg'
p47
aS'grayscale_bost105.jpg'
p48
aS'grayscale_art775.jpg'
p49
aS'gray10_crop_grayscale_CFD-AF-214-139-N.jpg'
p50
aS'gray15_crop_grayscale_CFD-AM-213-056-N.jpg'
p51
aS'gray15_crop_grayscale_CFD-AF-220-107-N.jpg'
p52
aS'grayscale_boston18.jpg'
p53
aS'grayscale_boston19.jpg'
p54
aS'grayscale_par151.jpg'
p55
aS'gray10_crop_grayscale_CFD-AF-234-208-N.jpg'
p56
aS'grayscale_gre115.jpg'
p57
aS'grayscale_a487062.jpg'
p58
aS'grayscale_a803053.jpg'
p59
aS'grayscale_urb866.jpg'
p60
aS'gray20_crop_grayscale_CFD-AF-242-158-N.jpg'
p61
aS'grayscale_urb906.jpg'
p62
asS'ratings'
p63
(lp64
(lp65
(NF0.0
tp66
a(I2
F0.184
tp67
a(I2
F1.016
tp68
aa(lp69
(NF0.0
tp70
a(I3
F0.202
tp71
a(I3
F1.016
tp72
aa(lp73
(NF0.0
tp74
a(I3
F0.002
tp75
a(I3
F1.016
tp76
aa(lp77
(NF0.0
tp78
a(I2
F0.134
tp79
a(I2
F1.017
tp80
aa(lp81
(NF0.0
tp82
a(I3
F0.052
tp83
a(I3
F1.017
tp84
aa(lp85
(NF0.0
tp86
a(I3
F0.003
tp87
a(I3
F1.017
tp88
aa(lp89
(NF0.0
tp90
a(I2
F0.003
tp91
a(I2
F1.017
tp92
aa(lp93
(NF0.0
tp94
a(I2
F0.003
tp95
a(I2
F1.016
tp96
aa(lp97
(NF0.0
tp98
a(I4
F0.003
tp99
a(I4
F1.0
tp100
aa(lp101
(NF0.0
tp102
a(I2
F0.003
tp103
a(I2
F1.0
tp104
aa(lp105
(NF0.0
tp106
a(I4
F0.003
tp107
a(I4
F1.016
tp108
aa(lp109
(NF0.0
tp110
a(I4
F0.003
tp111
a(I4
F1.017
tp112
aa(lp113
(NF0.0
tp114
a(I1
F0.202
tp115
a(I1
F1.016
tp116
aa(lp117
(NF0.0
tp118
a(I3
F0.335
tp119
a(I3
F1.016
tp120
aa(lp121
(NF0.0
tp122
aa(lp123
(NF0.0
tp124
a(I3
F0.003
tp125
a(I3
F1.001
tp126
aa(lp127
(NF0.0
tp128
a(I2
F0.068
tp129
a(I2
F1.016
tp130
aa(lp131
(NF0.0
tp132
a(I2
F0.102
tp133
a(I2
F1.017
tp134
aa(lp135
(NF0.0
tp136
a(I3
F0.003
tp137
a(I3
F1.017
tp138
aa(lp139
(NF0.0
tp140
a(I2
F0.003
tp141
a(I3
F0.222
tp142
a(I3
F1.017
tp143
aa(lp144
(NF0.0
tp145
a(I3
F0.003
tp146
a(I3
F1.0
tp147
aa(lp148
(NF0.0
tp149
a(I3
F0.003
tp150
a(I3
F1.001
tp151
aa(lp152
(NF0.0
tp153
a(I4
F0.003
tp154
a(I4
F1.001
tp155
aa(lp156
(NF0.0
tp157
a(I3
F0.003
tp158
a(I3
F1.017
tp159
aa(lp160
(NF0.0
tp161
a(I3
F0.184
tp162
a(I3
F1.0
tp163
aa(lp164
(NF0.0
tp165
a(I3
F0.003
tp166
a(I3
F1.015
tp167
aa(lp168
(NF0.0
tp169
a(I3
F0.003
tp170
a(I3
F1.015
tp171
aa(lp172
(NF0.0
tp173
a(I2
F0.003
tp174
a(I2
F1.016
tp175
aa(lp176
(NF0.0
tp177
a(I2
F0.003
tp178
a(I2
F1.016
tp179
aa(lp180
(NF0.0
tp181
a(I2
F0.351
tp182
a(I2
F1.016
tp183
aa(lp184
(NF0.0
tp185
a(I3
F0.003
tp186
a(I3
F1.017
tp187
aa(lp188
(NF0.0
tp189
a(I2
F0.003
tp190
a(I2
F1.016
tp191
aa(lp192
(NF0.0
tp193
a(I3
F0.003
tp194
a(I3
F1.016
tp195
aa(lp196
(NF0.0
tp197
a(I3
F0.003
tp198
a(I3
F1.017
tp199
aa(lp200
(NF0.0
tp201
a(I3
F0.003
tp202
a(I3
F1.017
tp203
aa(lp204
(NF0.0
tp205
a(I3
F0.003
tp206
a(I3
F1.016
tp207
aa(lp208
(NF0.0
tp209
a(I3
F0.003
tp210
a(I3
F1.015
tp211
aa(lp212
(NF0.0
tp213
a(I3
F0.003
tp214
a(I3
F1.0
tp215
aa(lp216
(NF0.0
tp217
a(I3
F0.003
tp218
a(I3
F1.017
tp219
aa(lp220
(NF0.0
tp221
a(I2
F0.003
tp222
a(I2
F1.017
tp223
aa(lp224
(NF0.0
tp225
a(I3
F0.017
tp226
a(I3
F1.016
tp227
aa(lp228
(NF0.0
tp229
aa(lp230
(NF0.0
tp231
a(I2
F0.003
tp232
a(I2
F1.0
tp233
aa(lp234
(NF0.0
tp235
a(I2
F0.003
tp236
a(I2
F1.017
tp237
aa(lp238
(NF0.0
tp239
a(I3
F0.003
tp240
a(I3
F1.017
tp241
aa(lp242
(NF0.0
tp243
a(I2
F0.003
tp244
a(I2
F1.016
tp245
aa(lp246
(NF0.0
tp247
a(I3
F0.003
tp248
a(I3
F1.017
tp249
aa(lp250
(NF0.0
tp251
a(I4
F0.369
tp252
a(I4
F1.001
tp253
aa(lp254
(NF0.0
tp255
aa(lp256
(NF0.0
tp257
a(I3
F0.003
tp258
a(I3
F1.016
tp259
aa(lp260
(NF0.0
tp261
a(I4
F0.003
tp262
a(I4
F1.016
tp263
aa(lp264
(NF0.0
tp265
a(I2
F0.003
tp266
a(I3
F0.374
tp267
aa(lp268
(NF0.0
tp269
aa(lp270
(NF0.0
tp271
a(I3
F0.302
tp272
a(I3
F1.016
tp273
aa(lp274
(NF0.0
tp275
a(I3
F0.003
tp276
a(I3
F1.016
tp277
aa(lp278
(NF0.0
tp279
a(I4
F0.185
tp280
a(I4
F1.016
tp281
aa(lp282
(NF0.0
tp283
a(I3
F0.003
tp284
a(I3
F1.016
tp285
aa(lp286
(NF0.0
tp287
a(I3
F0.003
tp288
a(I3
F1.0
tp289
aa(lp290
(NF0.0
tp291
aa(lp292
(NF0.0
tp293
a(I2
F0.003
tp294
a(I2
F1.017
tp295
aasS'run_time'
p296
F183.38179397583008
sS'total_iters'
p297
(lp298
I0
aI1
aI2
aI3
aI4
aI5
aI6
aI7
aI8
aI9
aI10
aI11
aI12
aI13
aI14
aI15
aI16
aI17
aI18
aI19
aI20
aI21
aI22
aI23
aI24
aI25
aI26
aI27
aI28
aI29
aI30
aI31
aI32
aI33
aI34
aI35
aI36
aI37
aI38
aI39
aI40
aI41
aI42
aI43
aI44
aI45
aI46
aI47
aI48
aI49
aI50
aI51
aI52
aI53
aI54
aI55
aI56
aI57
aI58
aI59
as.