(dp0
S'images'
p1
(lp2
S'gray20_crop_grayscale_CFD-AM-223-138-N.jpg'
p3
aS'grayscale_a804068.jpg'
p4
aS'gray10_crop_grayscale_CFD-AM-217-085-N.jpg'
p5
aS'grayscale_hexp23.jpg'
p6
aS'grayscale_p1010536.jpg'
p7
aS'grayscale_archi337.jpg'
p8
aS'gray10_crop_grayscale_CFD-AF-241-141-N.jpg'
p9
aS'grayscale_p9120498.jpg'
p10
aS'grayscale_art760.jpg'
p11
aS'gray10_crop_grayscale_CFD-AM-252-114-N.jpg'
p12
aS'grayscale_city60.jpg'
p13
aS'grayscale_urb907.jpg'
p14
aS'grayscale_art1041.jpg'
p15
aS'gray15_crop_grayscale_CFD-AM-206-086-N.jpg'
p16
aS'gray10_crop_grayscale_CFD-AM-219-101-N.jpg'
p17
aS'grayscale_p1010266.jpg'
p18
aS'gray10_crop_grayscale_CFD-AM-238-269-N.jpg'
p19
aS'grayscale_art1748.jpg'
p20
aS'gray20_crop_grayscale_CFD-AF-248-148-N.jpg'
p21
aS'gray20_crop_grayscale_CFD-AM-226-234-N.jpg'
p22
aS'gray20_crop_grayscale_CFD-AM-221-184-N.jpg'
p23
aS'gray15_crop_grayscale_CFD-AF-223-183-N.jpg'
p24
aS'gray20_crop_grayscale_CFD-WM-215-041-N.jpg'
p25
aS'grayscale_p1010516.jpg'
p26
aS'gray10_crop_grayscale_CFD-AF-245-143-N.jpg'
p27
aS'grayscale_p1010278.jpg'
p28
aS'grayscale_boston61.jpg'
p29
aS'grayscale_a487047.jpg'
p30
aS'gray20_crop_grayscale_CFD-AF-250-200-N.jpg'
p31
aS'gray20_crop_grayscale_CFD-WM-204-031-N.jpg'
p32
aS'gray15_crop_grayscale_CFD-AM-239-147-N.jpg'
p33
aS'grayscale_urb893.jpg'
p34
aS'grayscale_a805043.jpg'
p35
aS'grayscale_art1717.jpg'
p36
aS'grayscale_urban157.jpg'
p37
aS'grayscale_par9.jpg'
p38
aS'gray15_crop_grayscale_CFD-AF-208-003-N.jpg'
p39
aS'gray10_crop_grayscale_CFD-AM-242-176-N.jpg'
p40
aS'grayscale_p1010183.jpg'
p41
aS'grayscale_a806037.jpg'
p42
aS'grayscale_city4.jpg'
p43
aS'grayscale_urb506.jpg'
p44
aS'gray15_crop_grayscale_CFD-AM-225-102-N.jpg'
p45
aS'gray20_crop_grayscale_CFD-AM-211-052-N.jpg'
p46
aS'gray10_crop_grayscale_CFD-AF-236-145-N.jpg'
p47
aS'gray20_crop_grayscale_CFD-BF-006-017-N.jpg'
p48
aS'gray20_crop_grayscale_CFD-WM-201-063-N.jpg'
p49
aS'gray10_crop_grayscale_CFD-AF-219-106-N.jpg'
p50
aS'grayscale_art1192.jpg'
p51
aS'gray20_crop_grayscale_CFD-AF-251-093-N.jpg'
p52
aS'grayscale_a279033.jpg'
p53
aS'grayscale_art861.jpg'
p54
aS'grayscale_art1751.jpg'
p55
aS'grayscale_urban989.jpg'
p56
aS'grayscale_a806011.jpg'
p57
aS'grayscale_p9120503.jpg'
p58
aS'grayscale_a462093.jpg'
p59
aS'gray15_crop_grayscale_CFD-AM-243-212-N.jpg'
p60
aS'gray20_crop_grayscale_CFD-WM-203-023-N.jpg'
p61
aS'gray15_crop_grayscale_CFD-BF-012-001-N.jpg'
p62
asS'ratings'
p63
(lp64
(lp65
(NF0.0
tp66
aa(lp67
(NF0.0
tp68
a(I3
F0.002
tp69
a(I3
F1.017
tp70
aa(lp71
(NF0.0
tp72
a(I3
F0.118
tp73
a(I3
F1.017
tp74
aa(lp75
(NF0.0
tp76
a(I3
F0.034
tp77
a(I3
F1.015
tp78
aa(lp79
(NF0.0
tp80
a(I3
F0.002
tp81
a(I3
F1.016
tp82
aa(lp83
(NF0.0
tp84
a(I3
F0.269
tp85
a(I3
F1.0
tp86
aa(lp87
(NF0.0
tp88
a(I2
F0.003
tp89
a(I2
F1.016
tp90
aa(lp91
(NF0.0
tp92
aa(lp93
(NF0.0
tp94
a(I2
F0.003
tp95
a(I2
F1.016
tp96
aa(lp97
(NF0.0
tp98
a(I2
F0.003
tp99
a(I2
F1.017
tp100
aa(lp101
(NF0.0
tp102
a(I1
F0.002
tp103
a(I1
F1.001
tp104
aa(lp105
(NF0.0
tp106
a(I1
F0.003
tp107
a(I1
F1.016
tp108
aa(lp109
(NF0.0
tp110
a(I4
F0.002
tp111
a(I4
F1.016
tp112
aa(lp113
(NF0.0
tp114
a(I2
F0.218
tp115
a(I2
F1.016
tp116
aa(lp117
(NF0.0
tp118
aa(lp119
(NF0.0
tp120
a(I4
F0.002
tp121
a(I4
F1.001
tp122
aa(lp123
(NF0.0
tp124
a(I2
F0.002
tp125
a(I2
F1.017
tp126
aa(lp127
(NF0.0
tp128
a(I3
F0.002
tp129
a(I3
F1.016
tp130
aa(lp131
(NF0.0
tp132
a(I2
F0.002
tp133
a(I2
F1.017
tp134
aa(lp135
(NF0.0
tp136
a(I4
F0.002
tp137
a(I4
F1.016
tp138
aa(lp139
(NF0.0
tp140
a(I2
F0.003
tp141
a(I2
F1.0
tp142
aa(lp143
(NF0.0
tp144
a(I3
F0.003
tp145
a(I3
F1.016
tp146
aa(lp147
(NF0.0
tp148
a(I3
F0.002
tp149
a(I3
F1.016
tp150
aa(lp151
(NF0.0
tp152
a(I3
F0.002
tp153
a(I3
F1.0
tp154
aa(lp155
(NF0.0
tp156
a(I1
F0.003
tp157
a(I1
F1.015
tp158
aa(lp159
(NF0.0
tp160
a(I4
F0.003
tp161
a(I4
F1.015
tp162
aa(lp163
(NF0.0
tp164
a(I2
F0.003
tp165
a(I2
F1.0
tp166
aa(lp167
(NF0.0
tp168
aa(lp169
(NF0.0
tp170
a(I2
F0.003
tp171
a(I2
F1.0
tp172
aa(lp173
(NF0.0
tp174
aa(lp175
(NF0.0
tp176
a(I2
F0.003
tp177
a(I2
F1.017
tp178
aa(lp179
(NF0.0
tp180
a(I2
F0.003
tp181
a(I2
F1.016
tp182
aa(lp183
(NF0.0
tp184
a(I2
F0.003
tp185
a(I2
F1.016
tp186
aa(lp187
(NF0.0
tp188
a(I2
F0.15
tp189
a(I2
F1.015
tp190
aa(lp191
(NF0.0
tp192
a(I4
F0.003
tp193
a(I4
F1.016
tp194
aa(lp195
(NF0.0
tp196
a(I4
F0.003
tp197
a(I4
F1.016
tp198
aa(lp199
(NF0.0
tp200
a(I2
F0.118
tp201
a(I2
F1.016
tp202
aa(lp203
(NF0.0
tp204
aa(lp205
(NF0.0
tp206
a(I3
F0.185
tp207
a(I3
F1.017
tp208
aa(lp209
(NF0.0
tp210
aa(lp211
(NF0.0
tp212
a(I4
F0.003
tp213
a(I4
F1.017
tp214
aa(lp215
(NF0.0
tp216
a(I3
F0.003
tp217
a(I3
F1.016
tp218
aa(lp219
(NF0.0
tp220
a(I2
F0.003
tp221
a(I2
F1.016
tp222
aa(lp223
(NF0.0
tp224
a(I3
F0.018
tp225
a(I3
F1.017
tp226
aa(lp227
(NF0.0
tp228
a(I2
F0.003
tp229
a(I2
F1.0
tp230
aa(lp231
(NF0.0
tp232
a(I3
F0.003
tp233
a(I3
F1.017
tp234
aa(lp235
(NF0.0
tp236
a(I4
F0.003
tp237
a(I4
F1.016
tp238
aa(lp239
(NF0.0
tp240
a(I4
F0.003
tp241
a(I4
F1.015
tp242
aa(lp243
(NF0.0
tp244
a(I3
F0.003
tp245
a(I3
F1.016
tp246
aa(lp247
(NF0.0
tp248
a(I3
F0.003
tp249
a(I2
F0.106
tp250
a(I2
F1.001
tp251
aa(lp252
(NF0.0
tp253
a(I2
F0.003
tp254
a(I2
F1.016
tp255
aa(lp256
(NF0.0
tp257
a(I2
F0.185
tp258
a(I2
F1.017
tp259
aa(lp260
(NF0.0
tp261
a(I3
F0.134
tp262
a(I3
F1.016
tp263
aa(lp264
(NF0.0
tp265
a(I2
F0.003
tp266
a(I2
F1.016
tp267
aa(lp268
(NF0.0
tp269
aa(lp270
(NF0.0
tp271
a(I4
F0.004
tp272
a(I4
F1.016
tp273
aa(lp274
(NF0.0
tp275
a(I3
F0.003
tp276
a(I3
F1.016
tp277
aa(lp278
(NF0.0
tp279
a(I2
F0.003
tp280
a(I2
F1.016
tp281
aa(lp282
(NF0.0
tp283
a(I1
F0.003
tp284
a(I1
F1.0
tp285
aa(lp286
(NF0.0
tp287
a(I3
F0.119
tp288
a(I3
F1.016
tp289
aasS'run_time'
p290
F182.602844953537
sS'total_iters'
p291
(lp292
I0
aI1
aI2
aI3
aI4
aI5
aI6
aI7
aI8
aI9
aI10
aI11
aI12
aI13
aI14
aI15
aI16
aI17
aI18
aI19
aI20
aI21
aI22
aI23
aI24
aI25
aI26
aI27
aI28
aI29
aI30
aI31
aI32
aI33
aI34
aI35
aI36
aI37
aI38
aI39
aI40
aI41
aI42
aI43
aI44
aI45
aI46
aI47
aI48
aI49
aI50
aI51
aI52
aI53
aI54
aI55
aI56
aI57
aI58
aI59
as.