(dp0
S'cued'
p1
(lp2
S'gray15_crop_grayscale_CFD-AF-252-135-N.jpg'
p3
aS'grayscale_city10.jpg'
p4
aS'grayscale_p1010589.jpg'
p5
aS'grayscale_street02.jpg'
p6
aS'grayscale_boston255.jpg'
p7
aS'grayscale_gre116.jpg'
p8
aS'grayscale_urb911.jpg'
p9
aS'grayscale_urb159.jpg'
p10
aS'grayscale_p9110486.jpg'
p11
aS'grayscale_art1732.jpg'
p12
aS'grayscale_p1010073.jpg'
p13
aS'grayscale_a212018.jpg'
p14
aS'grayscale_sky3.jpg'
p15
aS'gray10_crop_grayscale_CFD-AF-228-173-N.jpg'
p16
aS'grayscale_a538076.jpg'
p17
aS'grayscale_p1010619.jpg'
p18
aS'grayscale_par123.jpg'
p19
aS'grayscale_par85.jpg'
p20
aS'grayscale_par118.jpg'
p21
aS'gray20_crop_grayscale_CFD-AF-249-092-N.jpg'
p22
asS'cued_RT'
p23
(lp24
F0.43177103996276855
aF0.054728031158447266
aF0.48912906646728516
aF0.32581305503845215
aF0.4079411029815674
aF0.41164708137512207
asS'cue_Right'
p25
(lp26
I1
aI1
aI0
aI0
aI0
aI0
aI1
aI0
aI0
aI0
aI0
aI1
aI0
aI1
aI1
aI0
aI0
aI1
aI1
aI1
asS'run_time'
p27
F62.30693197250366
sS'uncued'
p28
(lp29
S'grayscale_par87.jpg'
p30
aS'gray15_crop_grayscale_CFD-AF-238-185-N.jpg'
p31
aS'gray20_crop_grayscale_CFD-WM-244-003-N.jpg'
p32
aS'gray10_crop_grayscale_CFD-AF-206-079-N.jpg'
p33
aS'gray10_crop_grayscale_CFD-AF-215-70-N.jpg'
p34
aS'gray10_crop_grayscale_CFD-AF-217-155-N.jpg'
p35
aS'gray10_crop_grayscale_CFD-AM-214-168-N.jpg'
p36
aS'gray15_crop_grayscale_CFD-AM-234-355-N.jpg'
p37
aS'gray15_crop_grayscale_CFD-AM-237-154-N.jpg'
p38
aS'gray10_crop_grayscale_CFD-AM-247-165-N.jpg'
p39
aS'gray15_crop_grayscale_CFD-AF-226-251-N.jpg'
p40
aS'gray15_crop_grayscale_CFD-AM-208-143-N.jpg'
p41
aS'gray15_crop_grayscale_CFD-AF-208-003-N.jpg'
p42
aS'grayscale_art1199.jpg'
p43
aS'gray10_crop_grayscale_CFD-AF-204-067-N.jpg'
p44
aS'gray15_crop_grayscale_CFD-AF-227-207-N.jpg'
p45
aS'gray20_crop_grayscale_CFD-WM-206-045-N.jpg'
p46
aS'gray10_crop_grayscale_CFD-AF-230-193-N.jpg'
p47
aS'gray15_crop_grayscale_CFD-AM-202-079-N.jpg'
p48
aS'grayscale_urban1003.jpg'
p49
asS'total_iters'
p50
I20
sS'uncued_RT'
p51
(lp52
F0.29627203941345215
aF0.501478910446167
aF0.5079169273376465
aF0.42089104652404785
aF0.4024500846862793
aF0.011621952056884766
aF0.44161295890808105
aF0.3455929756164551
aF0.33800816535949707
aF0.29958105087280273
aF0.3165409564971924
aF0.946876049041748
aF0.2756690979003906
aF0.33428001403808594
as.