(lp0
S'Neutral'
p1
aS'A little tired'
p2
accopy_reg
_reconstructor
p3
(cfuture.types.newstr
newstr
p4
c__builtin__
unicode
p5
VThe scenery was easier to remember because those images were more diverse, whereas all faces have the same traits, and some people look very similar to one another. 
p6
tp7
Rp8
ag3
(g4
g5
VI found the scenery easier to attend to because often there would be cleaner, sharper lines in the images (e.g. the separation between grass and sky).
p9
tp10
Rp11
ag3
(g4
g5
VI tried to remember a few images carefully in each round, but in general, I didn't use a strategy and tried to go with my gut feeling.
p12
tp13
Rp14
a.