(dp0
S'cued_RT'
p1
(lp2
sS'cued'
p3
(lp4
S'291_117.jpg'
p5
aS'331_153.jpg'
p6
aS'186_103.jpg'
p7
aS'282_109.jpg'
p8
aS'223_137.jpg'
p9
aS'294_12.jpg'
p10
aS'332_154.jpg'
p11
aS'216_130.jpg'
p12
aS'245_35.jpg'
p13
aS'285_111.jpg'
p14
asS'run_time'
p15
F49.18157696723938
sS'cue_tuples'
p16
(lp17
(S'cue_L'
p18
S'F'
p19
I0
tp20
a(g18
g19
I1
tp21
a(g18
g19
I0
tp22
a(g18
g19
I0
tp23
a(g18
g19
I0
tp24
a(g18
g19
I0
tp25
a(g18
g19
I1
tp26
a(g18
g19
I0
tp27
a(g18
g19
I0
tp28
a(g18
g19
I1
tp29
asS'uncued'
p30
(lp31
S'252_41.jpg'
p32
aS'228_2.jpg'
p33
aS'337_159.jpg'
p34
aS'268_56.jpg'
p35
aS'308_132.jpg'
p36
aS'183_100.jpg'
p37
aS'219_133.jpg'
p38
aS'302_127.jpg'
p39
aS'328_150.jpg'
p40
aS'227_19.jpg'
p41
asS'uncued_RT'
p42
(lp43
F0.4450252056121826
aF0.6000828742980957
aF0.41680312156677246
aF0.4658241271972656
aF0.43527889251708984
aF0.4711329936981201
aF0.5507321357727051
aF0.374830961227417
aF0.5178442001342773
aF0.5673849582672119
as.