(lp0
S'A little engaging'
p1
aS'Neutral'
p2
accopy_reg
_reconstructor
p3
(cfuture.types.newstr
newstr
p4
c__builtin__
unicode
p5
Vfaces because of side view of head shape and accessories
p6
tp7
Rp8
ag3
(g4
g5
Vno
p9
tp10
Rp11
ag3
(g4
g5
VI chanted one key word per instructed image in my head and kept cumulating as best as I could
p12
tp13
Rp14
a.