(lp0
S'Very engaging'
p1
aS'Very tired'
p2
accopy_reg
_reconstructor
p3
(cfuture.types.newstr
newstr
p4
c__builtin__
unicode
p5
Vthe scenes because the faces seemed very similar
p6
tp7
Rp8
ag3
(g4
g5
Vthey both seemed difficult to attend to
p9
tp10
Rp11
ag3
(g4
g5
VI tried to attach words to the images
p12
tp13
Rp14
a.