(lp0
S'A little engaging'
p1
aS'A little tired'
p2
accopy_reg
_reconstructor
p3
(cfuture.types.newstr
newstr
p4
c__builtin__
unicode
p5
VI found the faces category easier since your didn't have to remember the orientation of the picture, which was required when remembering the scene.
p6
tp7
Rp8
ag3
(g4
g5
VRight Side
p9
tp10
Rp11
ag3
(g4
g5
VI would attempt to say what I saw in my head. For the scenes, I tried to remember a certain spot on the scene, and not necessarily the scene as a whole.
p12
tp13
Rp14
a.