(dp0
S'cue_tuples'
p1
(lp2
(S'cue_L'
p3
S'L'
p4
I1
tp5
a(g3
g4
I1
tp6
a(g3
g4
I0
tp7
a(g3
g4
I0
tp8
a(g3
g4
I0
tp9
a(g3
g4
I1
tp10
a(g3
g4
I0
tp11
a(g3
g4
I0
tp12
a(g3
g4
I0
tp13
a(g3
g4
I0
tp14
asS'uncued'
p15
(lp16
S'00576941031fa_sunacvjlsylseoghjup.jpg'
p17
aS'00791941205fa_sunagrmyoovzukhxmlo.jpg'
p18
aS'00922960627fa_sunapqkyghktgtosuuk.jpg'
p19
aS'00891960530fa_sunalkiibhqpxfamlll.jpg'
p20
aS'00999960627fa_sunbvbrvgbpanfrawft.jpg'
p21
aS'00972960627fa_sunbbfqwjpdxniyhies.jpg'
p22
aS'00829940307fa_sunahwgbqkqcrwprgvh.jpg'
p23
aS'00144931230fb_sunaathajvxrgptwhoj.jpg'
p24
aS'00895960530fa_sunamczizlzavhzhpay.jpg'
p25
aS'00080931230fb_sunaafjszryxyavjzln.jpg'
p26
asS'cued'
p27
(lp28
S'00133931230fa_sunaanlwnpqndclffxt.jpg'
p29
aS'00123931230fb_sunaalcrrdbjgdztbiz.jpg'
p30
aS'00288940422fa_sunabppokiyglaxpcha.jpg'
p31
aS'00839940307fa_sunaipyohrqlwngaqif.jpg'
p32
aS'00870940307fa_sunajrgtewnualfcerj.jpg'
p33
aS'00162931230fb_sunaavjinpnkappuonm.jpg'
p34
aS'00968960627fa_sunbagfpovqwbuexqdn.jpg'
p35
aS'00745941205fa_sunaeouogqolxvggaoq.jpg'
p36
aS'00805941205fa_sunagwzdbtlixdhgolm.jpg'
p37
aS'00221940128fa_sunabcfpwlpolnutyju.jpg'
p38
asS'uncued_RT'
p39
(lp40
F1.161020040512085
aF0.7091999053955078
aF0.5582680702209473
aF0.4983820915222168
aF0.5921361446380615
aF0.46945714950561523
aF0.5374350547790527
aF0.3890190124511719
aF0.3927021026611328
aF0.32083916664123535
asS'cued_RT'
p41
(lp42
s.