(dp0
S'cue_tuples'
p1
(lp2
(S'cue_R'
p3
S'L'
p4
I0
tp5
a(g3
g4
I0
tp6
a(g3
g4
I0
tp7
a(g3
g4
I0
tp8
a(g3
g4
I0
tp9
a(g3
g4
I0
tp10
a(g3
g4
I0
tp11
a(g3
g4
I0
tp12
a(g3
g4
I0
tp13
a(g3
g4
I0
tp14
asS'uncued'
p15
(lp16
S'00953960627fa_sunatstrpjxhvtbaczf.jpg'
p17
aS'01002960627fb_sunbwaafjdebjzttuvq.jpg'
p18
aS'00675941121fa_sunadoxcchtmsxewsau.jpg'
p19
aS'00483940519fa_sunabyvpwkgsjtijdwj.jpg'
p20
aS'00818940307fa_sunahpblecxtmuzkmxb.jpg'
p21
aS'00636941031fa_sunaddtdkycxbqlpfqa.jpg'
p22
aS'00096931230fa_sunaaiqiqcggrskoqgy.jpg'
p23
aS'00905960530fa_sunanmoqeyprjjjfxjt.jpg'
p24
aS'00194940128fb_sunaayehfdqcyxggsej.jpg'
p25
aS'00112931230fa_sunaakjaacuzulqckgl.jpg'
p26
asS'cued'
p27
(lp28
S'00559940519fa_sunacjkmnpawfzbyvae.jpg'
p29
aS'00854940307fa_sunaiwduelojtwaqeyh.jpg'
p30
aS'00210940128fb_sunabanoxjtqxamkucc.jpg'
p31
aS'00314940422fa_sunabwmcbaxwioksdgw.jpg'
p32
aS'00532960627fa_sunaccdtpgenvcbcbcf.jpg'
p33
aS'00505960627fa_sunabzuqsrgcsonqlkz.jpg'
p34
aS'00925960627fa_sunapqwnqzxlsfvgsjm.jpg'
p35
aS'00086931230fa_sunaafynehyrzpsoaml.jpg'
p36
aS'00063931230fa_sunaaelyvurpntclgau.jpg'
p37
aS'00082931230fa_sunaafvitpexrpvumsa.jpg'
p38
asS'uncued_RT'
p39
(lp40
sS'cued_RT'
p41
(lp42
F0.6995229721069336
aF0.7766749858856201
aF0.3202090263366699
aF0.34782886505126953
aF0.4129600524902344
aF0.38297510147094727
aF0.3698909282684326
aF0.3892359733581543
aF0.4209580421447754
aF0.438385009765625
as.