(dp0
S'cue_tuples'
p1
(lp2
(S'cue_R'
p3
S'F'
p4
I1
tp5
a(g3
g4
I0
tp6
a(g3
g4
I0
tp7
a(g3
g4
I0
tp8
a(g3
g4
I0
tp9
a(g3
g4
I0
tp10
a(g3
g4
I0
tp11
a(g3
g4
I0
tp12
a(g3
g4
I0
tp13
a(g3
g4
I0
tp14
asS'uncued'
p15
(lp16
S'00102931230fa_sunaajspcoepticvplv.jpg'
p17
aS'00807941205fa_sunahawfngukizslzsd.jpg'
p18
aS'00138931230fa_sunaapfaivxqoynnwwp.jpg'
p19
aS'00543940519fa_sunacepzfrmtkiqonpy.jpg'
p20
aS'00071941031fa_sunaaexqbtdswxrqjvz.jpg'
p21
aS'00935960627fa_sunaqbmgkgqucajzrkp.jpg'
p22
aS'00919960620fa_sunapmfmzadmosuogaz.jpg'
p23
aS'01007960627fa_sunbxarcshsnqsefemx.jpg'
p24
aS'00719960620fa_sunadzuvtmtmgupotmf.jpg'
p25
aS'00893960530Fa_sunaloffvbvysigxent.jpg'
p26
asS'cued'
p27
(lp28
S'00811960530fa_sunahedfrhtcwpneund.jpg'
p29
aS'00906960530fa_sunantryfbloeaomfta.jpg'
p30
aS'00670941121fa_sunadochqcucscehsgk.jpg'
p31
aS'00815941205fa_sunahiphsekjihkafsl.jpg'
p32
aS'00635941031fa_sunaddsaeicthrfbkhe.jpg'
p33
aS'00800941205fb_sunagvjurcwdbixvnyi.jpg'
p34
aS'00747941201fa_sunaeutbrtswvsozxyk.jpg'
p35
aS'01010960627fa_suncnkvbhypnivcohyx.jpg'
p36
aS'00877960530fa_sunajxpkuhbizeveguy.jpg'
p37
aS'00760960620fa_sunaffstbkappprzxnv.jpg'
p38
asS'uncued_RT'
p39
(lp40
F0.46213412284851074
asS'cued_RT'
p41
(lp42
F0.4530479907989502
aF0.44953417778015137
aF0.44619202613830566
aF0.38092613220214844
aF0.23400616645812988
aF0.29901885986328125
aF0.2642941474914551
aF0.08231401443481445
aF0.3896040916442871
as.