(dp0
S'images'
p1
(lp2
S'sunacvbrcejzwmcgnoq.jpg'
p3
aS'sunaavodbcpygkggnfp.jpg'
p4
aS'00851940307fa.jpg'
p5
aS'sunaozisvwfbmlkfhzv.jpg'
p6
aS'00957960627fa.jpg'
p7
aS'sunaaexpnawiehinlpy.jpg'
p8
aS'00540940519fa.jpg'
p9
aS'00705960530fa.jpg'
p10
aS'sunaejnvnpltdmhbcsi.jpg'
p11
aS'00793941205fa.jpg'
p12
aS'00564940928fa.jpg'
p13
aS'00728941205fa.jpg'
p14
aS'00961960627fa.jpg'
p15
aS'sunaizgnnplsvajzhkc.jpg'
p16
aS'sunbtpilbhhbmhmeuzq.jpg'
p17
aS'00126931230fb.jpg'
p18
aS'00730960620fa.jpg'
p19
aS'sunagwswhkvnsmuszlz.jpg'
p20
aS'sunaisiwfgppimtnmxl.jpg'
p21
aS'00997960627fa.jpg'
p22
aS'sunaduslxfzlbxlllnz.jpg'
p23
aS'00743941201fa.jpg'
p24
aS'sunacacflqoyxhsqzhe.jpg'
p25
aS'sunadakkdovnuzlycvp.jpg'
p26
aS'sunagtjwilqjvxohypn.jpg'
p27
aS'sunahrltmuwbiehihpe.jpg'
p28
aS'00633940928fa.jpg'
p29
aS'00125931230fa.jpg'
p30
aS'00116931230fa.jpg'
p31
aS'00115931230fa.jpg'
p32
aS'00265940128fb.jpg'
p33
aS'sunadbdqzigzwipuipr.jpg'
p34
aS'sunaamvxnvouicstkjb.jpg'
p35
aS'00270940422fb.jpg'
p36
aS'sunaefgzwiramypjvtd.jpg'
p37
aS'sunaafbmtoniaasysgu.jpg'
p38
aS'sunasrjlmglmjzbmqxb.jpg'
p39
aS'sunagutjvdvnhxejerz.jpg'
p40
aS'00848940307fa.jpg'
p41
aS'00264940128fb.jpg'
p42
asS'ratings'
p43
(lp44
(lp45
(NF0.0
tp46
a(I1
F1.363
tp47
aa(lp48
(NF0.0
tp49
a(I2
F1.156
tp50
aa(lp51
(NF0.0
tp52
a(I3
F1.274
tp53
aa(lp54
(NF0.0
tp55
a(I3
F1.344
tp56
aa(lp57
(NF0.0
tp58
a(I2
F1.275
tp59
aa(lp60
(NF0.0
tp61
a(I2
F1.13
tp62
aa(lp63
(NF0.0
tp64
a(I4
F1.295
tp65
aa(lp66
(NF0.0
tp67
a(I2
F1.343
tp68
aa(lp69
(NF0.0
tp70
a(I2
F1.295
tp71
aa(lp72
(NF0.0
tp73
a(I3
F1.475
tp74
aa(lp75
(NF0.0
tp76
a(I3
F1.155
tp77
aa(lp78
(NF0.0
tp79
a(I3
F1.224
tp80
aa(lp81
(NF0.0
tp82
a(I2
F1.124
tp83
aa(lp84
(NF0.0
tp85
aa(lp86
(NF0.0
tp87
a(I3
F1.376
tp88
aa(lp89
(NF0.0
tp90
a(I2
F1.34
tp91
aa(lp92
(NF0.0
tp93
a(I2
F1.242
tp94
aa(lp95
(NF0.0
tp96
a(I2
F1.16
tp97
aa(lp98
(NF0.0
tp99
a(I2
F1.192
tp100
aa(lp101
(NF0.0
tp102
a(I1
F1.892
tp103
aa(lp104
(NF0.0
tp105
a(I2
F1.093
tp106
aa(lp107
(NF0.0
tp108
a(I1
F1.042
tp109
aa(lp110
(NF0.0
tp111
a(I2
F1.089
tp112
aa(lp113
(NF0.0
tp114
a(I3
F1.004
tp115
aa(lp116
(NF0.0
tp117
a(I3
F0.827
tp118
aa(lp119
(NF0.0
tp120
a(I3
F0.749
tp121
aa(lp122
(NF0.0
tp123
a(I4
F1.196
tp124
aa(lp125
(NF0.0
tp126
a(I2
F1.189
tp127
aa(lp128
(NF0.0
tp129
a(I2
F1.129
tp130
aa(lp131
(NF0.0
tp132
a(I2
F1.472
tp133
aa(lp134
(NF0.0
tp135
a(I2
F1.158
tp136
aa(lp137
(NF0.0
tp138
aa(lp139
(NF0.0
tp140
a(I4
F0.972
tp141
aa(lp142
(NF0.0
tp143
a(I2
F1.011
tp144
aa(lp145
(NF0.0
tp146
a(I2
F0.835
tp147
aa(lp148
(NF0.0
tp149
a(I3
F1.107
tp150
aa(lp151
(NF0.0
tp152
a(I2
F1.223
tp153
aa(lp154
(NF0.0
tp155
a(I3
F0.803
tp156
aa(lp157
(NF0.0
tp158
a(I2
F0.923
tp159
aa(lp160
(NF0.0
tp161
a(I2
F0.72
tp162
aasS'run_time'
p163
F122.57714915275574
sS'total_iters'
p164
(lp165
I0
aI1
aI2
aI3
aI4
aI5
aI6
aI7
aI8
aI9
aI10
aI11
aI12
aI13
aI14
aI15
aI16
aI17
aI18
aI19
aI20
aI21
aI22
aI23
aI24
aI25
aI26
aI27
aI28
aI29
aI30
aI31
aI32
aI33
aI34
aI35
aI36
aI37
aI38
aI39
as.