(lp0
S'A little engaging'
p1
aS'A little tired'
p2
accopy_reg
_reconstructor
p3
(cfuture.types.newstr
newstr
p4
c__builtin__
unicode
p5
VBackgrounds
p6
tp7
Rp8
ag3
(g4
g5
VYes. The right side
p9
tp10
Rp11
ag3
(g4
g5
V
p12
tp13
Rp14
a.