(lp0
S'A little boring'
p1
aS'Very tired'
p2
accopy_reg
_reconstructor
p3
(cfuture.types.newstr
newstr
p4
c__builtin__
unicode
p5
VLandscape
p6
tp7
Rp8
ag3
(g4
g5
VNo
p9
tp10
Rp11
ag3
(g4
g5
VI tried to remember hair and whether it was an outdoor or indoor scene.
p12
tp13
Rp14
a.