(lp0
S'Very boring'
p1
aS'A little tired'
p2
accopy_reg
_reconstructor
p3
(cfuture.types.newstr
newstr
p4
c__builtin__
unicode
p5
Vscenes, because they had more destinct lines
p6
tp7
Rp8
ag3
(g4
g5
Vscenes, because more variation
p9
tp10
Rp11
ag3
(g4
g5
Vlooking for distinct hair for the faces, and looking for distince lines or shapes in the landscapes
p12
tp13
Rp14
a.