(dp0
S'images'
p1
(lp2
S'sunadvithllcgmfxsrn.jpg'
p3
aS'sunahqldjibofgsfdgb.jpg'
p4
aS'00878960530fa.jpg'
p5
aS'01004960627fa.jpg'
p6
aS'sunafpfpiiujzoesnqg.jpg'
p7
aS'00884960530fa.jpg'
p8
aS'sunaddtdkycxbqlpfqa.jpg'
p9
aS'sunafowswglhxcsufpo.jpg'
p10
aS'00636941031fa.jpg'
p11
aS'00987960627fa.jpg'
p12
aS'sunagtjwilqjvxohypn.jpg'
p13
aS'sunagfvluwixdsozaql.jpg'
p14
aS'sunamkmeblgteyggink.jpg'
p15
aS'00070940307fa.jpg'
p16
aS'00116931230fa.jpg'
p17
aS'00581940928fa.jpg'
p18
aS'sunbloeoiozwjjsiamp.jpg'
p19
aS'sunbwtlihsuptkrckid.jpg'
p20
aS'00898960530fa.jpg'
p21
aS'sunbagfpovqwbuexqdn.jpg'
p22
aS'00810941205fa.jpg'
p23
aS'sunacvzhvcksnwqcqbw.jpg'
p24
aS'00968960627fa.jpg'
p25
aS'sunaaelotvjgibjtjhs.jpg'
p26
aS'sunaavjinpnkappuonm.jpg'
p27
aS'00770941201fa.jpg'
p28
aS'00772941201fa.jpg'
p29
aS'00062931230fb.jpg'
p30
aS'00101931230fb.jpg'
p31
aS'00098931230fa.jpg'
p32
aS'00532960627fa.jpg'
p33
aS'sunacdnquypmsshhsbk.jpg'
p34
aS'00540940519fa.jpg'
p35
aS'sunbbfqwjpdxniyhies.jpg'
p36
aS'00782941205fa.jpg'
p37
aS'sunaahzooisqkwlxwoz.jpg'
p38
aS'00793941205fa.jpg'
p39
aS'00771941205fa.jpg'
p40
aS'sunakodkcslgqhqlgwl.jpg'
p41
aS'sunaajpqmulidejvjsr.jpg'
p42
asS'ratings'
p43
(lp44
(lp45
(NF0.0
tp46
a(I1
F1.695
tp47
aa(lp48
(NF0.0
tp49
aa(lp50
(NF0.0
tp51
aa(lp52
(NF0.0
tp53
a(I2
F0.828
tp54
aa(lp55
(NF0.0
tp56
a(I2
F1.085
tp57
aa(lp58
(NF0.0
tp59
a(I3
F1.17
tp60
aa(lp61
(NF0.0
tp62
a(I1
F1.508
tp63
aa(lp64
(NF0.0
tp65
a(I3
F1.294
tp66
aa(lp67
(NF0.0
tp68
a(I2
F1.22
tp69
aa(lp70
(NF0.0
tp71
a(I1
F1.548
tp72
aa(lp73
(NF0.0
tp74
a(I2
F1.515
tp75
aa(lp76
(NF0.0
tp77
a(I2
F1.059
tp78
aa(lp79
(NF0.0
tp80
a(I1
F1.297
tp81
aa(lp82
(NF0.0
tp83
a(I1
F1.496
tp84
aa(lp85
(NF0.0
tp86
a(I1
F1.564
tp87
aa(lp88
(NF0.0
tp89
a(I2
F1.934
tp90
aa(lp91
(NF0.0
tp92
a(I3
F1.814
tp93
aa(lp94
(NF0.0
tp95
a(I1
F1.318
tp96
aa(lp97
(NF0.0
tp98
a(I1
F0.854
tp99
aa(lp100
(NF0.0
tp101
a(I2
F1.192
tp102
aa(lp103
(NF0.0
tp104
a(I1
F1.28
tp105
aa(lp106
(NF0.0
tp107
a(I1
F1.48
tp108
aa(lp109
(NF0.0
tp110
aa(lp111
(NF0.0
tp112
a(I2
F0.894
tp113
aa(lp114
(NF0.0
tp115
a(I4
F1.38
tp116
aa(lp117
(NF0.0
tp118
a(I1
F0.862
tp119
aa(lp120
(NF0.0
tp121
a(I1
F1.08
tp122
aa(lp123
(NF0.0
tp124
a(I1
F0.863
tp125
aa(lp126
(NF0.0
tp127
a(I1
F0.947
tp128
aa(lp129
(NF0.0
tp130
a(I1
F0.88
tp131
aa(lp132
(NF0.0
tp133
a(I1
F0.68
tp134
aa(lp135
(NF0.0
tp136
a(I2
F1.065
tp137
aa(lp138
(NF0.0
tp139
a(I1
F0.647
tp140
aa(lp141
(NF0.0
tp142
a(I1
F0.913
tp143
aa(lp144
(NF0.0
tp145
a(I2
F1.062
tp146
aa(lp147
(NF0.0
tp148
a(I3
F1.023
tp149
aa(lp150
(NF0.0
tp151
a(I1
F0.813
tp152
aa(lp153
(NF0.0
tp154
a(I1
F0.847
tp155
aa(lp156
(NF0.0
tp157
a(I1
F1.758
tp158
aa(lp159
(NF0.0
tp160
a(I1
F1.047
tp161
aasS'run_time'
p162
F123.0120439529419
sS'total_iters'
p163
(lp164
I0
aI1
aI2
aI3
aI4
aI5
aI6
aI7
aI8
aI9
aI10
aI11
aI12
aI13
aI14
aI15
aI16
aI17
aI18
aI19
aI20
aI21
aI22
aI23
aI24
aI25
aI26
aI27
aI28
aI29
aI30
aI31
aI32
aI33
aI34
aI35
aI36
aI37
aI38
aI39
as.