(dp0
S'cue_tuples'
p1
(lp2
(S'cue_L'
p3
S'L'
p4
I0
tp5
a(g3
g4
I0
tp6
a(g3
g4
I0
tp7
a(g3
g4
I0
tp8
a(g3
g4
I0
tp9
a(g3
g4
I1
tp10
a(g3
g4
I0
tp11
a(g3
g4
I0
tp12
a(g3
g4
I0
tp13
a(g3
g4
I0
tp14
asS'uncued'
p15
(lp16
S'00878960530fa_sunakgbnzxmfohgehnu.jpg'
p17
aS'00987960627fa_sunbloeoiozwjjsiamp.jpg'
p18
aS'00095931230fa_sunaahzooisqkwlxwoz.jpg'
p19
aS'00819940307fa_sunahqldjibofgsfdgb.jpg'
p20
aS'00636941031fa_sunaddtdkycxbqlpfqa.jpg'
p21
aS'00884960530fa_sunakodkcslgqhqlgwl.jpg'
p22
aS'00898960530fa_sunamkmeblgteyggink.jpg'
p23
aS'00116931230fa_sunaakqepfoeqomfgxf.jpg'
p24
aS'00098931230fa_sunaajpqmulidejvjsr.jpg'
p25
aS'00968960627fa_sunbagfpovqwbuexqdn.jpg'
p26
asS'cued'
p27
(lp28
S'00772941201fa_sunafpfpiiujzoesnqg.jpg'
p29
aS'00162931230fb_sunaavjinpnkappuonm.jpg'
p30
aS'00540940519fa_sunacdnquypmsshhsbk.jpg'
p31
aS'00771941205fa_sunafowswglhxcsufpo.jpg'
p32
aS'01004960627fa_sunbwtlihsuptkrckid.jpg'
p33
aS'00782941205fa_sunagfvluwixdsozaql.jpg'
p34
aS'00062931230fb_sunaaelotvjgibjtjhs.jpg'
p35
aS'00793941205fa_sunagtjwilqjvxohypn.jpg'
p36
aS'00581940928fa_sunacvzhvcksnwqcqbw.jpg'
p37
aS'00070940307fa_sunaaeplwsfslcbtojr.jpg'
p38
asS'uncued_RT'
p39
(lp40
F0.4143650531768799
aF0.5198628902435303
aF0.3352358341217041
aF0.436398983001709
aF0.32599592208862305
aF0.7143130302429199
aF0.36978697776794434
aF0.46849799156188965
aF0.44611501693725586
aF0.3597879409790039
asS'cued_RT'
p41
(lp42
s.