(dp0
S'images'
p1
(lp2
S'sunaobtizabegtwfwul.jpg'
p3
aS'sunafvsxtzaizojicxx.jpg'
p4
aS'sunabtlfmiwtljmoues.jpg'
p5
aS'00751960620fa.jpg'
p6
aS'00854940307fa.jpg'
p7
aS'00481940519fa.jpg'
p8
aS'00900960530fa.jpg'
p9
aS'sunabllobxadqcyttej.jpg'
p10
aS'00955960627fb.jpg'
p11
aS'sunaezuszgtxnmsxdbk.jpg'
p12
aS'00909960530.jpg'
p13
aS'sunaibnpvhkdpdnzcnz.jpg'
p14
aS'sunamlotskmmsjeogby.jpg'
p15
aS'00138931230fa.jpg'
p16
aS'00302940422fa.jpg'
p17
aS'00794960620fa.jpg'
p18
aS'00543940519fa.jpg'
p19
aS'sunabbwggenhfbftyvi.jpg'
p20
aS'00773960620fa.jpg'
p21
aS'sunapqkyghktgtosuuk.jpg'
p22
aS'00922960627fa.jpg'
p23
aS'sunaangbuylfvckqqoo.jpg'
p24
aS'sunauburywlkjszngcq.jpg'
p25
aS'sunagcthdfirrcawoic.jpg'
p26
aS'sunacsdhbbsybcyxnel.jpg'
p27
aS'sunacepzfrmtkiqonpy.jpg'
p28
aS'00720960620fa.jpg'
p29
aS'00270940422fb.jpg'
p30
aS'sunaiwduelojtwaqeyh.jpg'
p31
aS'sunabkngeblodihjvbk.jpg'
p32
aS'00568940928fa.jpg'
p33
aS'00280940422fb.jpg'
p34
aS'sunabxsuqbleluwczoy.jpg'
p35
aS'sunahgtbwgsmtqeodwh.jpg'
p36
aS'00834940307fa.jpg'
p37
aS'00746941201fa.jpg'
p38
aS'sunagpjzsbltchlwvou.jpg'
p39
aS'00218940128fa.jpg'
p40
aS'sunaflojskatpeqyzqp.jpg'
p41
aS'sunabohxbskznglnrhv.jpg'
p42
asS'ratings'
p43
(lp44
(lp45
(NF0.0
tp46
a(I1
F1.911
tp47
aa(lp48
(NF0.0
tp49
a(I3
F1.23
tp50
aa(lp51
(NF0.0
tp52
a(I4
F1.147
tp53
aa(lp54
(NF0.0
tp55
a(I1
F1.167
tp56
aa(lp57
(NF0.0
tp58
aa(lp59
(NF0.0
tp60
a(I2
F0.996
tp61
aa(lp62
(NF0.0
tp63
a(I1
F0.969
tp64
aa(lp65
(NF0.0
tp66
a(I2
F1.247
tp67
aa(lp68
(NF0.0
tp69
a(I1
F1.012
tp70
aa(lp71
(NF0.0
tp72
a(I3
F1.144
tp73
aa(lp74
(NF0.0
tp75
a(I1
F1.064
tp76
aa(lp77
(NF0.0
tp78
a(I3
F1.546
tp79
aa(lp80
(NF0.0
tp81
a(I2
F1.13
tp82
aa(lp83
(NF0.0
tp84
a(I1
F1.214
tp85
aa(lp86
(NF0.0
tp87
a(I1
F0.581
tp88
aa(lp89
(NF0.0
tp90
a(I1
F0.63
tp91
aa(lp92
(NF0.0
tp93
a(I1
F0.629
tp94
aa(lp95
(NF0.0
tp96
a(I3
F1.213
tp97
aa(lp98
(NF0.0
tp99
a(I1
F0.897
tp100
aa(lp101
(NF0.0
tp102
a(I2
F1.381
tp103
aa(lp104
(NF0.0
tp105
a(I1
F0.68
tp106
aa(lp107
(NF0.0
tp108
a(I3
F0.967
tp109
aa(lp110
(NF0.0
tp111
a(I2
F1.697
tp112
aa(lp113
(NF0.0
tp114
a(I1
F0.951
tp115
aa(lp116
(NF0.0
tp117
a(I1
F1.132
tp118
aa(lp119
(NF0.0
tp120
a(I3
F1.429
tp121
aa(lp122
(NF0.0
tp123
a(I1
F0.664
tp124
aa(lp125
(NF0.0
tp126
a(I1
F0.559
tp127
aa(lp128
(NF0.0
tp129
a(I1
F0.913
tp130
aa(lp131
(NF0.0
tp132
a(I3
F1.38
tp133
aa(lp134
(NF0.0
tp135
a(I1
F0.702
tp136
aa(lp137
(NF0.0
tp138
a(I1
F0.785
tp139
aa(lp140
(NF0.0
tp141
a(I3
F1.065
tp142
aa(lp143
(NF0.0
tp144
a(I2
F1.415
tp145
aa(lp146
(NF0.0
tp147
a(I1
F0.565
tp148
aa(lp149
(NF0.0
tp150
a(I1
F0.592
tp151
aa(lp152
(NF0.0
tp153
a(I2
F1.23
tp154
aa(lp155
(NF0.0
tp156
a(I1
F0.982
tp157
aa(lp158
(NF0.0
tp159
a(I3
F0.712
tp160
aa(lp161
(NF0.0
tp162
a(I2
F1.83
tp163
aasS'run_time'
p164
F123.06210207939148
sS'total_iters'
p165
(lp166
I0
aI1
aI2
aI3
aI4
aI5
aI6
aI7
aI8
aI9
aI10
aI11
aI12
aI13
aI14
aI15
aI16
aI17
aI18
aI19
aI20
aI21
aI22
aI23
aI24
aI25
aI26
aI27
aI28
aI29
aI30
aI31
aI32
aI33
aI34
aI35
aI36
aI37
aI38
aI39
as.