(dp0
S'cue_tuples'
p1
(lp2
(S'cue_R'
p3
S'L'
p4
I0
tp5
a(g3
g4
I0
tp6
a(g3
g4
I0
tp7
a(g3
g4
I0
tp8
a(g3
g4
I0
tp9
a(g3
g4
I0
tp10
a(g3
g4
I0
tp11
a(g3
g4
I0
tp12
a(g3
g4
I0
tp13
a(g3
g4
I0
tp14
asS'uncued'
p15
(lp16
S'00825940307fa_sunahrltmuwbiehihpe.jpg'
p17
aS'00889960530fa_sunaletopenvvozhpxc.jpg'
p18
aS'00902960530fa_sunanaacmmosxrfwmvl.jpg'
p19
aS'00754941201fa_sunaffgsyyvoqdlkmnk.jpg'
p20
aS'00557940519fa_sunachtuarilwyqnvjx.jpg'
p21
aS'00296940422fa_sunabrwnslxalcohfre.jpg'
p22
aS'00784941205fb_sunagjzcrjvmxzqzljx.jpg'
p23
aS'00145931230fb_sunaatjesvdupctftmn.jpg'
p24
aS'00745941205fa_sunaeouogqolxvggaoq.jpg'
p25
aS'00635941031fa_sunaddsaeicthrfbkhe.jpg'
p26
asS'cued'
p27
(lp28
S'00288940422fa_sunabppokiyglaxpcha.jpg'
p29
aS'00123931230fb_sunaalcrrdbjgdztbiz.jpg'
p30
aS'00090931230fa_sunaahedjlmtqekgyvj.jpg'
p31
aS'00089931230fa_sunaagcpoejbuzyvddd.jpg'
p32
aS'00260940128fa_sunabgfhvifeijihhjw.jpg'
p33
aS'00209940128fb_sunabaergayifsgacxt.jpg'
p34
aS'00835940307fa_sunaijsqpvodplbwxkf.jpg'
p35
aS'00750941201fa_sunaeuzwggvibufclwf.jpg'
p36
aS'00214940128fa_sunabbafjowbzcvbucc.jpg'
p37
aS'00681941121fa_sunadqmjrhfjyuzyvdd.jpg'
p38
asS'uncued_RT'
p39
(lp40
sS'cued_RT'
p41
(lp42
F0.994359016418457
aF0.3270301818847656
aF0.3252449035644531
aF0.3872799873352051
aF0.35296082496643066
aF0.44705700874328613
aF0.396439790725708
aF0.6877889633178711
aF0.34476208686828613
aF0.42293596267700195
as.