(dp0
S'images'
p1
(lp2
S'00308940422fb.jpg'
p3
aS'00947960627fa.jpg'
p4
aS'00774941201fa.jpg'
p5
aS'sunapmfmzadmosuogaz.jpg'
p6
aS'sunaaxjpzcnxligjtjq.jpg'
p7
aS'00136931230fb.jpg'
p8
aS'sunaefgzwiramypjvtd.jpg'
p9
aS'01005960627fa.jpg'
p10
aS'00777941205fa.jpg'
p11
aS'00142931230fb.jpg'
p12
aS'sunbwyuesflwdpqtgoy.jpg'
p13
aS'sunaooffzffbhcpirmm.jpg'
p14
aS'00860940307fa.jpg'
p15
aS'00801941205fa.jpg'
p16
aS'sunadsgmtznewzyasnk.jpg'
p17
aS'00725941201fa.jpg'
p18
aS'00700941121fa.jpg'
p19
aS'00146960620fb.jpg'
p20
aS'00479940519fa.jpg'
p21
aS'sunaakjaacuzulqckgl.jpg'
p22
aS'00147931230fb.jpg'
p23
aS'00929960627fa.jpg'
p24
aS'00792941205fa.jpg'
p25
aS'00857940307fa.jpg'
p26
aS'sunabzuqsrgcsonqlkz.jpg'
p27
aS'sunaizeyhvjzknwjudw.jpg'
p28
aS'sunaiwfobocrruqznsv.jpg'
p29
aS'sunaguchqqnrtodtezq.jpg'
p30
aS'00893960530Fa.jpg'
p31
aS'sunbwaafjdebjzttuvq.jpg'
p32
aS'00112931230fa.jpg'
p33
aS'00967960627fa.jpg'
p34
aS'00505960627fa.jpg'
p35
aS'01002960627fb.jpg'
p36
aS'sunaatpeezlljqaxlhj.jpg'
p37
aS'sunaloffvbvysigxent.jpg'
p38
aS'sunagcinxkccdtrjmlv.jpg'
p39
aS'00193940928fa.jpg'
p40
aS'sunaanptmsknhirrzed.jpg'
p41
aS'sunafvtpfczkzopbgue.jpg'
p42
asS'ratings'
p43
(lp44
(lp45
(NF0.0
tp46
a(I1
F1.152
tp47
aa(lp48
(NF0.0
tp49
a(I1
F1.049
tp50
aa(lp51
(NF0.0
tp52
a(I1
F0.651
tp53
aa(lp54
(NF0.0
tp55
a(I4
F1.131
tp56
aa(lp57
(NF0.0
tp58
a(I3
F1.097
tp59
aa(lp60
(NF0.0
tp61
a(I1
F0.614
tp62
aa(lp63
(NF0.0
tp64
a(I2
F0.981
tp65
aa(lp66
(NF0.0
tp67
a(I1
F0.64
tp68
aa(lp69
(NF0.0
tp70
a(I1
F0.546
tp71
aa(lp72
(NF0.0
tp73
a(I1
F0.514
tp74
aa(lp75
(NF0.0
tp76
a(I3
F0.936
tp77
aa(lp78
(NF0.0
tp79
a(I4
F1.164
tp80
aa(lp81
(NF0.0
tp82
a(I1
F0.847
tp83
aa(lp84
(NF0.0
tp85
a(I1
F0.829
tp86
aa(lp87
(NF0.0
tp88
a(I2
F1.18
tp89
aa(lp90
(NF0.0
tp91
a(I1
F1.23
tp92
aa(lp93
(NF0.0
tp94
a(I1
F0.599
tp95
aa(lp96
(NF0.0
tp97
a(I1
F0.479
tp98
aa(lp99
(NF0.0
tp100
a(I1
F0.513
tp101
aa(lp102
(NF0.0
tp103
a(I3
F0.998
tp104
aa(lp105
(NF0.0
tp106
a(I1
F0.781
tp107
aa(lp108
(NF0.0
tp109
a(I1
F0.549
tp110
aa(lp111
(NF0.0
tp112
a(I1
F0.429
tp113
aa(lp114
(NF0.0
tp115
a(I1
F0.497
tp116
aa(lp117
(NF0.0
tp118
a(I2
F1.099
tp119
aa(lp120
(NF0.0
tp121
a(I4
F1.03
tp122
aa(lp123
(NF0.0
tp124
a(I2
F1.163
tp125
aa(lp126
(NF0.0
tp127
a(I3
F0.931
tp128
aa(lp129
(NF0.0
tp130
a(I1
F0.597
tp131
aa(lp132
(NF0.0
tp133
a(I1
F1.131
tp134
aa(lp135
(NF0.0
tp136
a(I1
F0.712
tp137
aa(lp138
(NF0.0
tp139
a(I1
F0.533
tp140
aa(lp141
(NF0.0
tp142
a(I1
F0.646
tp143
aa(lp144
(NF0.0
tp145
a(I1
F0.472
tp146
aa(lp147
(NF0.0
tp148
a(I3
F1.081
tp149
aa(lp150
(NF0.0
tp151
a(I1
F0.813
tp152
aa(lp153
(NF0.0
tp154
a(I2
F0.885
tp155
aa(lp156
(NF0.0
tp157
a(I1
F0.651
tp158
aa(lp159
(NF0.0
tp160
a(I2
F0.929
tp161
aa(lp162
(NF0.0
tp163
a(I3
F0.813
tp164
aasS'run_time'
p165
F122.97934317588806
sS'total_iters'
p166
(lp167
I0
aI1
aI2
aI3
aI4
aI5
aI6
aI7
aI8
aI9
aI10
aI11
aI12
aI13
aI14
aI15
aI16
aI17
aI18
aI19
aI20
aI21
aI22
aI23
aI24
aI25
aI26
aI27
aI28
aI29
aI30
aI31
aI32
aI33
aI34
aI35
aI36
aI37
aI38
aI39
as.