(dp0
S'cue_tuples'
p1
(lp2
(S'cue_R'
p3
S'L'
p4
I0
tp5
a(g3
g4
I0
tp6
a(g3
g4
I0
tp7
a(g3
g4
I0
tp8
a(g3
g4
I0
tp9
a(g3
g4
I0
tp10
a(g3
g4
I0
tp11
a(g3
g4
I0
tp12
a(g3
g4
I0
tp13
a(g3
g4
I0
tp14
asS'uncued'
p15
(lp16
S'00967960627fa_sunbaejotfklekvpxcz.jpg'
p17
aS'01005960627fa_sunbwyuesflwdpqtgoy.jpg'
p18
aS'00929960627fa_sunaprnrbmgkomdbchr.jpg'
p19
aS'00112931230fa_sunaakjaacuzulqckgl.jpg'
p20
aS'00796941205fa_sunaguchqqnrtodtezq.jpg'
p21
aS'00146960620fb_sunaatpeezlljqaxlhj.jpg'
p22
aS'00505960627fa_sunabzuqsrgcsonqlkz.jpg'
p23
aS'00725941201fa_sunaefgzwiramypjvtd.jpg'
p24
aS'00147931230fb_sunaatpkocdkocwxpkb.jpg'
p25
aS'01002960627fb_sunbwaafjdebjzttuvq.jpg'
p26
asS'cued'
p27
(lp28
S'00893960530Fa_sunaloffvbvysigxent.jpg'
p29
aS'00777941205fa_sunagcinxkccdtrjmlv.jpg'
p30
aS'00700941121fa_sunadsgmtznewzyasnk.jpg'
p31
aS'00919960620fa_sunapmfmzadmosuogaz.jpg'
p32
aS'00857940307fa_sunaiwfobocrruqznsv.jpg'
p33
aS'00860940307fa_sunaizeyhvjzknwjudw.jpg'
p34
aS'00136931230fb_sunaanptmsknhirrzed.jpg'
p35
aS'00774941201fa_sunafvtpfczkzopbgue.jpg'
p36
aS'00947960627fa_sunasmmcxdddtmtazwx.jpg'
p37
aS'00193940928fa_sunaaxjpzcnxligjtjq.jpg'
p38
asS'uncued_RT'
p39
(lp40
sS'cued_RT'
p41
(lp42
F0.6548299789428711
aF0.7203891277313232
aF0.45552611351013184
aF0.38979506492614746
aF0.43108415603637695
aF0.2849860191345215
aF0.43042588233947754
aF0.37743401527404785
aF0.3492131233215332
aF0.4908149242401123
as.