(dp0
S'images'
p1
(lp2
S'sunaavchcbptaerhcfy.jpg'
p3
aS'01003960627fb.jpg'
p4
aS'00911960530fa.jpg'
p5
aS'00598940928fa.jpg'
p6
aS'sunacvbrcejzwmcgnoq.jpg'
p7
aS'sunaejnvnpltdmhbcsi.jpg'
p8
aS'00728941205fa.jpg'
p9
aS'sunafijbgncijwykrnl.jpg'
p10
aS'sunaaexqbtdswxrqjvz.jpg'
p11
aS'00705960530fa.jpg'
p12
aS'00766960620fa.jpg'
p13
aS'00314940422fa.jpg'
p14
aS'sunaccdtpgenvcbcbcf.jpg'
p15
aS'sunaduslxfzlbxlllnz.jpg'
p16
aS'sunbesrwkdsffeogeqq.jpg'
p17
aS'00977960627fa.jpg'
p18
aS'00780960530fa.jpg'
p19
aS'00913960530fa.jpg'
p20
aS'00080931230fb.jpg'
p21
aS'sunaafgqutfaishsxyu.jpg'
p22
aS'sunagetqixeypsysbpn.jpg'
p23
aS'sunbgklxeqjhdbyfhhy.jpg'
p24
aS'sunagtqhhwxjeuxdebe.jpg'
p25
aS'sunaafjszryxyavjzln.jpg'
p26
aS'sunbbxkanhzjgbwyxqs.jpg'
p27
aS'sunabwmcbaxwioksdgw.jpg'
p28
aS'sunaafvitpexrpvumsa.jpg'
p29
aS'00957960627fa.jpg'
p30
aS'00985960627fa.jpg'
p31
aS'sunaanlwnpqndclffxt.jpg'
p32
aS'00574940928fa.jpg'
p33
aS'sunaooaqzputrowwbsw.jpg'
p34
aS'sunbfyvfqiimvdaxlqn.jpg'
p35
aS'00763941205fa.jpg'
p36
aS'00983960627fa.jpg'
p37
aS'sunbwdrdvsweerwsdrj.jpg'
p38
aS'sunabrlndkruqokhury.jpg'
p39
aS'00836940307fa.jpg'
p40
aS'00982960627fa.jpg'
p41
aS'00071941031fa.jpg'
p42
asS'ratings'
p43
(lp44
(lp45
(NF0.0
tp46
a(I3
F0.945
tp47
aa(lp48
(NF0.0
tp49
a(I4
F1.049
tp50
aa(lp51
(NF0.0
tp52
a(I2
F0.836
tp53
aa(lp54
(NF0.0
tp55
a(I2
F1.176
tp56
aa(lp57
(NF0.0
tp58
a(I2
F1.552
tp59
aa(lp60
(NF0.0
tp61
a(I1
F0.928
tp62
aa(lp63
(NF0.0
tp64
a(I1
F0.729
tp65
aa(lp66
(NF0.0
tp67
a(I1
F0.982
tp68
aa(lp69
(NF0.0
tp70
a(I1
F0.937
tp71
aa(lp72
(NF0.0
tp73
a(I1
F1.447
tp74
aa(lp75
(NF0.0
tp76
a(I1
F0.729
tp77
aa(lp78
(NF0.0
tp79
a(I1
F0.996
tp80
aa(lp81
(NF0.0
tp82
a(I1
F0.763
tp83
aa(lp84
(NF0.0
tp85
a(I2
F1.179
tp86
aa(lp87
(NF0.0
tp88
a(I1
F0.664
tp89
aa(lp90
(NF0.0
tp91
a(I3
F0.845
tp92
aa(lp93
(NF0.0
tp94
a(I2
F0.73
tp95
aa(lp96
(NF0.0
tp97
a(I1
F0.546
tp98
aa(lp99
(NF0.0
tp100
a(I1
F0.847
tp101
aa(lp102
(NF0.0
tp103
a(I1
F1.137
tp104
aa(lp105
(NF0.0
tp106
a(I2
F1.157
tp107
aa(lp108
(NF0.0
tp109
a(I1
F0.679
tp110
aa(lp111
(NF0.0
tp112
a(I1
F0.795
tp113
aa(lp114
(NF0.0
tp115
a(I1
F0.571
tp116
aa(lp117
(NF0.0
tp118
a(I1
F0.863
tp119
aa(lp120
(NF0.0
tp121
a(I1
F0.814
tp122
aa(lp123
(NF0.0
tp124
a(I1
F0.619
tp125
aa(lp126
(NF0.0
tp127
a(I1
F0.411
tp128
aa(lp129
(NF0.0
tp130
a(I3
F0.695
tp131
aa(lp132
(NF0.0
tp133
a(I2
F0.713
tp134
aa(lp135
(NF0.0
tp136
a(I2
F0.757
tp137
aa(lp138
(NF0.0
tp139
a(I1
F0.829
tp140
aa(lp141
(NF0.0
tp142
a(I1
F0.679
tp143
aa(lp144
(NF0.0
tp145
a(I3
F1.679
tp146
aa(lp147
(NF0.0
tp148
a(I3
F1.629
tp149
aa(lp150
(NF0.0
tp151
a(I2
F0.695
tp152
aa(lp153
(NF0.0
tp154
a(I1
F0.663
tp155
aa(lp156
(NF0.0
tp157
a(I1
F0.397
tp158
aa(lp159
(NF0.0
tp160
a(I2
F1.029
tp161
aa(lp162
(NF0.0
tp163
a(I1
F0.812
tp164
aasS'run_time'
p165
F122.96307492256165
sS'total_iters'
p166
(lp167
I0
aI1
aI2
aI3
aI4
aI5
aI6
aI7
aI8
aI9
aI10
aI11
aI12
aI13
aI14
aI15
aI16
aI17
aI18
aI19
aI20
aI21
aI22
aI23
aI24
aI25
aI26
aI27
aI28
aI29
aI30
aI31
aI32
aI33
aI34
aI35
aI36
aI37
aI38
aI39
as.