(dp0
S'cue_tuples'
p1
(lp2
(S'cue_R'
p3
S'F'
p4
I1
tp5
a(g3
g4
I1
tp6
a(g3
g4
I0
tp7
a(g3
g4
I0
tp8
a(g3
g4
I0
tp9
a(g3
g4
I1
tp10
a(g3
g4
I0
tp11
a(g3
g4
I0
tp12
a(g3
g4
I0
tp13
a(g3
g4
I0
tp14
asS'uncued'
p15
(lp16
S'00648941031fa_sunadfndyrtqqiasoig.jpg'
p17
aS'00294940422fb_sunabrlndkruqokhury.jpg'
p18
aS'00080931230fb_sunaafjszryxyavjzln.jpg'
p19
aS'00911960530fa_sunaooaqzputrowwbsw.jpg'
p20
aS'00982960627fa_sunbesrwkdsffeogeqq.jpg'
p21
aS'00728941205fa_sunaejnvnpltdmhbcsi.jpg'
p22
aS'00071941031fa_sunaaexqbtdswxrqjvz.jpg'
p23
aS'00077931230fb_sunaafgqutfaishsxyu.jpg'
p24
aS'00780960530fa_sunagetqixeypsysbpn.jpg'
p25
aS'00836940307fa_sunainqelldeebvxtcz.jpg'
p26
asS'cued'
p27
(lp28
S'00314940422fa_sunabwmcbaxwioksdgw.jpg'
p29
aS'00598940928fa_sunacxeheuiigkcgquf.jpg'
p30
aS'00983960627fa_sunbfyvfqiimvdaxlqn.jpg'
p31
aS'00985960627fa_sunbgklxeqjhdbyfhhy.jpg'
p32
aS'01003960627fb_sunbwdrdvsweerwsdrj.jpg'
p33
aS'00766960620fa_sunafijbgncijwykrnl.jpg'
p34
aS'00705960530fa_sunaduslxfzlbxlllnz.jpg'
p35
aS'00574940928fa_sunacvbrcejzwmcgnoq.jpg'
p36
aS'00977960627fa_sunbbxkanhzjgbwyxqs.jpg'
p37
aS'00158931230fb_sunaavchcbptaerhcfy.jpg'
p38
asS'uncued_RT'
p39
(lp40
F0.5555949211120605
aF0.39178991317749023
aF0.44919514656066895
asS'cued_RT'
p41
(lp42
F0.5246260166168213
aF0.32451295852661133
aF0.37995219230651855
aF0.40148496627807617
aF0.34049105644226074
aF0.37951087951660156
aF0.38283801078796387
as.