(lp0
S'A little boring'
p1
aS'A little tired'
p2
accopy_reg
_reconstructor
p3
(cfuture.types.newstr
newstr
p4
c__builtin__
unicode
p5
Vfaces because sometimes I would be able to take note on whether a face was round or long etc in my peripheral view
p6
tp7
Rp8
ag3
(g4
g5
Vright
p9
tp10
Rp11
ag3
(g4
g5
VI just tried to identify any prominent features I could see in my peripheral view 
p12
tp13
Rp14
a.