(lp0
S'A little boring'
p1
aS'Very tired'
p2
accopy_reg
_reconstructor
p3
(cfuture.types.newstr
newstr
p4
c__builtin__
unicode
p5
Vplaces- more defined
p6
tp7
Rp8
ag3
(g4
g5
Vleft
p9
tp10
Rp11
ag3
(g4
g5
Veyes
p12
tp13
Rp14
a.