(lp0
ccopy_reg
_reconstructor
p1
(cfuture.types.newstr
newstr
p2
c__builtin__
unicode
p3
V20
p4
tp5
Rp6
aS'Female'
p7
aS'Yes'
p8
aI01
aI00
aI00
aI00
aI00
aI00
aI00
aS'some college'
p9
aS'No'
p10
ag8
ag10
aS''
p11
ag1
(g2
g3
V8
p12
tp13
Rp14
ag1
(g2
g3
V0
p15
tp16
Rp17
aS'A little slugglish'
p18
a.