(lp0
S'Very engaging'
p1
aS'Very tired'
p2
accopy_reg
_reconstructor
p3
(cfuture.types.newstr
newstr
p4
c__builtin__
unicode
p5
Vthe letters and the scenes, I think it was easier to remember things I've somewhat seen before such as an x or o or a background of a library or outdoors
p6
tp7
Rp8
ag3
(g4
g5
Vthe right side
p9
tp10
Rp11
ag3
(g4
g5
Vlines of symmetry 
p12
tp13
Rp14
a.