(lp0
S'A little boring'
p1
aS'A little tired'
p2
accopy_reg
_reconstructor
p3
(cfuture.types.newstr
newstr
p4
c__builtin__
unicode
p5
Vlandscapes, more variety
p6
tp7
Rp8
aS''
p9
ag3
(g4
g5
Vdark parts and features
p10
tp11
Rp12
a.