(dp0
S'images'
p1
(lp2
S'26377133.thl.jpg'
p3
aS'26427867.thl.jpg'
p4
aS'22923440.thl.jpg'
p5
aS'26465824.thl.jpg'
p6
aS'26424075.thl.jpg'
p7
aS'22827276.thl.jpg'
p8
aS'sunadvithllcgmfxsrn.jpg'
p9
aS'sunacmpqqfbsvlzinzl.jpg'
p10
aS'sunacjkmnpawfzbyvae.jpg'
p11
aS'sunabkmdplkdbvxriff.jpg'
p12
aS'sunaahzooisqkwlxwoz.jpg'
p13
aS'sunaeuzwggvibufclwf.jpg'
p14
aS'sunadfktsqjthoglcsm.jpg'
p15
aS'sunabxmguapjekttvwm.jpg'
p16
aS'sunaffgsyyvoqdlkmnk.jpg'
p17
aS'sunaatjesvdupctftmn.jpg'
p18
aS'26379054.thl.jpg'
p19
aS'26378596.thl.jpg'
p20
aS'sunaipyohrqlwngaqif.jpg'
p21
aS'sunaazezcsunmhttzxz.jpg'
p22
aS'22910996.thl.jpg'
p23
aS'26431471.thl.jpg'
p24
aS'suncnkvbhypnivcohyx.jpg'
p25
aS'sunaydywdmvlfddbxbk.jpg'
p26
aS'sunaizeyhvjzknwjudw.jpg'
p27
aS'sunaenwuebvlpdmntju.jpg'
p28
aS'26428540.thl.jpg'
p29
aS'22827408.thl.jpg'
p30
aS'26393373.thl.jpg'
p31
aS'sunbpvgllfdejxcpjqp.jpg'
p32
aS'26373195.thl.jpg'
p33
aS'26375953.thl.jpg'
p34
aS'22923068.thl.jpg'
p35
aS'sunaejnvnpltdmhbcsi.jpg'
p36
aS'sunabbwggenhfbftyvi.jpg'
p37
aS'sunacbeefkxpymwevpk.jpg'
p38
aS'26451269.thl.jpg'
p39
aS'22911500.thl.jpg'
p40
aS'22852560.thl.jpg'
p41
aS'26384637.thl.jpg'
p42
asS'ratings'
p43
(lp44
(lp45
(NF0.0
tp46
a(I1
F1.867
tp47
aa(lp48
(NF0.0
tp49
a(I3
F1.195
tp50
aa(lp51
(NF0.0
tp52
a(I2
F1.813
tp53
aa(lp54
(NF0.0
tp55
aa(lp56
(NF0.0
tp57
a(I1
F1.296
tp58
aa(lp59
(NF0.0
tp60
a(I1
F1.13
tp61
aa(lp62
(NF0.0
tp63
aa(lp64
(NF0.0
tp65
a(I3
F1.579
tp66
aa(lp67
(NF0.0
tp68
a(I1
F1.547
tp69
aa(lp70
(NF0.0
tp71
a(I3
F1.333
tp72
aa(lp73
(NF0.0
tp74
a(I4
F1.181
tp75
aa(lp76
(NF0.0
tp77
a(I2
F1.843
tp78
aa(lp79
(NF0.0
tp80
a(I4
F1.144
tp81
aa(lp82
(NF0.0
tp83
a(I1
F1.514
tp84
aa(lp85
(NF0.0
tp86
a(I3
F1.196
tp87
aa(lp88
(NF0.0
tp89
a(I2
F1.38
tp90
aa(lp91
(NF0.0
tp92
a(I3
F1.512
tp93
aa(lp94
(NF0.0
tp95
a(I1
F1.129
tp96
aa(lp97
(NF0.0
tp98
a(I2
F1.25
tp99
aa(lp100
(NF0.0
tp101
a(I1
F1.546
tp102
aa(lp103
(NF0.0
tp104
a(I2
F1.013
tp105
aa(lp106
(NF0.0
tp107
a(I2
F1.38
tp108
aa(lp109
(NF0.0
tp110
a(I3
F1.13
tp111
aa(lp112
(NF0.0
tp113
a(I4
F1.044
tp114
aa(lp115
(NF0.0
tp116
a(I4
F0.946
tp117
aa(lp118
(NF0.0
tp119
a(I3
F1.363
tp120
aa(lp121
(NF0.0
tp122
a(I2
F1.497
tp123
aa(lp124
(NF0.0
tp125
a(I3
F0.729
tp126
aa(lp127
(NF0.0
tp128
a(I2
F1.113
tp129
aa(lp130
(NF0.0
tp131
a(I3
F1.054
tp132
aa(lp133
(NF0.0
tp134
a(I4
F0.896
tp135
aa(lp136
(NF0.0
tp137
a(I3
F1.415
tp138
aa(lp139
(NF0.0
tp140
a(I2
F0.863
tp141
aa(lp142
(NF0.0
tp143
a(I3
F1.473
tp144
aa(lp145
(NF0.0
tp146
a(I3
F1.13
tp147
aa(lp148
(NF0.0
tp149
a(I4
F0.943
tp150
aa(lp151
(NF0.0
tp152
a(I3
F1.114
tp153
aa(lp154
(NF0.0
tp155
a(I3
F1.296
tp156
aa(lp157
(NF0.0
tp158
a(I2
F0.896
tp159
aa(lp160
(NF0.0
tp161
a(I1
F1.164
tp162
aasS'run_time'
p163
F122.29312181472778
sS'total_iters'
p164
(lp165
I0
aI1
aI2
aI3
aI4
aI5
aI6
aI7
aI8
aI9
aI10
aI11
aI12
aI13
aI14
aI15
aI16
aI17
aI18
aI19
aI20
aI21
aI22
aI23
aI24
aI25
aI26
aI27
aI28
aI29
aI30
aI31
aI32
aI33
aI34
aI35
aI36
aI37
aI38
aI39
as.