(dp0
S'cue_tuples'
p1
(lp2
(S'cue_R'
p3
S'F'
p4
I0
tp5
a(g3
g4
I0
tp6
a(g3
g4
I0
tp7
a(g3
g4
I1
tp8
a(g3
g4
I0
tp9
a(g3
g4
I0
tp10
a(g3
g4
I1
tp11
a(g3
g4
I0
tp12
a(g3
g4
I0
tp13
a(g3
g4
I0
tp14
asS'uncued'
p15
(lp16
S'26378986.thl_sunaeoghzrjarigmwua.jpg'
p17
aS'26422507.thl_sunahiphsekjihkafsl.jpg'
p18
aS'22856256.thl_sunaampvucecsfbdafn.jpg'
p19
aS'22856172.thl_sunaamdjwemxpmmtypi.jpg'
p20
aS'22854108.thl_sunaakxgygjfqrzpyoz.jpg'
p21
aS'23063814.thl_sunabwjvmoaddlyxfjr.jpg'
p22
aS'26441591.thl_sunbfyvfqiimvdaxlqn.jpg'
p23
aS'23014831.thl_sunabjzyxcjnmztdonj.jpg'
p24
aS'26433347.thl_sunarceibpcyacbmfga.jpg'
p25
aS'26420830.thl_sunagsiwrmuixqgdimb.jpg'
p26
asS'cued'
p27
(lp28
S'23071000.thl_sunabxsuqbleluwczoy.jpg'
p29
aS'26433387.thl_sunarfdklgdnjgeqfjg.jpg'
p30
aS'23016343.thl_sunablfqiwfqomjarht.jpg'
p31
aS'26374089.thl_sunadbdqzigzwipuipr.jpg'
p32
aS'26434297.thl_sunatstrpjxhvtbaczf.jpg'
p33
aS'26425370.thl_sunajjxttslobudoqbv.jpg'
p34
aS'26426417.thl_sunajtrfunvzdfticna.jpg'
p35
aS'26440073.thl_sunbbgtoeuzierkkajt.jpg'
p36
aS'26387690.thl_sunafpfpiiujzoesnqg.jpg'
p37
aS'26428545.thl_sunamlotskmmsjeogby.jpg'
p38
asS'uncued_RT'
p39
(lp40
F0.6405529975891113
aF0.9436948299407959
asS'cued_RT'
p41
(lp42
F0.4923439025878906
aF0.43609189987182617
aF1.2476060390472412
aF0.9305651187896729
aF0.7360999584197998
aF0.34844303131103516
aF0.6354551315307617
aF0.38266992568969727
as.