(dp0
S'cue_tuples'
p1
(lp2
(S'cue_R'
p3
S'F'
p4
I0
tp5
a(g3
g4
I0
tp6
a(g3
g4
I0
tp7
a(g3
g4
I0
tp8
a(g3
g4
I0
tp9
a(g3
g4
I0
tp10
a(g3
g4
I0
tp11
a(g3
g4
I0
tp12
a(g3
g4
I0
tp13
a(g3
g4
I0
tp14
asS'uncued'
p15
(lp16
S'26282587.thl_sunabzuqsrgcsonqlkz.jpg'
p17
aS'22853544.thl_sunaakvmbftkrgqhjun.jpg'
p18
aS'26425788.thl_sunajrgtewnualfcerj.jpg'
p19
aS'26373068.thl_sunacwggadqsfpovdjv.jpg'
p20
aS'26432217.thl_sunapwjkcxdaeqehfql.jpg'
p21
aS'22848828.thl_sunaajqmsaavkmgbsth.jpg'
p22
aS'26420893.thl_sunagtjwilqjvxohypn.jpg'
p23
aS'26387436.thl_sunafijbgncijwykrnl.jpg'
p24
aS'26437074.thl_sunawksfbacycuhbrsc.jpg'
p25
aS'26375702.thl_sunadtlxenqqxsyjvix.jpg'
p26
asS'cued'
p27
(lp28
S'22852032.thl_sunaakjaacuzulqckgl.jpg'
p29
aS'22903148.thl_sunaawsdjisukbbginm.jpg'
p30
aS'26370704.thl_sunacjnahdmqfnjfwqx.jpg'
p31
aS'26423786.thl_sunaibnpvhkdpdnzcnz.jpg'
p32
aS'26375611.thl_sunadrmfzmstgdjdcod.jpg'
p33
aS'26433686.thl_sunasbbntuiheekqyaq.jpg'
p34
aS'26421070.thl_sunaguchqqnrtodtezq.jpg'
p35
aS'26431395.thl_sunaooffzffbhcpirmm.jpg'
p36
aS'26440026.thl_sunbbfqwjpdxniyhies.jpg'
p37
aS'26424973.thl_sunaiycurtqsfkvcaso.jpg'
p38
asS'uncued_RT'
p39
(lp40
sS'cued_RT'
p41
(lp42
F0.7667081356048584
aF0.4113619327545166
aF0.5521299839019775
aF0.34113287925720215
aF0.5237541198730469
aF0.29886603355407715
aF0.3392930030822754
aF0.6325359344482422
aF0.4343740940093994
aF0.6044960021972656
as.