(dp0
S'images'
p1
(lp2
S'sunacwggadqsfpovdjv.jpg'
p3
aS'23070064.thl.jpg'
p4
aS'23025307.thl.jpg'
p5
aS'sunacypmnujalygkunp.jpg'
p6
aS'sunagdzlvkqtpnfxfcg.jpg'
p7
aS'26444138.thl.jpg'
p8
aS'26425788.thl.jpg'
p9
aS'sunbbegcweqnetpdlrh.jpg'
p10
aS'26370704.thl.jpg'
p11
aS'sunaakvmbftkrgqhjun.jpg'
p12
aS'26375611.thl.jpg'
p13
aS'sunarpsxqkduedrrzyi.jpg'
p14
aS'sunaiwduelojtwaqeyh.jpg'
p15
aS'26427903.thl.jpg'
p16
aS'26421070.thl.jpg'
p17
aS'22848828.thl.jpg'
p18
aS'sunabzuqsrgcsonqlkz.jpg'
p19
aS'sunadtlxenqqxsyjvix.jpg'
p20
aS'26424973.thl.jpg'
p21
aS'sunakwlvxjpddialozd.jpg'
p22
aS'sunalkiibhqpxfamlll.jpg'
p23
aS'26391079.thl.jpg'
p24
aS'26431395.thl.jpg'
p25
aS'26420893.thl.jpg'
p26
aS'26423873.thl.jpg'
p27
aS'22853544.thl.jpg'
p28
aS'22949719.thl.jpg'
p29
aS'26372404.thl.jpg'
p30
aS'sunbtpilbhhbmhmeuzq.jpg'
p31
aS'sunacjnahdmqfnjfwqx.jpg'
p32
aS'sunaekgzpfilgjxpeyq.jpg'
p33
aS'sunaawsdjisukbbginm.jpg'
p34
aS'26282587.thl.jpg'
p35
aS'sunaguchqqnrtodtezq.jpg'
p36
aS'sunaajqmsaavkmgbsth.jpg'
p37
aS'sunagjzcrjvmxzqzljx.jpg'
p38
aS'sunasbbntuiheekqyaq.jpg'
p39
aS'22924880.thl.jpg'
p40
aS'sunaooffzffbhcpirmm.jpg'
p41
aS'26379570.thl.jpg'
p42
asS'ratings'
p43
(lp44
(lp45
(NF0.0
tp46
a(I2
F1.283
tp47
aa(lp48
(NF0.0
tp49
a(I2
F1.046
tp50
aa(lp51
(NF0.0
tp52
aa(lp53
(NF0.0
tp54
a(I2
F1.363
tp55
aa(lp56
(NF0.0
tp57
a(I4
F1.23
tp58
aa(lp59
(NF0.0
tp60
a(I3
F1.287
tp61
aa(lp62
(NF0.0
tp63
a(I3
F1.73
tp64
aa(lp65
(NF0.0
tp66
a(I3
F0.845
tp67
aa(lp68
(NF0.0
tp69
a(I4
F1.063
tp70
aa(lp71
(NF0.0
tp72
a(I3
F0.762
tp73
aa(lp74
(NF0.0
tp75
aa(lp76
(NF0.0
tp77
a(I3
F0.693
tp78
aa(lp79
(NF0.0
tp80
a(I3
F0.726
tp81
aa(lp82
(NF0.0
tp83
a(I3
F1.013
tp84
aa(lp85
(NF0.0
tp86
a(I3
F0.696
tp87
aa(lp88
(NF0.0
tp89
a(I3
F0.781
tp90
aa(lp91
(NF0.0
tp92
a(I3
F0.588
tp93
aa(lp94
(NF0.0
tp95
a(I3
F0.479
tp96
aa(lp97
(NF0.0
tp98
a(I3
F0.796
tp99
aa(lp100
(NF0.0
tp101
a(I3
F0.795
tp102
aa(lp103
(NF0.0
tp104
a(I3
F0.736
tp105
aa(lp106
(NF0.0
tp107
a(I2
F0.696
tp108
aa(lp109
(NF0.0
tp110
a(I3
F0.846
tp111
aa(lp112
(NF0.0
tp113
a(I3
F0.748
tp114
aa(lp115
(NF0.0
tp116
a(I4
F0.995
tp117
aa(lp118
(NF0.0
tp119
a(I4
F1.097
tp120
aa(lp121
(NF0.0
tp122
a(I3
F1.046
tp123
aa(lp124
(NF0.0
tp125
a(I3
F0.629
tp126
aa(lp127
(NF0.0
tp128
a(I2
F1.381
tp129
aa(lp130
(NF0.0
tp131
a(I4
F0.996
tp132
aa(lp133
(NF0.0
tp134
a(I3
F0.843
tp135
aa(lp136
(NF0.0
tp137
a(I3
F1.478
tp138
aa(lp139
(NF0.0
tp140
a(I3
F0.763
tp141
aa(lp142
(NF0.0
tp143
a(I4
F0.896
tp144
aa(lp145
(NF0.0
tp146
a(I3
F0.78
tp147
aa(lp148
(NF0.0
tp149
a(I2
F1.213
tp150
aa(lp151
(NF0.0
tp152
a(I2
F1.212
tp153
aa(lp154
(NF0.0
tp155
a(I1
F1.647
tp156
aa(lp157
(NF0.0
tp158
a(I3
F0.929
tp159
aa(lp160
(NF0.0
tp161
a(I2
F0.88
tp162
aasS'run_time'
p163
F122.24285078048706
sS'total_iters'
p164
(lp165
I0
aI1
aI2
aI3
aI4
aI5
aI6
aI7
aI8
aI9
aI10
aI11
aI12
aI13
aI14
aI15
aI16
aI17
aI18
aI19
aI20
aI21
aI22
aI23
aI24
aI25
aI26
aI27
aI28
aI29
aI30
aI31
aI32
aI33
aI34
aI35
aI36
aI37
aI38
aI39
as.