(dp0
S'images'
p1
(lp2
S'sunabrlndkruqokhury.jpg'
p3
aS'26427910.thl.jpg'
p4
aS'26421370.thl.jpg'
p5
aS'sunaatpeezlljqaxlhj.jpg'
p6
aS'26428576.thl.jpg'
p7
aS'26431414.thl.jpg'
p8
aS'22857192.thl.jpg'
p9
aS'26387587.thl.jpg'
p10
aS'sunbwdrdvsweerwsdrj.jpg'
p11
aS'sunaatpkocdkocwxpkb.jpg'
p12
aS'sunalcrtwiycqobgelp.jpg'
p13
aS'sunabclssnoeuigtawp.jpg'
p14
aS'sunagpjzsbltchlwvou.jpg'
p15
aS'26421572.thl.jpg'
p16
aS'sunbaejotfklekvpxcz.jpg'
p17
aS'sunahqldjibofgsfdgb.jpg'
p18
aS'sunaamsdyakblkfoydx.jpg'
p19
aS'26385058.thl.jpg'
p20
aS'26457349.thl.jpg'
p21
aS'sunagutjvdvnhxejerz.jpg'
p22
aS'sunafowswglhxcsufpo.jpg'
p23
aS'sunabzjxlmkwnwzimua.jpg'
p24
aS'26460317.thl.jpg'
p25
aS'26390325.thl.jpg'
p26
aS'sunagvprlbprarvgdvj.jpg'
p27
aS'sunasrjlmglmjzbmqxb.jpg'
p28
aS'sunaanjcbzdvtvblsdy.jpg'
p29
aS'sunajoveqhiprwqgoco.jpg'
p30
aS'sunaivdylrawbmhryfp.jpg'
p31
aS'26419231.thl.jpg'
p32
aS'sunaiozxhxgtfrmoagh.jpg'
p33
aS'sunacvjlsylseoghjup.jpg'
p34
aS'26423812.thl.jpg'
p35
aS'23041782.thl.jpg'
p36
aS'26434233.thl.jpg'
p37
aS'26383637.thl.jpg'
p38
aS'26373844.thl.jpg'
p39
aS'26440629.thl.jpg'
p40
aS'26391173.thl.jpg'
p41
aS'26372690.thl.jpg'
p42
asS'ratings'
p43
(lp44
(lp45
(NF0.0
tp46
a(I2
F1.181
tp47
aa(lp48
(NF0.0
tp49
a(I2
F1.097
tp50
aa(lp51
(NF0.0
tp52
a(I2
F0.996
tp53
aa(lp54
(NF0.0
tp55
a(I3
F1.012
tp56
aa(lp57
(NF0.0
tp58
a(I3
F0.981
tp59
aa(lp60
(NF0.0
tp61
a(I3
F0.963
tp62
aa(lp63
(NF0.0
tp64
a(I4
F0.862
tp65
aa(lp66
(NF0.0
tp67
a(I4
F0.697
tp68
aa(lp69
(NF0.0
tp70
a(I3
F0.861
tp71
aa(lp72
(NF0.0
tp73
a(I2
F0.961
tp74
aa(lp75
(NF0.0
tp76
a(I3
F0.76
tp77
aa(lp78
(NF0.0
tp79
a(I3
F0.662
tp80
aa(lp81
(NF0.0
tp82
a(I2
F0.725
tp83
aa(lp84
(NF0.0
tp85
a(I3
F0.613
tp86
aa(lp87
(NF0.0
tp88
a(I4
F0.644
tp89
aa(lp90
(NF0.0
tp91
a(I4
F0.844
tp92
aa(lp93
(NF0.0
tp94
a(I3
F0.778
tp95
aa(lp96
(NF0.0
tp97
a(I2
F1.212
tp98
aa(lp99
(NF0.0
tp100
a(I3
F0.747
tp101
aa(lp102
(NF0.0
tp103
a(I2
F1.064
tp104
aa(lp105
(NF0.0
tp106
a(I3
F1.096
tp107
aa(lp108
(NF0.0
tp109
a(I3
F1.129
tp110
aa(lp111
(NF0.0
tp112
a(I1
F0.964
tp113
aa(lp114
(NF0.0
tp115
a(I3
F0.878
tp116
aa(lp117
(NF0.0
tp118
a(I4
F0.994
tp119
aa(lp120
(NF0.0
tp121
a(I4
F0.743
tp122
aa(lp123
(NF0.0
tp124
a(I2
F0.862
tp125
aa(lp126
(NF0.0
tp127
a(I3
F0.794
tp128
aa(lp129
(NF0.0
tp130
a(I4
F1.412
tp131
aa(lp132
(NF0.0
tp133
a(I3
F0.93
tp134
aa(lp135
(NF0.0
tp136
a(I3
F0.948
tp137
aa(lp138
(NF0.0
tp139
a(I2
F1.111
tp140
aa(lp141
(NF0.0
tp142
a(I2
F1.245
tp143
aa(lp144
(NF0.0
tp145
a(I3
F0.897
tp146
aa(lp147
(NF0.0
tp148
a(I4
F0.879
tp149
aa(lp150
(NF0.0
tp151
a(I3
F0.781
tp152
aa(lp153
(NF0.0
tp154
a(I2
F1.046
tp155
aa(lp156
(NF0.0
tp157
a(I2
F0.897
tp158
aa(lp159
(NF0.0
tp160
a(I4
F0.962
tp161
aa(lp162
(NF0.0
tp163
a(I3
F0.593
tp164
aasS'run_time'
p165
F122.31027889251709
sS'total_iters'
p166
(lp167
I0
aI1
aI2
aI3
aI4
aI5
aI6
aI7
aI8
aI9
aI10
aI11
aI12
aI13
aI14
aI15
aI16
aI17
aI18
aI19
aI20
aI21
aI22
aI23
aI24
aI25
aI26
aI27
aI28
aI29
aI30
aI31
aI32
aI33
aI34
aI35
aI36
aI37
aI38
aI39
as.