(dp0
S'cue_tuples'
p1
(lp2
(S'cue_L'
p3
S'L'
p4
I0
tp5
a(g3
g4
I0
tp6
a(g3
g4
I0
tp7
a(g3
g4
I0
tp8
a(g3
g4
I0
tp9
a(g3
g4
I0
tp10
a(g3
g4
I0
tp11
a(g3
g4
I0
tp12
a(g3
g4
I0
tp13
a(g3
g4
I1
tp14
asS'uncued'
p15
(lp16
S'26387641.thl_sunafowswglhxcsufpo.jpg'
p17
aS'22869852.thl_sunaatpeezlljqaxlhj.jpg'
p18
aS'26374731.thl_sunadkazmlajmohnwfl.jpg'
p19
aS'26391173.thl_sunagcthdfirrcawoic.jpg'
p20
aS'26424291.thl_sunaivdylrawbmhryfp.jpg'
p21
aS'26431414.thl_sunaozisvwfbmlkfhzv.jpg'
p22
aS'22858860.thl_sunaanptmsknhirrzed.jpg'
p23
aS'26434233.thl_sunasrjlmglmjzbmqxb.jpg'
p24
aS'26421370.thl_sunagvprlbprarvgdvj.jpg'
p25
aS'26387587.thl_sunaflojskatpeqyzqp.jpg'
p26
asS'cued'
p27
(lp28
S'26390325.thl_sunafvwfsmqkjrutjta.jpg'
p29
aS'22869912.thl_sunaatpkocdkocwxpkb.jpg'
p30
aS'26423242.thl_sunahqldjibofgsfdgb.jpg'
p31
aS'26428576.thl_sunammbnoambmhdxdwd.jpg'
p32
aS'22857192.thl_sunaanjcbzdvtvblsdy.jpg'
p33
aS'22856784.thl_sunaamsdyakblkfoydx.jpg'
p34
aS'26373844.thl_sunaczwgyukesaajxnx.jpg'
p35
aS'26431205.thl_sunaooaqzputrowwbsw.jpg'
p36
aS'26419231.thl_sunagoufulkpsxrmklt.jpg'
p37
aS'26425573.thl_sunajoveqhiprwqgoco.jpg'
p38
asS'uncued_RT'
p39
(lp40
F0.32084178924560547
asS'cued_RT'
p41
(lp42
F0.8160610198974609
aF0.443544864654541
aF0.8536398410797119
aF0.5363430976867676
aF0.35880494117736816
aF0.571613073348999
aF0.5365428924560547
aF0.37513089179992676
aF0.36492204666137695
as.