(dp0
S'images'
p1
(lp2
S'26442719.thl.jpg'
p3
aS'23028486.thl.jpg'
p4
aS'26423175.thl.jpg'
p5
aS'sunabrwnslxalcohfre.jpg'
p6
aS'sunafgzgbisbopcyslr.jpg'
p7
aS'26384871.thl.jpg'
p8
aS'sunaaylzyqlqrsmfwif.jpg'
p9
aS'sunabizydfotqddlnjp.jpg'
p10
aS'22886412.thl.jpg'
p11
aS'sunaahwnmtqsrhocysw.jpg'
p12
aS'sunbbxkanhzjgbwyxqs.jpg'
p13
aS'22883664.thl.jpg'
p14
aS'sunabmytpyhsgigllxu.jpg'
p15
aS'sunahtfxgsrmkiulnwk.jpg'
p16
aS'26427906.thl.jpg'
p17
aS'sunbbhqyyzmsxhsbjmp.jpg'
p18
aS'26424133.thl.jpg'
p19
aS'26439504.thl.jpg'
p20
aS'26425323.thl.jpg'
p21
aS'26429123.thl.jpg'
p22
aS'sunbasypfgzjtomktmu.jpg'
p23
aS'sunaivdjruhkrfywfed.jpg'
p24
aS'sunaazzyhbvqjpmazjq.jpg'
p25
aS'sunaqsolmfydodnakub.jpg'
p26
aS'sunaajuzribjrizdshh.jpg'
p27
aS'26379161.thl.jpg'
p28
aS'sunbxarcshsnqsefemx.jpg'
p29
aS'26423465.thl.jpg'
p30
aS'26377601.thl.jpg'
p31
aS'sunaqyylsngywqzwfmx.jpg'
p32
aS'sunacvbrcejzwmcgnoq.jpg'
p33
aS'26461413.thl.jpg'
p34
aS'26440261.thl.jpg'
p35
aS'26375896.thl.jpg'
p36
aS'23026459.thl.jpg'
p37
aS'23044458.thl.jpg'
p38
aS'sunajawzbrlrwafowen.jpg'
p39
aS'22911908.thl.jpg'
p40
aS'sunahctntqrunhdxhtb.jpg'
p41
aS'sunadsgmtznewzyasnk.jpg'
p42
asS'ratings'
p43
(lp44
(lp45
(NF0.0
tp46
a(I1
F1.276
tp47
aa(lp48
(NF0.0
tp49
a(I3
F1.246
tp50
aa(lp51
(NF0.0
tp52
a(I4
F1.078
tp53
aa(lp54
(NF0.0
tp55
a(I3
F0.896
tp56
aa(lp57
(NF0.0
tp58
a(I2
F0.991
tp59
aa(lp60
(NF0.0
tp61
a(I3
F0.827
tp62
aa(lp63
(NF0.0
tp64
a(I4
F1.379
tp65
aa(lp66
(NF0.0
tp67
a(I2
F1.228
tp68
aa(lp69
(NF0.0
tp70
a(I2
F1.199
tp71
aa(lp72
(NF0.0
tp73
a(I4
F0.913
tp74
aa(lp75
(NF0.0
tp76
a(I3
F0.913
tp77
aa(lp78
(NF0.0
tp79
a(I2
F1.184
tp80
aa(lp81
(NF0.0
tp82
a(I2
F1.412
tp83
aa(lp84
(NF0.0
tp85
a(I2
F1.23
tp86
aa(lp87
(NF0.0
tp88
a(I2
F1.695
tp89
aa(lp90
(NF0.0
tp91
a(I2
F1.209
tp92
aa(lp93
(NF0.0
tp94
a(I2
F0.711
tp95
aa(lp96
(NF0.0
tp97
a(I2
F1.129
tp98
aa(lp99
(NF0.0
tp100
a(I2
F0.93
tp101
aa(lp102
(NF0.0
tp103
a(I2
F1.063
tp104
aa(lp105
(NF0.0
tp106
a(I1
F1.829
tp107
aa(lp108
(NF0.0
tp109
a(I4
F1.445
tp110
aa(lp111
(NF0.0
tp112
a(I3
F1.028
tp113
aa(lp114
(NF0.0
tp115
a(I1
F1.827
tp116
aa(lp117
(NF0.0
tp118
aa(lp119
(NF0.0
tp120
a(I2
F0.963
tp121
aa(lp122
(NF0.0
tp123
a(I1
F0.945
tp124
aa(lp125
(NF0.0
tp126
a(I1
F1.03
tp127
aa(lp128
(NF0.0
tp129
a(I1
F0.828
tp130
aa(lp131
(NF0.0
tp132
a(I1
F1.062
tp133
aa(lp134
(NF0.0
tp135
a(I1
F1.512
tp136
aa(lp137
(NF0.0
tp138
a(I1
F1.328
tp139
aa(lp140
(NF0.0
tp141
a(I1
F0.645
tp142
aa(lp143
(NF0.0
tp144
a(I4
F1.078
tp145
aa(lp146
(NF0.0
tp147
a(I4
F0.928
tp148
aa(lp149
(NF0.0
tp150
a(I3
F0.812
tp151
aa(lp152
(NF0.0
tp153
a(I1
F0.93
tp154
aa(lp155
(NF0.0
tp156
a(I3
F0.895
tp157
aa(lp158
(NF0.0
tp159
a(I3
F1.13
tp160
aa(lp161
(NF0.0
tp162
a(I3
F1.13
tp163
aasS'run_time'
p164
F122.42579102516174
sS'total_iters'
p165
(lp166
I0
aI1
aI2
aI3
aI4
aI5
aI6
aI7
aI8
aI9
aI10
aI11
aI12
aI13
aI14
aI15
aI16
aI17
aI18
aI19
aI20
aI21
aI22
aI23
aI24
aI25
aI26
aI27
aI28
aI29
aI30
aI31
aI32
aI33
aI34
aI35
aI36
aI37
aI38
aI39
as.