(dp0
S'cue_tuples'
p1
(lp2
(S'cue_L'
p3
S'F'
p4
I0
tp5
a(g3
g4
I0
tp6
a(g3
g4
I0
tp7
a(g3
g4
I0
tp8
a(g3
g4
I0
tp9
a(g3
g4
I0
tp10
a(g3
g4
I0
tp11
a(g3
g4
I0
tp12
a(g3
g4
I0
tp13
a(g3
g4
I0
tp14
asS'uncued'
p15
(lp16
S'22911908.thl_sunabanoxjtqxamkucc.jpg'
p17
aS'26429123.thl_sunanwjjyqqwzqrqagd.jpg'
p18
aS'26375641.thl_sunadsgmtznewzyasnk.jpg'
p19
aS'26440261.thl_sunbbhqyyzmsxhsbjmp.jpg'
p20
aS'26428041.thl_sunaloffvbvysigxent.jpg'
p21
aS'26439898.thl_sunbasypfgzjtomktmu.jpg'
p22
aS'23026459.thl_sunabppokiyglaxpcha.jpg'
p23
aS'26432899.thl_sunaqyylsngywqzwfmx.jpg'
p24
aS'22883664.thl_sunaavchcbptaerhcfy.jpg'
p25
aS'26372669.thl_sunacvbrcejzwmcgnoq.jpg'
p26
asS'cued'
p27
(lp28
S'26419670.thl_sunagpancjmxqfazssf.jpg'
p29
aS'23044458.thl_sunabrwnslxalcohfre.jpg'
p30
aS'26423175.thl_sunahpblecxtmuzkmxb.jpg'
p31
aS'26375896.thl_sunaduslxfzlbxlllnz.jpg'
p32
aS'26379161.thl_sunaetydippjxikifsb.jpg'
p33
aS'26432760.thl_sunaqsolmfydodnakub.jpg'
p34
aS'26423465.thl_sunahtfxgsrmkiulnwk.jpg'
p35
aS'26437077.thl_sunawotxrevnqvamsfp.jpg'
p36
aS'22849344.thl_sunaajuzribjrizdshh.jpg'
p37
aS'26421583.thl_sunahctntqrunhdxhtb.jpg'
p38
asS'uncued_RT'
p39
(lp40
sS'cued_RT'
p41
(lp42
F0.591994047164917
aF0.3720428943634033
aF0.37683796882629395
aF0.34151220321655273
aF0.5972139835357666
aF0.36793994903564453
aF0.5566489696502686
aF0.5144228935241699
aF0.3122689723968506
aF0.37807416915893555
as.