(dp0
S'images'
p1
(lp2
S'23048010.thl.jpg'
p3
aS'26463767.thl.jpg'
p4
aS'sunagjeesomrwjsfqie.jpg'
p5
aS'sunahuynahneraqftyz.jpg'
p6
aS'22855404.thl.jpg'
p7
aS'sunacvzhvcksnwqcqbw.jpg'
p8
aS'sunaapllqyqlykszopd.jpg'
p9
aS'26423477.thl.jpg'
p10
aS'sunadcphrizvfpljiqt.jpg'
p11
aS'26374146.thl.jpg'
p12
aS'sunaauhozyxzeeqstxi.jpg'
p13
aS'26437028.thl.jpg'
p14
aS'sunbgklxeqjhdbyfhhy.jpg'
p15
aS'26418799.thl.jpg'
p16
aS'sunapileznnbbmrwoei.jpg'
p17
aS'26432755.thl.jpg'
p18
aS'26425322.thl.jpg'
p19
aS'26429097.thl.jpg'
p20
aS'sunabckqabszusgcykj.jpg'
p21
aS'sunaanlwnpqndclffxt.jpg'
p22
aS'26420956.thl.jpg'
p23
aS'sunapqwnqzxlsfvgsjm.jpg'
p24
aS'26375982.thl.jpg'
p25
aS'26374158.thl.jpg'
p26
aS'26372465.thl.jpg'
p27
aS'26428110.thl.jpg'
p28
aS'sunbesrwkdsffeogeqq.jpg'
p29
aS'sunaapfaivxqoynnwwp.jpg'
p30
aS'26282693.thl.jpg'
p31
aS'26427609.thl.jpg'
p32
aS'sunbdycacjfaujxitbw.jpg'
p33
aS'26423303.thl.jpg'
p34
aS'sunagmwxxwymwojbvgi.jpg'
p35
aS'sunaobtizabegtwfwul.jpg'
p36
aS'sunabqowuarvqqcnipn.jpg'
p37
aS'sunaangbuylfvckqqoo.jpg'
p38
aS'sunacuatpqpqhyjhjqk.jpg'
p39
aS'26419025.thl.jpg'
p40
aS'26421106.thl.jpg'
p41
aS'sunavxokzybtomhbmvm.jpg'
p42
asS'ratings'
p43
(lp44
(lp45
(NF0.0
tp46
a(I3
F1.179
tp47
aa(lp48
(NF0.0
tp49
a(I4
F1.279
tp50
aa(lp51
(NF0.0
tp52
a(I3
F0.927
tp53
aa(lp54
(NF0.0
tp55
a(I2
F0.997
tp56
aa(lp57
(NF0.0
tp58
a(I2
F1.23
tp59
aa(lp60
(NF0.0
tp61
a(I3
F0.846
tp62
aa(lp63
(NF0.0
tp64
a(I3
F1.18
tp65
aa(lp66
(NF0.0
tp67
a(I2
F0.945
tp68
aa(lp69
(NF0.0
tp70
a(I2
F1.563
tp71
aa(lp72
(NF0.0
tp73
a(I1
F1.078
tp74
aa(lp75
(NF0.0
tp76
a(I1
F1.14
tp77
aa(lp78
(NF0.0
tp79
a(I2
F0.813
tp80
aa(lp81
(NF0.0
tp82
a(I2
F0.944
tp83
aa(lp84
(NF0.0
tp85
a(I2
F1.129
tp86
aa(lp87
(NF0.0
tp88
a(I2
F0.745
tp89
aa(lp90
(NF0.0
tp91
a(I2
F0.812
tp92
aa(lp93
(NF0.0
tp94
a(I1
F0.712
tp95
aa(lp96
(NF0.0
tp97
a(I3
F0.862
tp98
aa(lp99
(NF0.0
tp100
a(I3
F0.847
tp101
aa(lp102
(NF0.0
tp103
a(I3
F0.68
tp104
aa(lp105
(NF0.0
tp106
a(I3
F1.129
tp107
aa(lp108
(NF0.0
tp109
a(I3
F1.046
tp110
aa(lp111
(NF0.0
tp112
a(I3
F0.694
tp113
aa(lp114
(NF0.0
tp115
a(I3
F1.127
tp116
aa(lp117
(NF0.0
tp118
a(I3
F0.744
tp119
aa(lp120
(NF0.0
tp121
a(I3
F0.863
tp122
aa(lp123
(NF0.0
tp124
a(I3
F0.81
tp125
aa(lp126
(NF0.0
tp127
a(I3
F0.472
tp128
aa(lp129
(NF0.0
tp130
a(I2
F1.129
tp131
aa(lp132
(NF0.0
tp133
a(I2
F0.829
tp134
aa(lp135
(NF0.0
tp136
a(I2
F0.812
tp137
aa(lp138
(NF0.0
tp139
a(I2
F1.045
tp140
aa(lp141
(NF0.0
tp142
a(I2
F0.896
tp143
aa(lp144
(NF0.0
tp145
aa(lp146
(NF0.0
tp147
a(I3
F0.713
tp148
aa(lp149
(NF0.0
tp150
a(I3
F1.095
tp151
aa(lp152
(NF0.0
tp153
a(I3
F0.545
tp154
aa(lp155
(NF0.0
tp156
a(I3
F0.572
tp157
aa(lp158
(NF0.0
tp159
a(I3
F0.646
tp160
aa(lp161
(NF0.0
tp162
a(I3
F0.563
tp163
aasS'run_time'
p164
F122.37647414207458
sS'total_iters'
p165
(lp166
I0
aI1
aI2
aI3
aI4
aI5
aI6
aI7
aI8
aI9
aI10
aI11
aI12
aI13
aI14
aI15
aI16
aI17
aI18
aI19
aI20
aI21
aI22
aI23
aI24
aI25
aI26
aI27
aI28
aI29
aI30
aI31
aI32
aI33
aI34
aI35
aI36
aI37
aI38
aI39
as.