(dp0
S'cue_tuples'
p1
(lp2
(S'cue_L'
p3
S'L'
p4
I0
tp5
a(g3
g4
I0
tp6
a(g3
g4
I0
tp7
a(g3
g4
I1
tp8
a(g3
g4
I0
tp9
a(g3
g4
I0
tp10
a(g3
g4
I0
tp11
a(g3
g4
I0
tp12
a(g3
g4
I0
tp13
a(g3
g4
I0
tp14
asS'uncued'
p15
(lp16
S'26379647.thl_sunaezuszgtxnmsxdbk.jpg'
p17
aS'22859028.thl_sunaapfaivxqoynnwwp.jpg'
p18
aS'26418799.thl_sunagmhildamktmqjss.jpg'
p19
aS'22855404.thl_sunaalhlvzmjmitybdn.jpg'
p20
aS'26441176.thl_sunbesrwkdsffeogeqq.jpg'
p21
aS'26427609.thl_sunakmnfgklupjijsgf.jpg'
p22
aS'26432109.thl_sunapqwnqzxlsfvgsjm.jpg'
p23
aS'26423303.thl_sunahrltmuwbiehihpe.jpg'
p24
aS'26440756.thl_sunbdycacjfaujxitbw.jpg'
p25
aS'26423477.thl_sunahuynahneraqftyz.jpg'
p26
asS'cued'
p27
(lp28
S'26372465.thl_sunacuatpqpqhyjhjqk.jpg'
p29
aS'26374146.thl_sunadcphrizvfpljiqt.jpg'
p30
aS'23048010.thl_sunabtlfmiwtljmoues.jpg'
p31
aS'26434546.thl_sunauburywlkjszngcq.jpg'
p32
aS'26429097.thl_sunantryfbloeaomfta.jpg'
p33
aS'26372785.thl_sunacvzhvcksnwqcqbw.jpg'
p34
aS'22859796.thl_sunaapllqyqlykszopd.jpg'
p35
aS'22826448.thl_sunaaheqzstzxuadglu.jpg'
p36
aS'26419025.thl_sunagmwxxwymwojbvgi.jpg'
p37
aS'26391116.thl_sunagcinxkccdtrjmlv.jpg'
p38
asS'uncued_RT'
p39
(lp40
F0.3299570083618164
asS'cued_RT'
p41
(lp42
F0.3769969940185547
aF0.49326086044311523
aF0.34128880500793457
aF0.34369707107543945
aF0.31745100021362305
aF0.6773080825805664
aF0.4699430465698242
aF0.4228839874267578
aF0.4413020610809326
as.