(dp0
S'images'
p1
(lp2
S'sunbwtlihsuptkrckid.jpg'
p3
aS'26425112.thl.jpg'
p4
aS'sunabwfvcqqidycwypa.jpg'
p5
aS'26421740.thl.jpg'
p6
aS'sunacepzfrmtkiqonpy.jpg'
p7
aS'23025307.thl.jpg'
p8
aS'sunaamdjwemxpmmtypi.jpg'
p9
aS'26374346.thl.jpg'
p10
aS'26419025.thl.jpg'
p11
aS'22826832.thl.jpg'
p12
aS'sunasmmcxdddtmtazwx.jpg'
p13
aS'sunaizgnnplsvajzhkc.jpg'
p14
aS'26392651.thl.jpg'
p15
aS'sunahgtbwgsmtqeodwh.jpg'
p16
aS'sunaetydippjxikifsb.jpg'
p17
aS'sunbagfpovqwbuexqdn.jpg'
p18
aS'sunabmytpyhsgigllxu.jpg'
p19
aS'sunagjzcrjvmxzqzljx.jpg'
p20
aS'26465824.thl.jpg'
p21
aS'26431414.thl.jpg'
p22
aS'sunajtrfunvzdfticna.jpg'
p23
aS'sunaqgjuuwvdcyiccjt.jpg'
p24
aS'sunaisiwfgppimtnmxl.jpg'
p25
aS'sunadzuvtmtmgupotmf.jpg'
p26
aS'26440629.thl.jpg'
p27
aS'26379161.thl.jpg'
p28
aS'26374731.thl.jpg'
p29
aS'26420979.thl.jpg'
p30
aS'22849260.thl.jpg'
p31
aS'26457349.thl.jpg'
p32
aS'26439504.thl.jpg'
p33
aS'sunadbdqzigzwipuipr.jpg'
p34
aS'26375953.thl.jpg'
p35
aS'26372669.thl.jpg'
p36
aS'sunagcinxkccdtrjmlv.jpg'
p37
aS'sunagmhildamktmqjss.jpg'
p38
aS'22851864.thl.jpg'
p39
aS'26439913.thl.jpg'
p40
aS'sunadfktsqjthoglcsm.jpg'
p41
aS'sunapqwnqzxlsfvgsjm.jpg'
p42
asS'ratings'
p43
(lp44
(lp45
(NF0.0
tp46
a(I2
F1.068
tp47
aa(lp48
(NF0.0
tp49
aa(lp50
(NF0.0
tp51
a(I2
F0.98
tp52
aa(lp53
(NF0.0
tp54
a(I2
F0.761
tp55
aa(lp56
(NF0.0
tp57
a(I3
F0.562
tp58
aa(lp59
(NF0.0
tp60
a(I1
F1.179
tp61
aa(lp62
(NF0.0
tp63
a(I3
F1.213
tp64
aa(lp65
(NF0.0
tp66
aa(lp67
(NF0.0
tp68
a(I1
F0.647
tp69
aa(lp70
(NF0.0
tp71
a(I1
F0.929
tp72
aa(lp73
(NF0.0
tp74
a(I4
F1.176
tp75
aa(lp76
(NF0.0
tp77
a(I4
F1.048
tp78
aa(lp79
(NF0.0
tp80
a(I1
F0.846
tp81
aa(lp82
(NF0.0
tp83
a(I3
F1.093
tp84
aa(lp85
(NF0.0
tp86
a(I2
F0.979
tp87
aa(lp88
(NF0.0
tp89
a(I2
F0.811
tp90
aa(lp91
(NF0.0
tp92
a(I1
F0.528
tp93
aa(lp94
(NF0.0
tp95
a(I2
F0.579
tp96
aa(lp97
(NF0.0
tp98
a(I1
F0.746
tp99
aa(lp100
(NF0.0
tp101
a(I2
F0.413
tp102
aa(lp103
(NF0.0
tp104
a(I2
F0.429
tp105
aa(lp106
(NF0.0
tp107
a(I3
F0.561
tp108
aa(lp109
(NF0.0
tp110
a(I3
F0.829
tp111
aa(lp112
(NF0.0
tp113
a(I4
F1.478
tp114
aa(lp115
(NF0.0
tp116
a(I1
F0.948
tp117
aa(lp118
(NF0.0
tp119
a(I2
F0.762
tp120
aa(lp121
(NF0.0
tp122
a(I2
F0.628
tp123
aa(lp124
(NF0.0
tp125
a(I2
F0.912
tp126
aa(lp127
(NF0.0
tp128
a(I3
F0.678
tp129
aa(lp130
(NF0.0
tp131
a(I2
F0.581
tp132
aa(lp133
(NF0.0
tp134
a(I3
F0.98
tp135
aa(lp136
(NF0.0
tp137
a(I1
F0.678
tp138
aa(lp139
(NF0.0
tp140
a(I2
F1.329
tp141
aa(lp142
(NF0.0
tp143
a(I4
F1.479
tp144
aa(lp145
(NF0.0
tp146
a(I4
F0.678
tp147
aa(lp148
(NF0.0
tp149
a(I4
F0.712
tp150
aa(lp151
(NF0.0
tp152
a(I4
F1.262
tp153
aa(lp154
(NF0.0
tp155
a(I2
F1.211
tp156
aa(lp157
(NF0.0
tp158
a(I3
F0.712
tp159
aa(lp160
(NF0.0
tp161
a(I4
F1.246
tp162
aasS'run_time'
p163
F122.32520008087158
sS'total_iters'
p164
(lp165
I0
aI1
aI2
aI3
aI4
aI5
aI6
aI7
aI8
aI9
aI10
aI11
aI12
aI13
aI14
aI15
aI16
aI17
aI18
aI19
aI20
aI21
aI22
aI23
aI24
aI25
aI26
aI27
aI28
aI29
aI30
aI31
aI32
aI33
aI34
aI35
aI36
aI37
aI38
aI39
as.