(dp0
S'cue_tuples'
p1
(lp2
(S'cue_R'
p3
S'L'
p4
I0
tp5
a(g3
g4
I0
tp6
a(g3
g4
I0
tp7
a(g3
g4
I0
tp8
a(g3
g4
I0
tp9
a(g3
g4
I0
tp10
a(g3
g4
I0
tp11
a(g3
g4
I0
tp12
a(g3
g4
I1
tp13
a(g3
g4
I0
tp14
asS'uncued'
p15
(lp16
S'26465824.thl_sundbixjudsgeuuehrn.jpg'
p17
aS'26391116.thl_sunagcinxkccdtrjmlv.jpg'
p18
aS'26374346.thl_sunadfktsqjthoglcsm.jpg'
p19
aS'23024623.thl_sunabmbnddafmywtjjj.jpg'
p20
aS'26392651.thl_sunagfvluwixdsozaql.jpg'
p21
aS'26375641.thl_sunadsgmtznewzyasnk.jpg'
p22
aS'26439297.thl_sunbagfpovqwbuexqdn.jpg'
p23
aS'26372669.thl_sunacvbrcejzwmcgnoq.jpg'
p24
aS'26425112.thl_sunaizgnnplsvajzhkc.jpg'
p25
aS'26432755.thl_sunaqgjuuwvdcyiccjt.jpg'
p26
asS'cued'
p27
(lp28
S'23025307.thl_sunabmytpyhsgigllxu.jpg'
p29
aS'22849260.thl_sunaajspcoepticvplv.jpg'
p30
aS'26460317.thl_sunbwtlihsuptkrckid.jpg'
p31
aS'26423242.thl_sunahqldjibofgsfdgb.jpg'
p32
aS'26375953.thl_sunadzuvtmtmgupotmf.jpg'
p33
aS'26421536.thl_sunagwswhkvnsmuszlz.jpg'
p34
aS'26426417.thl_sunajtrfunvzdfticna.jpg'
p35
aS'26374146.thl_sunadcphrizvfpljiqt.jpg'
p36
aS'26374731.thl_sunadkazmlajmohnwfl.jpg'
p37
aS'26379161.thl_sunaetydippjxikifsb.jpg'
p38
asS'uncued_RT'
p39
(lp40
F0.33875107765197754
asS'cued_RT'
p41
(lp42
F0.5126779079437256
aF0.6233208179473877
aF0.36042094230651855
aF0.38212108612060547
aF0.4096639156341553
aF0.3802800178527832
aF0.3923170566558838
aF0.3160440921783447
aF0.35047101974487305
as.