(dp0
S'images'
p1
(lp2
S'26374166.thl.jpg'
p3
aS'sunacjkmnpawfzbyvae.jpg'
p4
aS'sunagountlxpzkytsmp.jpg'
p5
aS'sunabohxbskznglnrhv.jpg'
p6
aS'26440073.thl.jpg'
p7
aS'26429097.thl.jpg'
p8
aS'22826448.thl.jpg'
p9
aS'26386846.thl.jpg'
p10
aS'22849344.thl.jpg'
p11
aS'26427950.thl.jpg'
p12
aS'sunasbbntuiheekqyaq.jpg'
p13
aS'26427609.thl.jpg'
p14
aS'23025535.thl.jpg'
p15
aS'sunaydywdmvlfddbxbk.jpg'
p16
aS'sunaiwduelojtwaqeyh.jpg'
p17
aS'sunakwlvxjpddialozd.jpg'
p18
aS'sunarceibpcyacbmfga.jpg'
p19
aS'sunantryfbloeaomfta.jpg'
p20
aS'26422598.thl.jpg'
p21
aS'sunaakgekhjklxmvulj.jpg'
p22
aS'26387436.thl.jpg'
p23
aS'sunahbvlpavurqoxdeq.jpg'
p24
aS'sunaapllqyqlykszopd.jpg'
p25
aS'sunaahwnmtqsrhocysw.jpg'
p26
aS'26418799.thl.jpg'
p27
aS'sunaeouogqolxvggaoq.jpg'
p28
aS'26433686.thl.jpg'
p29
aS'26379054.thl.jpg'
p30
aS'sunaeisnjeetzmkbuad.jpg'
p31
aS'sunanwjjyqqwzqrqagd.jpg'
p32
aS'26424087.thl.jpg'
p33
aS'sunakmnfgklupjijsgf.jpg'
p34
aS'26372404.thl.jpg'
p35
aS'sunaajuzribjrizdshh.jpg'
p36
aS'26463767.thl.jpg'
p37
aS'sunagmwxxwymwojbvgi.jpg'
p38
aS'26428110.thl.jpg'
p39
aS'26422507.thl.jpg'
p40
aS'sunalkiibhqpxfamlll.jpg'
p41
aS'26442809.thl.jpg'
p42
asS'ratings'
p43
(lp44
(lp45
(NF0.0
tp46
a(I2
F1.4
tp47
aa(lp48
(NF0.0
tp49
a(I3
F0.713
tp50
aa(lp51
(NF0.0
tp52
a(I3
F0.828
tp53
aa(lp54
(NF0.0
tp55
a(I4
F0.731
tp56
aa(lp57
(NF0.0
tp58
a(I4
F1.296
tp59
aa(lp60
(NF0.0
tp61
a(I3
F0.579
tp62
aa(lp63
(NF0.0
tp64
a(I2
F1.08
tp65
aa(lp66
(NF0.0
tp67
a(I1
F1.195
tp68
aa(lp69
(NF0.0
tp70
a(I4
F1.013
tp71
aa(lp72
(NF0.0
tp73
a(I3
F0.794
tp74
aa(lp75
(NF0.0
tp76
a(I2
F0.645
tp77
aa(lp78
(NF0.0
tp79
a(I4
F0.797
tp80
aa(lp81
(NF0.0
tp82
a(I4
F1.229
tp83
aa(lp84
(NF0.0
tp85
a(I3
F0.579
tp86
aa(lp87
(NF0.0
tp88
a(I4
F0.746
tp89
aa(lp90
(NF0.0
tp91
a(I3
F0.596
tp92
aa(lp93
(NF0.0
tp94
a(I4
F1.054
tp95
aa(lp96
(NF0.0
tp97
a(I4
F1.198
tp98
aa(lp99
(NF0.0
tp100
a(I4
F0.895
tp101
aa(lp102
(NF0.0
tp103
a(I3
F0.846
tp104
aa(lp105
(NF0.0
tp106
a(I2
F0.974
tp107
aa(lp108
(NF0.0
tp109
a(I4
F0.713
tp110
aa(lp111
(NF0.0
tp112
a(I3
F1.131
tp113
aa(lp114
(NF0.0
tp115
a(I3
F1.663
tp116
aa(lp117
(NF0.0
tp118
a(I4
F0.948
tp119
aa(lp120
(NF0.0
tp121
a(I3
F1.003
tp122
aa(lp123
(NF0.0
tp124
a(I4
F0.878
tp125
aa(lp126
(NF0.0
tp127
a(I3
F0.596
tp128
aa(lp129
(NF0.0
tp130
a(I4
F0.678
tp131
aa(lp132
(NF0.0
tp133
a(I3
F0.813
tp134
aa(lp135
(NF0.0
tp136
a(I3
F1.194
tp137
aa(lp138
(NF0.0
tp139
a(I3
F1.11
tp140
aa(lp141
(NF0.0
tp142
a(I2
F1.631
tp143
aa(lp144
(NF0.0
tp145
a(I4
F0.746
tp146
aa(lp147
(NF0.0
tp148
a(I2
F0.947
tp149
aa(lp150
(NF0.0
tp151
a(I4
F0.71
tp152
aa(lp153
(NF0.0
tp154
a(I2
F0.814
tp155
aa(lp156
(NF0.0
tp157
a(I4
F0.777
tp158
aa(lp159
(NF0.0
tp160
a(I2
F0.729
tp161
aa(lp162
(NF0.0
tp163
a(I3
F1.843
tp164
aasS'run_time'
p165
F122.37759613990784
sS'total_iters'
p166
(lp167
I0
aI1
aI2
aI3
aI4
aI5
aI6
aI7
aI8
aI9
aI10
aI11
aI12
aI13
aI14
aI15
aI16
aI17
aI18
aI19
aI20
aI21
aI22
aI23
aI24
aI25
aI26
aI27
aI28
aI29
aI30
aI31
aI32
aI33
aI34
aI35
aI36
aI37
aI38
aI39
as.