(dp0
S'cue_tuples'
p1
(lp2
(S'cue_R'
p3
S'F'
p4
I1
tp5
a(g3
g4
I0
tp6
a(g3
g4
I0
tp7
a(g3
g4
I0
tp8
a(g3
g4
I0
tp9
a(g3
g4
I0
tp10
a(g3
g4
I0
tp11
a(g3
g4
I0
tp12
a(g3
g4
I0
tp13
a(g3
g4
I0
tp14
asS'uncued'
p15
(lp16
S'26420830.thl_sunagsiwrmuixqgdimb.jpg'
p17
aS'26374709.thl_sunadfndyrtqqiasoig.jpg'
p18
aS'26429130.thl_sunaobtizabegtwfwul.jpg'
p19
aS'26440756.thl_sunbdycacjfaujxitbw.jpg'
p20
aS'26377777.thl_sunaemcowdozyphwknd.jpg'
p21
aS'26426803.thl_sunajxpkuhbizeveguy.jpg'
p22
aS'22896812.thl_sunaawqdbpihmlbwyyn.jpg'
p23
aS'26391079.thl_sunafxokyavhgptyfye.jpg'
p24
aS'26375982.thl_sunaecpkgfewqqreqwe.jpg'
p25
aS'26424133.thl_sunaivdjruhkrfywfed.jpg'
p26
asS'cued'
p27
(lp28
S'22903148.thl_sunaawsdjisukbbginm.jpg'
p29
aS'26432217.thl_sunapwjkcxdaeqehfql.jpg'
p30
aS'26369999.thl_sunacdnquypmsshhsbk.jpg'
p31
aS'26425322.thl_sunajawzbrlrwafowen.jpg'
p32
aS'23014831.thl_sunabjzyxcjnmztdonj.jpg'
p33
aS'26428041.thl_sunaloffvbvysigxent.jpg'
p34
aS'22923524.thl_sunabclssnoeuigtawp.jpg'
p35
aS'23041782.thl_sunabrlndkruqokhury.jpg'
p36
aS'26375702.thl_sunadtlxenqqxsyjvix.jpg'
p37
aS'22853352.thl_sunaakqepfoeqomfgxf.jpg'
p38
asS'uncued_RT'
p39
(lp40
F2.327432870864868
asS'cued_RT'
p41
(lp42
F0.7565250396728516
aF0.5274279117584229
aF0.35782289505004883
aF0.4343588352203369
aF0.3798050880432129
aF0.3682558536529541
aF0.35556602478027344
aF0.40761399269104004
aF0.5300431251525879
as.