(dp0
S'images'
p1
(lp2
S'26451168.thl.jpg'
p3
aS'sunaprnrbmgkomdbchr.jpg'
p4
aS'26423303.thl.jpg'
p5
aS'26441750.thl.jpg'
p6
aS'26378986.thl.jpg'
p7
aS'26421572.thl.jpg'
p8
aS'sunabrwnslxalcohfre.jpg'
p9
aS'sunaapxkpvrhpjplsok.jpg'
p10
aS'sunabkngeblodihjvbk.jpg'
p11
aS'sunathzzbcwjykldrem.jpg'
p12
aS'26423175.thl.jpg'
p13
aS'22875816.thl.jpg'
p14
aS'sunabeyhmxodahoieyk.jpg'
p15
aS'22870356.thl.jpg'
p16
aS'26440026.thl.jpg'
p17
aS'26424478.thl.jpg'
p18
aS'sunaduslxfzlbxlllnz.jpg'
p19
aS'sunaeoghzrjarigmwua.jpg'
p20
aS'26439898.thl.jpg'
p21
aS'22949719.thl.jpg'
p22
aS'sunabzjxlmkwnwzimua.jpg'
p23
aS'26420893.thl.jpg'
p24
aS'sunanaacmmosxrfwmvl.jpg'
p25
aS'sunaibnpvhkdpdnzcnz.jpg'
p26
aS'sunaathajvxrgptwhoj.jpg'
p27
aS'26434546.thl.jpg'
p28
aS'sunabckqabszusgcykj.jpg'
p29
aS'sunaavjinpnkappuonm.jpg'
p30
aS'26419231.thl.jpg'
p31
aS'sunahpblecxtmuzkmxb.jpg'
p32
aS'26282693.thl.jpg'
p33
aS'26425025.thl.jpg'
p34
aS'sunaiwfobocrruqznsv.jpg'
p35
aS'22925624.thl.jpg'
p36
aS'sunabbafjowbzcvbucc.jpg'
p37
aS'sunbfzchmomnvzhbxdg.jpg'
p38
aS'sunbgklxeqjhdbyfhhy.jpg'
p39
aS'suncnkvbhypnivcohyx.jpg'
p40
aS'26432173.thl.jpg'
p41
aS'26384871.thl.jpg'
p42
asS'ratings'
p43
(lp44
(lp45
(NF0.0
tp46
a(I3
F1.731
tp47
aa(lp48
(NF0.0
tp49
a(I4
F0.839
tp50
aa(lp51
(NF0.0
tp52
a(I1
F1.079
tp53
aa(lp54
(NF0.0
tp55
a(I4
F0.979
tp56
aa(lp57
(NF0.0
tp58
a(I2
F1.079
tp59
aa(lp60
(NF0.0
tp61
a(I2
F0.996
tp62
aa(lp63
(NF0.0
tp64
a(I4
F0.679
tp65
aa(lp66
(NF0.0
tp67
a(I3
F0.479
tp68
aa(lp69
(NF0.0
tp70
a(I3
F0.463
tp71
aa(lp72
(NF0.0
tp73
a(I2
F0.478
tp74
aa(lp75
(NF0.0
tp76
a(I1
F1.213
tp77
aa(lp78
(NF0.0
tp79
a(I2
F0.931
tp80
aa(lp81
(NF0.0
tp82
a(I3
F0.795
tp83
aa(lp84
(NF0.0
tp85
a(I2
F1.094
tp86
aa(lp87
(NF0.0
tp88
a(I3
F0.627
tp89
aa(lp90
(NF0.0
tp91
a(I3
F0.827
tp92
aa(lp93
(NF0.0
tp94
a(I1
F1.095
tp95
aa(lp96
(NF0.0
tp97
a(I2
F1.045
tp98
aa(lp99
(NF0.0
tp100
a(I2
F1.045
tp101
aa(lp102
(NF0.0
tp103
a(I2
F1.364
tp104
aa(lp105
(NF0.0
tp106
a(I2
F1.295
tp107
aa(lp108
(NF0.0
tp109
a(I2
F1.264
tp110
aa(lp111
(NF0.0
tp112
a(I3
F1.352
tp113
aa(lp114
(NF0.0
tp115
a(I3
F1.664
tp116
aa(lp117
(NF0.0
tp118
a(I1
F1.045
tp119
aa(lp120
(NF0.0
tp121
a(I2
F1.19
tp122
aa(lp123
(NF0.0
tp124
a(I2
F1.513
tp125
aa(lp126
(NF0.0
tp127
aa(lp128
(NF0.0
tp129
a(I2
F0.797
tp130
aa(lp131
(NF0.0
tp132
a(I2
F0.837
tp133
aa(lp134
(NF0.0
tp135
a(I1
F0.778
tp136
aa(lp137
(NF0.0
tp138
a(I2
F0.729
tp139
aa(lp140
(NF0.0
tp141
a(I1
F0.63
tp142
aa(lp143
(NF0.0
tp144
a(I3
F1.118
tp145
aa(lp146
(NF0.0
tp147
a(I3
F0.716
tp148
aa(lp149
(NF0.0
tp150
a(I3
F0.463
tp151
aa(lp152
(NF0.0
tp153
a(I3
F0.646
tp154
aa(lp155
(NF0.0
tp156
a(I2
F1.514
tp157
aa(lp158
(NF0.0
tp159
a(I4
F1.279
tp160
aa(lp161
(NF0.0
tp162
a(I2
F1.479
tp163
aasS'run_time'
p164
F122.52670693397522
sS'total_iters'
p165
(lp166
I0
aI1
aI2
aI3
aI4
aI5
aI6
aI7
aI8
aI9
aI10
aI11
aI12
aI13
aI14
aI15
aI16
aI17
aI18
aI19
aI20
aI21
aI22
aI23
aI24
aI25
aI26
aI27
aI28
aI29
aI30
aI31
aI32
aI33
aI34
aI35
aI36
aI37
aI38
aI39
as.