(lp0
S'A little boring'
p1
aS'Neutral'
p2
accopy_reg
_reconstructor
p3
(cfuture.types.newstr
newstr
p4
c__builtin__
unicode
p5
VNot really
p6
tp7
Rp8
ag3
(g4
g5
Vboth equal
p9
tp10
Rp11
ag3
(g4
g5
Vremember general shape and color
p12
tp13
Rp14
a.