(lp0
ccopy_reg
_reconstructor
p1
(cfuture.types.newstr
newstr
p2
c__builtin__
unicode
p3
V19
p4
tp5
Rp6
aS'Female'
p7
aS'No'
p8
aI01
aI00
aI00
aI00
aI00
aI00
aI00
aS'high school graduate'
p9
ag8
ag8
aS'Yes'
p10
ag1
(g2
g3
Vrecently hit my head very hard
p11
tp12
Rp13
ag1
(g2
g3
V6
p14
tp15
Rp16
ag1
(g2
g3
V0
p17
tp18
Rp19
aS'A little slugglish'
p20
a.