(dp0
S'images'
p1
(lp2
S'33.jpg'
p3
aS'113.jpg'
p4
aS'175.jpg'
p5
aS'216.jpg'
p6
aS'345.jpg'
p7
aS'126.jpg'
p8
aS'130.jpg'
p9
aS'297.jpg'
p10
aS'122.jpg'
p11
aS'43.jpg'
p12
aS'301.jpg'
p13
aS'243.jpg'
p14
aS'197.jpg'
p15
aS'129.jpg'
p16
aS'327.jpg'
p17
aS'214.jpg'
p18
asS'ratings'
p19
(lp20
(lp21
(NF0.0
tp22
a(I3
F0.838
tp23
aa(lp24
(NF0.0
tp25
a(I4
F0.542
tp26
aa(lp27
(NF0.0
tp28
a(I2
F0.675
tp29
aa(lp30
(NF0.0
tp31
a(I1
F0.593
tp32
aa(lp33
(NF0.0
tp34
a(I3
F0.591
tp35
aa(lp36
(NF0.0
tp37
a(I1
F0.524
tp38
aa(lp39
(NF0.0
tp40
a(I4
F0.505
tp41
aa(lp42
(NF0.0
tp43
a(I4
F0.493
tp44
aa(lp45
(NF0.0
tp46
a(I3
F0.326
tp47
aa(lp48
(NF0.0
tp49
a(I4
F0.34
tp50
aa(lp51
(NF0.0
tp52
a(I2
F0.374
tp53
aa(lp54
(NF0.0
tp55
a(I1
F0.475
tp56
aa(lp57
(NF0.0
tp58
a(I4
F0.309
tp59
aa(lp60
(NF0.0
tp61
a(I1
F0.408
tp62
aa(lp63
(NF0.0
tp64
a(I3
F0.457
tp65
aa(lp66
(NF0.0
tp67
a(I1
F0.499
tp68
aasS'run_time'
p69
F48.52497601509094
sS'total_iters'
p70
(lp71
I0
aI1
aI2
aI3
aI4
aI5
aI6
aI7
aI8
aI9
aI10
aI11
aI12
aI13
aI14
aI15
as.