(dp0
S'images'
p1
(lp2
S'122.jpg'
p3
aS'292.jpg'
p4
aS'47.jpg'
p5
aS'111.jpg'
p6
aS'18.jpg'
p7
aS'249.jpg'
p8
aS'297.jpg'
p9
aS'25.jpg'
p10
aS'197.jpg'
p11
aS'334.jpg'
p12
aS'255.jpg'
p13
aS'35.jpg'
p14
aS'233.jpg'
p15
aS'339.jpg'
p16
aS'156.jpg'
p17
aS'146.jpg'
p18
aS'311.jpg'
p19
aS'208.jpg'
p20
aS'145.jpg'
p21
aS'245.jpg'
p22
aS'39.jpg'
p23
aS'118.jpg'
p24
aS'110.jpg'
p25
aS'24.jpg'
p26
aS'43.jpg'
p27
aS'315.jpg'
p28
aS'326.jpg'
p29
aS'97.jpg'
p30
aS'323.jpg'
p31
aS'112.jpg'
p32
aS'274.jpg'
p33
aS'131.jpg'
p34
aS'221.jpg'
p35
aS'322.jpg'
p36
aS'360.jpg'
p37
aS'186.jpg'
p38
aS'149.jpg'
p39
aS'243.jpg'
p40
aS'103.jpg'
p41
aS'258.jpg'
p42
aS'135.jpg'
p43
aS'196.jpg'
p44
aS'160.jpg'
p45
aS'139.jpg'
p46
aS'195.jpg'
p47
aS'200.jpg'
p48
aS'350.jpg'
p49
aS'113.jpg'
p50
aS'33.jpg'
p51
aS'194.jpg'
p52
aS'32.jpg'
p53
aS'269.jpg'
p54
aS'78.jpg'
p55
aS'107.jpg'
p56
aS'327.jpg'
p57
aS'189.jpg'
p58
aS'152.jpg'
p59
aS'88.jpg'
p60
aS'62.jpg'
p61
aS'168.jpg'
p62
aS'355.jpg'
p63
aS'175.jpg'
p64
aS'75.jpg'
p65
aS'63.jpg'
p66
aS'276.jpg'
p67
aS'278.jpg'
p68
aS'163.jpg'
p69
aS'44.jpg'
p70
aS'191.jpg'
p71
aS'192.jpg'
p72
aS'37.jpg'
p73
aS'79.jpg'
p74
aS'300.jpg'
p75
aS'241.jpg'
p76
aS'30.jpg'
p77
aS'148.jpg'
p78
aS'85.jpg'
p79
aS'121.jpg'
p80
aS'312.jpg'
p81
aS'92.jpg'
p82
asS'ratings'
p83
(lp84
(lp85
(NF0.0
tp86
a(I1
F1.218
tp87
aa(lp88
(NF0.0
tp89
a(I1
F0.815
tp90
aa(lp91
(NF0.0
tp92
a(I1
F1.092
tp93
aa(lp94
(NF0.0
tp95
a(I3
F1.132
tp96
aa(lp97
(NF0.0
tp98
a(I3
F1.396
tp99
aa(lp100
(NF0.0
tp101
a(I1
F0.914
tp102
aa(lp103
(NF0.0
tp104
a(I1
F1.344
tp105
aa(lp106
(NF0.0
tp107
a(I3
F1.614
tp108
aa(lp109
(NF0.0
tp110
a(I2
F0.881
tp111
aa(lp112
(NF0.0
tp113
a(I3
F0.913
tp114
aa(lp115
(NF0.0
tp116
a(I1
F0.666
tp117
aa(lp118
(NF0.0
tp119
a(I2
F1.198
tp120
aa(lp121
(NF0.0
tp122
a(I3
F1.528
tp123
aa(lp124
(NF0.0
tp125
a(I1
F0.916
tp126
aa(lp127
(NF0.0
tp128
a(I1
F1.054
tp129
aa(lp130
(NF0.0
tp131
a(I1
F0.813
tp132
aa(lp133
(NF0.0
tp134
a(I1
F1.046
tp135
aa(lp136
(NF0.0
tp137
a(I2
F0.963
tp138
aa(lp139
(NF0.0
tp140
a(I1
F0.913
tp141
aa(lp142
(NF0.0
tp143
a(I3
F1.097
tp144
aa(lp145
(NF0.0
tp146
a(I4
F0.981
tp147
aa(lp148
(NF0.0
tp149
a(I1
F0.797
tp150
aa(lp151
(NF0.0
tp152
a(I3
F0.981
tp153
aa(lp154
(NF0.0
tp155
a(I3
F1.449
tp156
aa(lp157
(NF0.0
tp158
a(I3
F0.947
tp159
aa(lp160
(NF0.0
tp161
a(I1
F1.147
tp162
aa(lp163
(NF0.0
tp164
a(I4
F1.631
tp165
aa(lp166
(NF0.0
tp167
a(I3
F1.53
tp168
aa(lp169
(NF0.0
tp170
a(I1
F1.363
tp171
aa(lp172
(NF0.0
tp173
a(I4
F1.546
tp174
aa(lp175
(NF0.0
tp176
a(I1
F0.948
tp177
aa(lp178
(NF0.0
tp179
a(I1
F1.029
tp180
aa(lp181
(NF0.0
tp182
a(I2
F1.629
tp183
aa(lp184
(NF0.0
tp185
a(I4
F1.314
tp186
aa(lp187
(NF0.0
tp188
a(I1
F0.846
tp189
aa(lp190
(NF0.0
tp191
a(I3
F1.132
tp192
aa(lp193
(NF0.0
tp194
a(I1
F0.597
tp195
aa(lp196
(NF0.0
tp197
a(I1
F0.896
tp198
aa(lp199
(NF0.0
tp200
aa(lp201
(NF0.0
tp202
a(I1
F1.147
tp203
aa(lp204
(NF0.0
tp205
a(I2
F0.764
tp206
aa(lp207
(NF0.0
tp208
a(I1
F0.63
tp209
aa(lp210
(NF0.0
tp211
a(I2
F1.306
tp212
aa(lp213
(NF0.0
tp214
a(I1
F0.73
tp215
aa(lp216
(NF0.0
tp217
a(I1
F1.214
tp218
aa(lp219
(NF0.0
tp220
a(I1
F1.013
tp221
aa(lp222
(NF0.0
tp223
a(I3
F1.313
tp224
aa(lp225
(NF0.0
tp226
a(I1
F0.613
tp227
aa(lp228
(NF0.0
tp229
a(I3
F1.178
tp230
aa(lp231
(NF0.0
tp232
a(I1
F0.513
tp233
aa(lp234
(NF0.0
tp235
a(I1
F0.69
tp236
aa(lp237
(NF0.0
tp238
a(I1
F0.578
tp239
aa(lp240
(NF0.0
tp241
a(I1
F0.596
tp242
aa(lp243
(NF0.0
tp244
a(I1
F1.014
tp245
aa(lp246
(NF0.0
tp247
a(I2
F0.829
tp248
aa(lp249
(NF0.0
tp250
a(I1
F1.096
tp251
aa(lp252
(NF0.0
tp253
a(I2
F0.747
tp254
aa(lp255
(NF0.0
tp256
a(I1
F0.814
tp257
aa(lp258
(NF0.0
tp259
a(I1
F0.97
tp260
aa(lp261
(NF0.0
tp262
a(I1
F1.162
tp263
aa(lp264
(NF0.0
tp265
a(I3
F1.263
tp266
aa(lp267
(NF0.0
tp268
a(I1
F0.657
tp269
aa(lp270
(NF0.0
tp271
a(I4
F1.396
tp272
aa(lp273
(NF0.0
tp274
a(I3
F1.18
tp275
aa(lp276
(NF0.0
tp277
a(I3
F1.395
tp278
aa(lp279
(NF0.0
tp280
a(I1
F0.898
tp281
aa(lp282
(NF0.0
tp283
a(I1
F0.897
tp284
aa(lp285
(NF0.0
tp286
a(I1
F1.007
tp287
aa(lp288
(NF0.0
tp289
a(I1
F0.746
tp290
aa(lp291
(NF0.0
tp292
a(I1
F0.823
tp293
aa(lp294
(NF0.0
tp295
a(I3
F1.864
tp296
aa(lp297
(NF0.0
tp298
a(I1
F1.031
tp299
aa(lp300
(NF0.0
tp301
a(I1
F0.914
tp302
aa(lp303
(NF0.0
tp304
a(I1
F0.729
tp305
aa(lp306
(NF0.0
tp307
a(I1
F0.998
tp308
aa(lp309
(NF0.0
tp310
a(I1
F0.813
tp311
aa(lp312
(NF0.0
tp313
a(I1
F0.781
tp314
aa(lp315
(NF0.0
tp316
a(I1
F1.047
tp317
aa(lp318
(NF0.0
tp319
a(I3
F1.097
tp320
aa(lp321
(NF0.0
tp322
a(I1
F0.997
tp323
aasS'run_time'
p324
F244.0788049697876
sS'total_iters'
p325
(lp326
I0
aI1
aI2
aI3
aI4
aI5
aI6
aI7
aI8
aI9
aI10
aI11
aI12
aI13
aI14
aI15
aI16
aI17
aI18
aI19
aI20
aI21
aI22
aI23
aI24
aI25
aI26
aI27
aI28
aI29
aI30
aI31
aI32
aI33
aI34
aI35
aI36
aI37
aI38
aI39
aI40
aI41
aI42
aI43
aI44
aI45
aI46
aI47
aI48
aI49
aI50
aI51
aI52
aI53
aI54
aI55
aI56
aI57
aI58
aI59
aI60
aI61
aI62
aI63
aI64
aI65
aI66
aI67
aI68
aI69
aI70
aI71
aI72
aI73
aI74
aI75
aI76
aI77
aI78
aI79
as.