(dp0
S'cued_RT'
p1
(lp2
sS'cued'
p3
(lp4
S'194_110.jpg'
p5
aS'231_22.jpg'
p6
aS'311_135.jpg'
p7
aS'358_178.jpg'
p8
aS'248_38.jpg'
p9
aS'229_20.jpg'
p10
aS'284_110.jpg'
p11
aS'236_27.jpg'
p12
aS'251_40.jpg'
p13
aS'246_36.jpg'
p14
asS'run_time'
p15
F49.17111110687256
sS'cue_tuples'
p16
(lp17
(S'cue_L'
p18
S'L'
p19
I0
tp20
a(g18
g19
I0
tp21
a(g18
g19
I1
tp22
a(g18
g19
I0
tp23
a(g18
g19
I0
tp24
a(g18
g19
I1
tp25
a(g18
g19
I0
tp26
a(g18
g19
I1
tp27
a(g18
g19
I0
tp28
a(g18
g19
I0
tp29
asS'uncued'
p30
(lp31
S'313_137.jpg'
p32
aS'298_123.jpg'
p33
aS'346_167.jpg'
p34
aS'243_33.jpg'
p35
aS'301_126.jpg'
p36
aS'256_45.jpg'
p37
aS'333_155.jpg'
p38
aS'195_111.jpg'
p39
aS'329_151.jpg'
p40
aS'245_35.jpg'
p41
asS'uncued_RT'
p42
(lp43
F0.31876301765441895
aF0.4819779396057129
aF0.5028729438781738
aF0.5559730529785156
aF0.4972341060638428
aF0.5021219253540039
aF0.48581886291503906
aF0.45172786712646484
aF0.5387728214263916
aF0.5092182159423828
as.