(dp0
S'cued_RT'
p1
(lp2
F0.426807165145874
aF0.4427459239959717
aF0.40268611907958984
aF0.35651302337646484
aF0.4239659309387207
aF0.36736392974853516
aF0.49994587898254395
asS'cued'
p3
(lp4
S'312_136.jpg'
p5
aS'334_156.jpg'
p6
aS'210_125.jpg'
p7
aS'213_128.jpg'
p8
aS'263_51.jpg'
p9
aS'232_23.jpg'
p10
aS'224_138.jpg'
p11
aS'350_170.jpg'
p12
aS'218_132.jpg'
p13
aS'253_42.jpg'
p14
asS'run_time'
p15
F48.28242588043213
sS'cue_tuples'
p16
(lp17
(S'cue_R'
p18
S'F'
p19
I0
tp20
a(g18
g19
I0
tp21
a(g18
g19
I1
tp22
a(g18
g19
I0
tp23
a(g18
g19
I0
tp24
a(g18
g19
I1
tp25
a(g18
g19
I0
tp26
a(g18
g19
I1
tp27
a(g18
g19
I0
tp28
a(g18
g19
I0
tp29
asS'uncued'
p30
(lp31
S'195_111.jpg'
p32
aS'310_134.jpg'
p33
aS'332_154.jpg'
p34
aS'217_131.jpg'
p35
aS'303_128.jpg'
p36
aS'221_135.jpg'
p37
aS'186_103.jpg'
p38
aS'294_12.jpg'
p39
aS'274_101.jpg'
p40
aS'345_166.jpg'
p41
asS'uncued_RT'
p42
(lp43
F0.29062509536743164
aF0.48278117179870605
aF0.41109704971313477
as.