(dp0
S'images'
p1
(lp2
S'187.jpg'
p3
aS'7.jpg'
p4
aS'262.jpg'
p5
aS'254.jpg'
p6
aS'124.jpg'
p7
aS'174.jpg'
p8
aS'278.jpg'
p9
aS'105.jpg'
p10
aS'1.jpg'
p11
aS'130.jpg'
p12
aS'252.jpg'
p13
aS'110.jpg'
p14
aS'157.jpg'
p15
aS'197.jpg'
p16
aS'11.jpg'
p17
aS'296.jpg'
p18
aS'335.jpg'
p19
aS'41.jpg'
p20
aS'161.jpg'
p21
aS'271.jpg'
p22
aS'313.jpg'
p23
aS'121.jpg'
p24
aS'119.jpg'
p25
aS'199.jpg'
p26
aS'298.jpg'
p27
aS'113.jpg'
p28
aS'291.jpg'
p29
aS'135.jpg'
p30
aS'68.jpg'
p31
aS'224.jpg'
p32
aS'339.jpg'
p33
aS'126.jpg'
p34
aS'123.jpg'
p35
aS'19.jpg'
p36
aS'311.jpg'
p37
aS'211.jpg'
p38
aS'50.jpg'
p39
aS'306.jpg'
p40
aS'132.jpg'
p41
aS'209.jpg'
p42
aS'117.jpg'
p43
aS'160.jpg'
p44
aS'181.jpg'
p45
aS'206.jpg'
p46
aS'203.jpg'
p47
aS'234.jpg'
p48
aS'137.jpg'
p49
aS'15.jpg'
p50
aS'318.jpg'
p51
aS'330.jpg'
p52
aS'25.jpg'
p53
aS'284.jpg'
p54
aS'9.jpg'
p55
aS'270.jpg'
p56
aS'74.jpg'
p57
aS'337.jpg'
p58
aS'98.jpg'
p59
aS'307.jpg'
p60
aS'48.jpg'
p61
aS'193.jpg'
p62
aS'150.jpg'
p63
aS'331.jpg'
p64
aS'302.jpg'
p65
aS'70.jpg'
p66
aS'67.jpg'
p67
aS'294.jpg'
p68
aS'100.jpg'
p69
aS'95.jpg'
p70
aS'227.jpg'
p71
aS'352.jpg'
p72
aS'290.jpg'
p73
aS'184.jpg'
p74
aS'230.jpg'
p75
aS'12.jpg'
p76
aS'317.jpg'
p77
aS'273.jpg'
p78
aS'260.jpg'
p79
aS'73.jpg'
p80
aS'17.jpg'
p81
aS'172.jpg'
p82
asS'ratings'
p83
(lp84
(lp85
(NF0.0
tp86
aa(lp87
(NF0.0
tp88
a(I1
F0.991
tp89
aa(lp90
(NF0.0
tp91
a(I1
F0.745
tp92
aa(lp93
(NF0.0
tp94
a(I2
F1.056
tp95
aa(lp96
(NF0.0
tp97
a(I1
F0.981
tp98
aa(lp99
(NF0.0
tp100
a(I2
F1.162
tp101
aa(lp102
(NF0.0
tp103
a(I4
F0.779
tp104
aa(lp105
(NF0.0
tp106
a(I2
F1.28
tp107
aa(lp108
(NF0.0
tp109
a(I1
F1.064
tp110
aa(lp111
(NF0.0
tp112
a(I3
F0.995
tp113
aa(lp114
(NF0.0
tp115
a(I3
F0.914
tp116
aa(lp117
(NF0.0
tp118
a(I4
F0.846
tp119
aa(lp120
(NF0.0
tp121
a(I1
F0.68
tp122
aa(lp123
(NF0.0
tp124
a(I3
F1.23
tp125
aa(lp126
(NF0.0
tp127
a(I1
F0.645
tp128
aa(lp129
(NF0.0
tp130
a(I4
F0.83
tp131
aa(lp132
(NF0.0
tp133
a(I4
F0.763
tp134
aa(lp135
(NF0.0
tp136
a(I1
F1.13
tp137
aa(lp138
(NF0.0
tp139
a(I3
F1.481
tp140
aa(lp141
(NF0.0
tp142
a(I4
F1.011
tp143
aa(lp144
(NF0.0
tp145
a(I4
F0.73
tp146
aa(lp147
(NF0.0
tp148
a(I3
F1.878
tp149
aa(lp150
(NF0.0
tp151
a(I4
F0.898
tp152
aa(lp153
(NF0.0
tp154
a(I2
F1.297
tp155
aa(lp156
(NF0.0
tp157
a(I1
F1.028
tp158
aa(lp159
(NF0.0
tp160
a(I1
F0.813
tp161
aa(lp162
(NF0.0
tp163
a(I1
F1.147
tp164
aa(lp165
(NF0.0
tp166
a(I1
F0.663
tp167
aa(lp168
(NF0.0
tp169
a(I1
F1.162
tp170
aa(lp171
(NF0.0
tp172
a(I1
F0.73
tp173
aa(lp174
(NF0.0
tp175
a(I3
F0.915
tp176
aa(lp177
(NF0.0
tp178
a(I1
F0.681
tp179
aa(lp180
(NF0.0
tp181
a(I2
F0.964
tp182
aa(lp183
(NF0.0
tp184
a(I1
F0.664
tp185
aa(lp186
(NF0.0
tp187
a(I4
F0.863
tp188
aa(lp189
(NF0.0
tp190
a(I1
F0.697
tp191
aa(lp192
(NF0.0
tp193
a(I1
F1.562
tp194
aa(lp195
(NF0.0
tp196
a(I1
F0.847
tp197
aa(lp198
(NF0.0
tp199
a(I3
F1.261
tp200
aa(lp201
(NF0.0
tp202
a(I1
F0.629
tp203
aa(lp204
(NF0.0
tp205
a(I1
F0.797
tp206
aa(lp207
(NF0.0
tp208
a(I4
F1.23
tp209
aa(lp210
(NF0.0
tp211
a(I3
F1.179
tp212
aa(lp213
(NF0.0
tp214
a(I4
F0.862
tp215
aa(lp216
(NF0.0
tp217
a(I3
F1.079
tp218
aa(lp219
(NF0.0
tp220
a(I3
F1.311
tp221
aa(lp222
(NF0.0
tp223
a(I3
F0.896
tp224
aa(lp225
(NF0.0
tp226
a(I1
F0.614
tp227
aa(lp228
(NF0.0
tp229
a(I4
F1.027
tp230
aa(lp231
(NF0.0
tp232
a(I1
F1.095
tp233
aa(lp234
(NF0.0
tp235
a(I1
F0.631
tp236
aa(lp237
(NF0.0
tp238
a(I4
F0.882
tp239
aa(lp240
(NF0.0
tp241
a(I1
F0.563
tp242
aa(lp243
(NF0.0
tp244
a(I1
F0.612
tp245
aa(lp246
(NF0.0
tp247
a(I3
F1.546
tp248
aa(lp249
(NF0.0
tp250
a(I1
F0.93
tp251
aa(lp252
(NF0.0
tp253
a(I1
F0.731
tp254
aa(lp255
(NF0.0
tp256
a(I3
F0.815
tp257
aa(lp258
(NF0.0
tp259
a(I1
F0.596
tp260
aa(lp261
(NF0.0
tp262
a(I1
F0.606
tp263
aa(lp264
(NF0.0
tp265
a(I1
F0.755
tp266
aa(lp267
(NF0.0
tp268
a(I1
F0.73
tp269
aa(lp270
(NF0.0
tp271
a(I4
F0.614
tp272
aa(lp273
(NF0.0
tp274
a(I1
F0.762
tp275
aa(lp276
(NF0.0
tp277
a(I2
F1.298
tp278
aa(lp279
(NF0.0
tp280
a(I1
F0.763
tp281
aa(lp282
(NF0.0
tp283
a(I1
F0.796
tp284
aa(lp285
(NF0.0
tp286
a(I1
F0.732
tp287
aa(lp288
(NF0.0
tp289
a(I1
F0.864
tp290
aa(lp291
(NF0.0
tp292
a(I1
F0.63
tp293
aa(lp294
(NF0.0
tp295
a(I1
F0.73
tp296
aa(lp297
(NF0.0
tp298
a(I1
F0.678
tp299
aa(lp300
(NF0.0
tp301
a(I1
F0.663
tp302
aa(lp303
(NF0.0
tp304
a(I1
F0.765
tp305
aa(lp306
(NF0.0
tp307
a(I3
F0.897
tp308
aa(lp309
(NF0.0
tp310
a(I1
F1.097
tp311
aa(lp312
(NF0.0
tp313
a(I1
F1.123
tp314
aa(lp315
(NF0.0
tp316
a(I1
F0.881
tp317
aa(lp318
(NF0.0
tp319
a(I2
F0.813
tp320
aa(lp321
(NF0.0
tp322
a(I3
F0.895
tp323
aasS'run_time'
p324
F244.49798679351807
sS'total_iters'
p325
(lp326
I0
aI1
aI2
aI3
aI4
aI5
aI6
aI7
aI8
aI9
aI10
aI11
aI12
aI13
aI14
aI15
aI16
aI17
aI18
aI19
aI20
aI21
aI22
aI23
aI24
aI25
aI26
aI27
aI28
aI29
aI30
aI31
aI32
aI33
aI34
aI35
aI36
aI37
aI38
aI39
aI40
aI41
aI42
aI43
aI44
aI45
aI46
aI47
aI48
aI49
aI50
aI51
aI52
aI53
aI54
aI55
aI56
aI57
aI58
aI59
aI60
aI61
aI62
aI63
aI64
aI65
aI66
aI67
aI68
aI69
aI70
aI71
aI72
aI73
aI74
aI75
aI76
aI77
aI78
aI79
as.