(dp0
S'cued_RT'
p1
(lp2
sS'cued'
p3
(lp4
S'284_110.jpg'
p5
aS'181_1.jpg'
p6
aS'339_160.jpg'
p7
aS'298_123.jpg'
p8
aS'311_135.jpg'
p9
aS'206_121.jpg'
p10
aS'291_117.jpg'
p11
aS'313_137.jpg'
p12
aS'306_130.jpg'
p13
aS'262_50.jpg'
p14
asS'run_time'
p15
F49.315958976745605
sS'cue_tuples'
p16
(lp17
(S'cue_L'
p18
S'L'
p19
I0
tp20
a(g18
g19
I0
tp21
a(g18
g19
I1
tp22
a(g18
g19
I0
tp23
a(g18
g19
I0
tp24
a(g18
g19
I1
tp25
a(g18
g19
I0
tp26
a(g18
g19
I1
tp27
a(g18
g19
I0
tp28
a(g18
g19
I0
tp29
asS'uncued'
p30
(lp31
S'296_121.jpg'
p32
aS'211_126.jpg'
p33
aS'271_1.jpg'
p34
aS'234_25.jpg'
p35
aS'203_119.jpg'
p36
aS'197_113.jpg'
p37
aS'209_124.jpg'
p38
aS'278_105.jpg'
p39
aS'335_157.jpg'
p40
aS'252_41.jpg'
p41
asS'uncued_RT'
p42
(lp43
F0.4313511848449707
aF0.8924810886383057
aF0.419281005859375
aF0.515211820602417
aF0.48949599266052246
aF0.45497608184814453
aF0.3857550621032715
aF0.6666679382324219
aF0.340792179107666
aF0.4877190589904785
as.