(dp0
S'cued_RT'
p1
(lp2
sS'cued'
p3
(lp4
S'261_5.jpg'
p5
aS'360_18.jpg'
p6
aS'203_119.jpg'
p7
aS'264_52.jpg'
p8
aS'326_149.jpg'
p9
aS'321_144.jpg'
p10
aS'223_137.jpg'
p11
aS'212_127.jpg'
p12
aS'286_112.jpg'
p13
aS'182_10.jpg'
p14
asS'run_time'
p15
F49.40779089927673
sS'cue_tuples'
p16
(lp17
(S'cue_L'
p18
S'F'
p19
I0
tp20
a(g18
g19
I0
tp21
a(g18
g19
I1
tp22
a(g18
g19
I0
tp23
a(g18
g19
I0
tp24
a(g18
g19
I1
tp25
a(g18
g19
I0
tp26
a(g18
g19
I1
tp27
a(g18
g19
I0
tp28
a(g18
g19
I0
tp29
asS'uncued'
p30
(lp31
S'359_179.jpg'
p32
aS'272_10.jpg'
p33
aS'324_147.jpg'
p34
aS'233_24.jpg'
p35
aS'211_126.jpg'
p36
aS'194_110.jpg'
p37
aS'250_4.jpg'
p38
aS'303_128.jpg'
p39
aS'314_138.jpg'
p40
aS'186_103.jpg'
p41
asS'uncued_RT'
p42
(lp43
F0.7141120433807373
aF0.643477201461792
aF0.4814419746398926
aF0.4572269916534424
aF0.5466599464416504
aF0.42586779594421387
aF0.4354898929595947
aF0.5089190006256104
aF0.37850403785705566
aF0.4453110694885254
as.