(dp0
S'images'
p1
(lp2
S'321.jpg'
p3
aS'194.jpg'
p4
aS'127.jpg'
p5
aS'149.jpg'
p6
aS'147.jpg'
p7
aS'182.jpg'
p8
aS'52.jpg'
p9
aS'360.jpg'
p10
aS'197.jpg'
p11
aS'314.jpg'
p12
aS'18.jpg'
p13
aS'326.jpg'
p14
aS'112.jpg'
p15
aS'233.jpg'
p16
aS'212.jpg'
p17
aS'144.jpg'
p18
aS'56.jpg'
p19
aS'128.jpg'
p20
aS'126.jpg'
p21
aS'119.jpg'
p22
aS'142.jpg'
p23
aS'250.jpg'
p24
aS'264.jpg'
p25
aS'82.jpg'
p26
aS'137.jpg'
p27
aS'24.jpg'
p28
aS'4.jpg'
p29
aS'324.jpg'
p30
aS'223.jpg'
p31
aS'10.jpg'
p32
aS'186.jpg'
p33
aS'286.jpg'
p34
aS'261.jpg'
p35
aS'203.jpg'
p36
aS'5.jpg'
p37
aS'179.jpg'
p38
aS'272.jpg'
p39
aS'245.jpg'
p40
aS'211.jpg'
p41
aS'103.jpg'
p42
aS'204.jpg'
p43
aS'359.jpg'
p44
aS'117.jpg'
p45
aS'110.jpg'
p46
aS'303.jpg'
p47
aS'111.jpg'
p48
aS'328.jpg'
p49
aS'138.jpg'
p50
aS'183.jpg'
p51
aS'322.jpg'
p52
aS'55.jpg'
p53
aS'247.jpg'
p54
aS'246.jpg'
p55
aS'178.jpg'
p56
aS'305.jpg'
p57
aS'169.jpg'
p58
aS'258.jpg'
p59
aS'319.jpg'
p60
aS'1.jpg'
p61
aS'280.jpg'
p62
aS'295.jpg'
p63
aS'106.jpg'
p64
aS'96.jpg'
p65
aS'42.jpg'
p66
aS'50.jpg'
p67
aS'235.jpg'
p68
aS'306.jpg'
p69
aS'54.jpg'
p70
aS'157.jpg'
p71
aS'124.jpg'
p72
aS'201.jpg'
p73
aS'265.jpg'
p74
aS'267.jpg'
p75
aS'217.jpg'
p76
aS'259.jpg'
p77
aS'83.jpg'
p78
aS'139.jpg'
p79
aS'262.jpg'
p80
aS'342.jpg'
p81
aS'69.jpg'
p82
asS'ratings'
p83
(lp84
(lp85
(NF0.0
tp86
a(I2
F1.822
tp87
aa(lp88
(NF0.0
tp89
a(I4
F1.415
tp90
aa(lp91
(NF0.0
tp92
a(I4
F1.897
tp93
aa(lp94
(NF0.0
tp95
a(I3
F1.632
tp96
aa(lp97
(NF0.0
tp98
a(I2
F1.507
tp99
aa(lp100
(NF0.0
tp101
a(I4
F0.897
tp102
aa(lp103
(NF0.0
tp104
a(I1
F0.631
tp105
aa(lp106
(NF0.0
tp107
a(I2
F1.457
tp108
aa(lp109
(NF0.0
tp110
a(I3
F0.631
tp111
aa(lp112
(NF0.0
tp113
a(I4
F1.281
tp114
aa(lp115
(NF0.0
tp116
a(I2
F0.832
tp117
aa(lp118
(NF0.0
tp119
a(I4
F1.046
tp120
aa(lp121
(NF0.0
tp122
a(I1
F0.782
tp123
aa(lp124
(NF0.0
tp125
a(I1
F1.05
tp126
aa(lp127
(NF0.0
tp128
a(I3
F1.198
tp129
aa(lp130
(NF0.0
tp131
a(I1
F0.748
tp132
aa(lp133
(NF0.0
tp134
a(I2
F1.362
tp135
aa(lp136
(NF0.0
tp137
a(I2
F1.848
tp138
aa(lp139
(NF0.0
tp140
a(I4
F0.798
tp141
aa(lp142
(NF0.0
tp143
a(I2
F0.781
tp144
aa(lp145
(NF0.0
tp146
a(I2
F1.065
tp147
aa(lp148
(NF0.0
tp149
a(I2
F1.554
tp150
aa(lp151
(NF0.0
tp152
a(I2
F1.082
tp153
aa(lp154
(NF0.0
tp155
a(I1
F0.781
tp156
aa(lp157
(NF0.0
tp158
a(I1
F1.112
tp159
aa(lp160
(NF0.0
tp161
a(I1
F0.798
tp162
aa(lp163
(NF0.0
tp164
a(I1
F1.498
tp165
aa(lp166
(NF0.0
tp167
a(I2
F1.431
tp168
aa(lp169
(NF0.0
tp170
a(I3
F1.181
tp171
aa(lp172
(NF0.0
tp173
a(I3
F1.88
tp174
aa(lp175
(NF0.0
tp176
a(I1
F1.514
tp177
aa(lp178
(NF0.0
tp179
a(I1
F1.264
tp180
aa(lp181
(NF0.0
tp182
a(I1
F1.363
tp183
aa(lp184
(NF0.0
tp185
a(I3
F0.949
tp186
aa(lp187
(NF0.0
tp188
a(I1
F0.732
tp189
aa(lp190
(NF0.0
tp191
a(I1
F0.915
tp192
aa(lp193
(NF0.0
tp194
a(I4
F0.815
tp195
aa(lp196
(NF0.0
tp197
a(I2
F1.007
tp198
aa(lp199
(NF0.0
tp200
a(I2
F1.382
tp201
aa(lp202
(NF0.0
tp203
a(I2
F0.899
tp204
aa(lp205
(NF0.0
tp206
a(I2
F0.631
tp207
aa(lp208
(NF0.0
tp209
a(I3
F0.948
tp210
aa(lp211
(NF0.0
tp212
a(I3
F1.815
tp213
aa(lp214
(NF0.0
tp215
a(I3
F1.247
tp216
aa(lp217
(NF0.0
tp218
a(I1
F1.007
tp219
aa(lp220
(NF0.0
tp221
a(I1
F1.415
tp222
aa(lp223
(NF0.0
tp224
a(I2
F1.963
tp225
aa(lp226
(NF0.0
tp227
a(I3
F1.214
tp228
aa(lp229
(NF0.0
tp230
a(I1
F0.964
tp231
aa(lp232
(NF0.0
tp233
a(I1
F1.264
tp234
aa(lp235
(NF0.0
tp236
a(I1
F1.815
tp237
aa(lp238
(NF0.0
tp239
a(I1
F0.742
tp240
aa(lp241
(NF0.0
tp242
a(I1
F1.23
tp243
aa(lp244
(NF0.0
tp245
a(I2
F1.366
tp246
aa(lp247
(NF0.0
tp248
a(I1
F0.898
tp249
aa(lp250
(NF0.0
tp251
a(I1
F0.679
tp252
aa(lp253
(NF0.0
tp254
a(I1
F1.313
tp255
aa(lp256
(NF0.0
tp257
a(I3
F1.713
tp258
aa(lp259
(NF0.0
tp260
a(I1
F0.515
tp261
aa(lp262
(NF0.0
tp263
a(I1
F0.77
tp264
aa(lp265
(NF0.0
tp266
a(I1
F1.114
tp267
aa(lp268
(NF0.0
tp269
a(I1
F0.715
tp270
aa(lp271
(NF0.0
tp272
a(I1
F0.264
tp273
aa(lp274
(NF0.0
tp275
a(I3
F0.498
tp276
aa(lp277
(NF0.0
tp278
a(I1
F1.031
tp279
aa(lp280
(NF0.0
tp281
a(I4
F0.957
tp282
aa(lp283
(NF0.0
tp284
a(I1
F0.859
tp285
aa(lp286
(NF0.0
tp287
a(I1
F1.715
tp288
aa(lp289
(NF0.0
tp290
a(I2
F1.232
tp291
aa(lp292
(NF0.0
tp293
a(I2
F0.962
tp294
aa(lp295
(NF0.0
tp296
a(I1
F0.764
tp297
aa(lp298
(NF0.0
tp299
a(I1
F0.73
tp300
aa(lp301
(NF0.0
tp302
a(I1
F0.914
tp303
aa(lp304
(NF0.0
tp305
a(I1
F0.631
tp306
aa(lp307
(NF0.0
tp308
a(I2
F0.755
tp309
aa(lp310
(NF0.0
tp311
a(I1
F0.73
tp312
aa(lp313
(NF0.0
tp314
a(I2
F1.397
tp315
aa(lp316
(NF0.0
tp317
a(I3
F0.947
tp318
aa(lp319
(NF0.0
tp320
a(I1
F0.848
tp321
aa(lp322
(NF0.0
tp323
a(I1
F0.612
tp324
aasS'run_time'
p325
F243.57660603523254
sS'total_iters'
p326
(lp327
I0
aI1
aI2
aI3
aI4
aI5
aI6
aI7
aI8
aI9
aI10
aI11
aI12
aI13
aI14
aI15
aI16
aI17
aI18
aI19
aI20
aI21
aI22
aI23
aI24
aI25
aI26
aI27
aI28
aI29
aI30
aI31
aI32
aI33
aI34
aI35
aI36
aI37
aI38
aI39
aI40
aI41
aI42
aI43
aI44
aI45
aI46
aI47
aI48
aI49
aI50
aI51
aI52
aI53
aI54
aI55
aI56
aI57
aI58
aI59
aI60
aI61
aI62
aI63
aI64
aI65
aI66
aI67
aI68
aI69
aI70
aI71
aI72
aI73
aI74
aI75
aI76
aI77
aI78
aI79
as.