(dp0
S'images'
p1
(lp2
S'194.jpg'
p3
aS'231.jpg'
p4
aS'229.jpg'
p5
aS'135.jpg'
p6
aS'110.jpg'
p7
aS'159.jpg'
p8
aS'36.jpg'
p9
aS'293.jpg'
p10
aS'126.jpg'
p11
aS'22.jpg'
p12
aS'251.jpg'
p13
aS'109.jpg'
p14
aS'167.jpg'
p15
aS'33.jpg'
p16
aS'238.jpg'
p17
aS'245.jpg'
p18
aS'346.jpg'
p19
aS'284.jpg'
p20
aS'287.jpg'
p21
aS'248.jpg'
p22
aS'236.jpg'
p23
aS'40.jpg'
p24
aS'358.jpg'
p25
aS'298.jpg'
p26
aS'90.jpg'
p27
aS'311.jpg'
p28
aS'137.jpg'
p29
aS'301.jpg'
p30
aS'333.jpg'
p31
aS'242.jpg'
p32
aS'246.jpg'
p33
aS'190.jpg'
p34
aS'123.jpg'
p35
aS'14.jpg'
p36
aS'151.jpg'
p37
aS'45.jpg'
p38
aS'27.jpg'
p39
aS'289.jpg'
p40
aS'38.jpg'
p41
aS'243.jpg'
p42
aS'207.jpg'
p43
aS'155.jpg'
p44
aS'35.jpg'
p45
aS'20.jpg'
p46
aS'111.jpg'
p47
aS'313.jpg'
p48
aS'46.jpg'
p49
aS'195.jpg'
p50
aS'329.jpg'
p51
aS'308.jpg'
p52
aS'77.jpg'
p53
aS'178.jpg'
p54
aS'256.jpg'
p55
aS'84.jpg'
p56
aS'87.jpg'
p57
aS'81.jpg'
p58
aS'216.jpg'
p59
aS'356.jpg'
p60
aS'16.jpg'
p61
aS'129.jpg'
p62
aS'141.jpg'
p63
aS'281.jpg'
p64
aS'266.jpg'
p65
aS'353.jpg'
p66
aS'93.jpg'
p67
aS'341.jpg'
p68
aS'153.jpg'
p69
aS'210.jpg'
p70
aS'220.jpg'
p71
aS'66.jpg'
p72
aS'130.jpg'
p73
aS'64.jpg'
p74
aS'102.jpg'
p75
aS'349.jpg'
p76
aS'357.jpg'
p77
aS'3.jpg'
p78
aS'277.jpg'
p79
aS'347.jpg'
p80
aS'213.jpg'
p81
aS'205.jpg'
p82
asS'ratings'
p83
(lp84
(lp85
(NF0.0
tp86
a(I1
F1.062
tp87
aa(lp88
(NF0.0
tp89
a(I1
F1.28
tp90
aa(lp91
(NF0.0
tp92
a(I1
F1.33
tp93
aa(lp94
(NF0.0
tp95
a(I2
F1.132
tp96
aa(lp97
(NF0.0
tp98
a(I3
F0.965
tp99
aa(lp100
(NF0.0
tp101
a(I1
F0.88
tp102
aa(lp103
(NF0.0
tp104
a(I1
F0.998
tp105
aa(lp106
(NF0.0
tp107
a(I1
F0.963
tp108
aa(lp109
(NF0.0
tp110
a(I2
F1.094
tp111
aa(lp112
(NF0.0
tp113
a(I3
F1.256
tp114
aa(lp115
(NF0.0
tp116
a(I1
F1.847
tp117
aa(lp118
(NF0.0
tp119
a(I2
F1.146
tp120
aa(lp121
(NF0.0
tp122
a(I4
F1.012
tp123
aa(lp124
(NF0.0
tp125
a(I3
F0.98
tp126
aa(lp127
(NF0.0
tp128
a(I1
F1.031
tp129
aa(lp130
(NF0.0
tp131
a(I3
F1.547
tp132
aa(lp133
(NF0.0
tp134
a(I2
F1.615
tp135
aa(lp136
(NF0.0
tp137
a(I3
F1.263
tp138
aa(lp139
(NF0.0
tp140
a(I1
F0.947
tp141
aa(lp142
(NF0.0
tp143
a(I1
F0.899
tp144
aa(lp145
(NF0.0
tp146
a(I1
F1.214
tp147
aa(lp148
(NF0.0
tp149
a(I1
F1.449
tp150
aa(lp151
(NF0.0
tp152
a(I1
F0.88
tp153
aa(lp154
(NF0.0
tp155
a(I1
F0.679
tp156
aa(lp157
(NF0.0
tp158
a(I1
F0.681
tp159
aa(lp160
(NF0.0
tp161
a(I4
F0.898
tp162
aa(lp163
(NF0.0
tp164
a(I4
F1.344
tp165
aa(lp166
(NF0.0
tp167
a(I3
F1.19
tp168
aa(lp169
(NF0.0
tp170
a(I1
F1.261
tp171
aa(lp172
(NF0.0
tp173
a(I2
F1.015
tp174
aa(lp175
(NF0.0
tp176
a(I1
F0.73
tp177
aa(lp178
(NF0.0
tp179
a(I1
F0.888
tp180
aa(lp181
(NF0.0
tp182
a(I1
F1.631
tp183
aa(lp184
(NF0.0
tp185
a(I1
F1.094
tp186
aa(lp187
(NF0.0
tp188
a(I1
F1.013
tp189
aa(lp190
(NF0.0
tp191
a(I3
F1.657
tp192
aa(lp193
(NF0.0
tp194
a(I1
F1.279
tp195
aa(lp196
(NF0.0
tp197
a(I3
F0.83
tp198
aa(lp199
(NF0.0
tp200
a(I3
F1.363
tp201
aa(lp202
(NF0.0
tp203
a(I2
F0.915
tp204
aa(lp205
(NF0.0
tp206
a(I1
F1.105
tp207
aa(lp208
(NF0.0
tp209
a(I3
F1.265
tp210
aa(lp211
(NF0.0
tp212
a(I3
F1.03
tp213
aa(lp214
(NF0.0
tp215
a(I2
F1.712
tp216
aa(lp217
(NF0.0
tp218
a(I3
F1.0
tp219
aa(lp220
(NF0.0
tp221
a(I1
F1.133
tp222
aa(lp223
(NF0.0
tp224
a(I1
F0.918
tp225
aa(lp226
(NF0.0
tp227
a(I1
F1.114
tp228
aa(lp229
(NF0.0
tp230
a(I2
F0.848
tp231
aa(lp232
(NF0.0
tp233
a(I3
F0.781
tp234
aa(lp235
(NF0.0
tp236
a(I1
F0.93
tp237
aa(lp238
(NF0.0
tp239
a(I3
F0.981
tp240
aa(lp241
(NF0.0
tp242
a(I2
F0.68
tp243
aa(lp244
(NF0.0
tp245
a(I3
F1.298
tp246
aa(lp247
(NF0.0
tp248
a(I1
F1.647
tp249
aa(lp250
(NF0.0
tp251
a(I2
F1.347
tp252
aa(lp253
(NF0.0
tp254
a(I1
F0.781
tp255
aa(lp256
(NF0.0
tp257
a(I1
F1.264
tp258
aa(lp259
(NF0.0
tp260
a(I1
F0.997
tp261
aa(lp262
(NF0.0
tp263
a(I1
F0.847
tp264
aa(lp265
(NF0.0
tp266
a(I1
F0.863
tp267
aa(lp268
(NF0.0
tp269
a(I1
F0.681
tp270
aa(lp271
(NF0.0
tp272
a(I1
F0.696
tp273
aa(lp274
(NF0.0
tp275
a(I1
F0.714
tp276
aa(lp277
(NF0.0
tp278
a(I1
F0.88
tp279
aa(lp280
(NF0.0
tp281
a(I2
F1.556
tp282
aa(lp283
(NF0.0
tp284
a(I3
F0.988
tp285
aa(lp286
(NF0.0
tp287
a(I2
F0.63
tp288
aa(lp289
(NF0.0
tp290
a(I1
F0.863
tp291
aa(lp292
(NF0.0
tp293
a(I1
F0.78
tp294
aa(lp295
(NF0.0
tp296
a(I2
F0.962
tp297
aa(lp298
(NF0.0
tp299
a(I3
F1.912
tp300
aa(lp301
(NF0.0
tp302
a(I1
F1.012
tp303
aa(lp304
(NF0.0
tp305
a(I1
F0.881
tp306
aa(lp307
(NF0.0
tp308
a(I1
F0.881
tp309
aa(lp310
(NF0.0
tp311
a(I1
F0.844
tp312
aa(lp313
(NF0.0
tp314
a(I1
F0.897
tp315
aa(lp316
(NF0.0
tp317
a(I1
F0.929
tp318
aa(lp319
(NF0.0
tp320
a(I2
F1.098
tp321
aa(lp322
(NF0.0
tp323
a(I1
F1.264
tp324
aasS'run_time'
p325
F244.05865502357483
sS'total_iters'
p326
(lp327
I0
aI1
aI2
aI3
aI4
aI5
aI6
aI7
aI8
aI9
aI10
aI11
aI12
aI13
aI14
aI15
aI16
aI17
aI18
aI19
aI20
aI21
aI22
aI23
aI24
aI25
aI26
aI27
aI28
aI29
aI30
aI31
aI32
aI33
aI34
aI35
aI36
aI37
aI38
aI39
aI40
aI41
aI42
aI43
aI44
aI45
aI46
aI47
aI48
aI49
aI50
aI51
aI52
aI53
aI54
aI55
aI56
aI57
aI58
aI59
aI60
aI61
aI62
aI63
aI64
aI65
aI66
aI67
aI68
aI69
aI70
aI71
aI72
aI73
aI74
aI75
aI76
aI77
aI78
aI79
as.