(dp0
S'images'
p1
(lp2
S'334.jpg'
p3
aS'224.jpg'
p4
aS'171.jpg'
p5
aS'186.jpg'
p6
aS'218.jpg'
p7
aS'299.jpg'
p8
aS'166.jpg'
p9
aS'128.jpg'
p10
aS'213.jpg'
p11
aS'350.jpg'
p12
aS'263.jpg'
p13
aS'345.jpg'
p14
aS'232.jpg'
p15
aS'135.jpg'
p16
aS'154.jpg'
p17
aS'303.jpg'
p18
aS'49.jpg'
p19
aS'125.jpg'
p20
aS'294.jpg'
p21
aS'111.jpg'
p22
aS'51.jpg'
p23
aS'210.jpg'
p24
aS'332.jpg'
p25
aS'195.jpg'
p26
aS'221.jpg'
p27
aS'274.jpg'
p28
aS'132.jpg'
p29
aS'253.jpg'
p30
aS'58.jpg'
p31
aS'31.jpg'
p32
aS'217.jpg'
p33
aS'177.jpg'
p34
aS'310.jpg'
p35
aS'351.jpg'
p36
aS'23.jpg'
p37
aS'101.jpg'
p38
aS'103.jpg'
p39
aS'312.jpg'
p40
aS'8.jpg'
p41
aS'136.jpg'
p42
aS'131.jpg'
p43
aS'42.jpg'
p44
aS'138.jpg'
p45
aS'134.jpg'
p46
aS'214.jpg'
p47
aS'34.jpg'
p48
aS'12.jpg'
p49
aS'26.jpg'
p50
aS'180.jpg'
p51
aS'89.jpg'
p52
aS'99.jpg'
p53
aS'156.jpg'
p54
aS'344.jpg'
p55
aS'162.jpg'
p56
aS'57.jpg'
p57
aS'170.jpg'
p58
aS'164.jpg'
p59
aS'309.jpg'
p60
aS'225.jpg'
p61
aS'72.jpg'
p62
aS'325.jpg'
p63
aS'140.jpg'
p64
aS'61.jpg'
p65
aS'354.jpg'
p66
aS'114.jpg'
p67
aS'188.jpg'
p68
aS'86.jpg'
p69
aS'283.jpg'
p70
aS'222.jpg'
p71
aS'348.jpg'
p72
aS'158.jpg'
p73
aS'215.jpg'
p74
aS'173.jpg'
p75
aS'340.jpg'
p76
aS'268.jpg'
p77
aS'59.jpg'
p78
aS'228.jpg'
p79
aS'244.jpg'
p80
aS'338.jpg'
p81
aS'240.jpg'
p82
asS'ratings'
p83
(lp84
(lp85
(NF0.0
tp86
a(I2
F1.685
tp87
aa(lp88
(NF0.0
tp89
a(I2
F0.846
tp90
aa(lp91
(NF0.0
tp92
a(I3
F0.895
tp93
aa(lp94
(NF0.0
tp95
a(I3
F0.98
tp96
aa(lp97
(NF0.0
tp98
a(I1
F1.08
tp99
aa(lp100
(NF0.0
tp101
a(I1
F1.18
tp102
aa(lp103
(NF0.0
tp104
a(I3
F0.778
tp105
aa(lp106
(NF0.0
tp107
a(I1
F1.562
tp108
aa(lp109
(NF0.0
tp110
a(I1
F0.88
tp111
aa(lp112
(NF0.0
tp113
a(I3
F0.73
tp114
aa(lp115
(NF0.0
tp116
a(I1
F0.73
tp117
aa(lp118
(NF0.0
tp119
a(I1
F0.98
tp120
aa(lp121
(NF0.0
tp122
a(I1
F1.264
tp123
aa(lp124
(NF0.0
tp125
a(I3
F1.162
tp126
aa(lp127
(NF0.0
tp128
a(I1
F1.212
tp129
aa(lp130
(NF0.0
tp131
a(I3
F1.363
tp132
aa(lp133
(NF0.0
tp134
a(I1
F1.081
tp135
aa(lp136
(NF0.0
tp137
a(I3
F1.096
tp138
aa(lp139
(NF0.0
tp140
a(I3
F1.08
tp141
aa(lp142
(NF0.0
tp143
a(I3
F1.047
tp144
aa(lp145
(NF0.0
tp146
a(I1
F0.813
tp147
aa(lp148
(NF0.0
tp149
a(I4
F1.13
tp150
aa(lp151
(NF0.0
tp152
a(I1
F0.929
tp153
aa(lp154
(NF0.0
tp155
a(I1
F0.696
tp156
aa(lp157
(NF0.0
tp158
a(I4
F1.195
tp159
aa(lp160
(NF0.0
tp161
a(I3
F1.614
tp162
aa(lp163
(NF0.0
tp164
a(I4
F0.796
tp165
aa(lp166
(NF0.0
tp167
a(I3
F1.079
tp168
aa(lp169
(NF0.0
tp170
a(I2
F1.045
tp171
aa(lp172
(NF0.0
tp173
a(I4
F1.414
tp174
aa(lp175
(NF0.0
tp176
a(I1
F1.08
tp177
aa(lp178
(NF0.0
tp179
a(I2
F1.127
tp180
aa(lp181
(NF0.0
tp182
a(I3
F1.18
tp183
aa(lp184
(NF0.0
tp185
a(I3
F1.563
tp186
aa(lp187
(NF0.0
tp188
a(I1
F0.913
tp189
aa(lp190
(NF0.0
tp191
a(I1
F0.863
tp192
aa(lp193
(NF0.0
tp194
a(I2
F0.912
tp195
aa(lp196
(NF0.0
tp197
a(I1
F1.731
tp198
aa(lp199
(NF0.0
tp200
a(I1
F1.631
tp201
aa(lp202
(NF0.0
tp203
a(I1
F0.714
tp204
aa(lp205
(NF0.0
tp206
a(I3
F1.046
tp207
aa(lp208
(NF0.0
tp209
a(I3
F1.195
tp210
aa(lp211
(NF0.0
tp212
a(I3
F1.011
tp213
aa(lp214
(NF0.0
tp215
a(I1
F0.946
tp216
aa(lp217
(NF0.0
tp218
a(I3
F0.897
tp219
aa(lp220
(NF0.0
tp221
a(I1
F0.69
tp222
aa(lp223
(NF0.0
tp224
a(I1
F0.779
tp225
aa(lp226
(NF0.0
tp227
a(I1
F0.697
tp228
aa(lp229
(NF0.0
tp230
a(I3
F0.988
tp231
aa(lp232
(NF0.0
tp233
a(I1
F0.797
tp234
aa(lp235
(NF0.0
tp236
a(I1
F0.68
tp237
aa(lp238
(NF0.0
tp239
a(I3
F1.147
tp240
aa(lp241
(NF0.0
tp242
a(I3
F0.844
tp243
aa(lp244
(NF0.0
tp245
a(I1
F0.831
tp246
aa(lp247
(NF0.0
tp248
a(I1
F0.663
tp249
aa(lp250
(NF0.0
tp251
a(I3
F0.839
tp252
aa(lp253
(NF0.0
tp254
a(I1
F0.963
tp255
aa(lp256
(NF0.0
tp257
a(I1
F0.863
tp258
aa(lp259
(NF0.0
tp260
a(I1
F1.414
tp261
aa(lp262
(NF0.0
tp263
a(I3
F1.279
tp264
aa(lp265
(NF0.0
tp266
a(I3
F0.782
tp267
aa(lp268
(NF0.0
tp269
a(I1
F0.612
tp270
aa(lp271
(NF0.0
tp272
a(I1
F0.862
tp273
aa(lp274
(NF0.0
tp275
a(I1
F0.714
tp276
aa(lp277
(NF0.0
tp278
a(I1
F0.646
tp279
aa(lp280
(NF0.0
tp281
a(I1
F0.712
tp282
aa(lp283
(NF0.0
tp284
a(I3
F1.711
tp285
aa(lp286
(NF0.0
tp287
a(I1
F0.696
tp288
aa(lp289
(NF0.0
tp290
a(I1
F0.613
tp291
aa(lp292
(NF0.0
tp293
a(I3
F1.463
tp294
aa(lp295
(NF0.0
tp296
a(I3
F1.288
tp297
aa(lp298
(NF0.0
tp299
a(I1
F0.696
tp300
aa(lp301
(NF0.0
tp302
aa(lp303
(NF0.0
tp304
a(I2
F1.145
tp305
aa(lp306
(NF0.0
tp307
a(I2
F1.08
tp308
aa(lp309
(NF0.0
tp310
a(I1
F0.777
tp311
aa(lp312
(NF0.0
tp313
a(I2
F0.644
tp314
aa(lp315
(NF0.0
tp316
a(I1
F0.682
tp317
aa(lp318
(NF0.0
tp319
a(I1
F0.677
tp320
aa(lp321
(NF0.0
tp322
a(I1
F0.565
tp323
aasS'run_time'
p324
F244.6307351589203
sS'total_iters'
p325
(lp326
I0
aI1
aI2
aI3
aI4
aI5
aI6
aI7
aI8
aI9
aI10
aI11
aI12
aI13
aI14
aI15
aI16
aI17
aI18
aI19
aI20
aI21
aI22
aI23
aI24
aI25
aI26
aI27
aI28
aI29
aI30
aI31
aI32
aI33
aI34
aI35
aI36
aI37
aI38
aI39
aI40
aI41
aI42
aI43
aI44
aI45
aI46
aI47
aI48
aI49
aI50
aI51
aI52
aI53
aI54
aI55
aI56
aI57
aI58
aI59
aI60
aI61
aI62
aI63
aI64
aI65
aI66
aI67
aI68
aI69
aI70
aI71
aI72
aI73
aI74
aI75
aI76
aI77
aI78
aI79
as.