(dp0
S'cued_RT'
p1
(lp2
F0.43054914474487305
aF0.5948200225830078
aF0.4235959053039551
aF0.4311950206756592
aF0.4656178951263428
aF0.5794022083282471
aF0.5291800498962402
asS'cued'
p3
(lp4
S'235_26.jpg'
p5
aS'330_152.jpg'
p6
aS'215_13.jpg'
p7
aS'279_106.jpg'
p8
aS'246_36.jpg'
p9
aS'331_153.jpg'
p10
aS'342_163.jpg'
p11
aS'192_109.jpg'
p12
aS'252_41.jpg'
p13
aS'321_144.jpg'
p14
asS'run_time'
p15
F49.13350820541382
sS'cue_tuples'
p16
(lp17
(S'cue_R'
p18
S'F'
p19
I0
tp20
a(g18
g19
I0
tp21
a(g18
g19
I1
tp22
a(g18
g19
I0
tp23
a(g18
g19
I0
tp24
a(g18
g19
I1
tp25
a(g18
g19
I0
tp26
a(g18
g19
I1
tp27
a(g18
g19
I0
tp28
a(g18
g19
I0
tp29
asS'uncued'
p30
(lp31
S'245_35.jpg'
p32
aS'311_135.jpg'
p33
aS'225_139.jpg'
p34
aS'212_127.jpg'
p35
aS'288_114.jpg'
p36
aS'201_117.jpg'
p37
aS'216_130.jpg'
p38
aS'328_150.jpg'
p39
aS'260_49.jpg'
p40
aS'240_30.jpg'
p41
asS'uncued_RT'
p42
(lp43
F0.5344908237457275
aF0.4630470275878906
aF0.4607419967651367
as.