(lp0
S'A little engaging'
p1
aS'A little tired'
p2
accopy_reg
_reconstructor
p3
(cfuture.types.newstr
newstr
p4
c__builtin__
unicode
p5
VI found the people were harder to remember than the scenes and the nature scenes were the ones I recognized most often.
p6
tp7
Rp8
ag3
(g4
g5
VThe right side felt easier to me.
p9
tp10
Rp11
ag3
(g4
g5
VFor each image I tried to remmeber one word (like leaves or bridge) that described the place in general. Faces were harder to describe.
p12
tp13
Rp14
a.