(lp0
S'A little engaging'
p1
aS'A little tired'
p2
accopy_reg
_reconstructor
p3
(cfuture.types.newstr
newstr
p4
c__builtin__
unicode
p5
VFaces-- i found they were easier to identify and to focus on in such short time.
p6
tp7
Rp8
ag3
(g4
g5
VNo
p9
tp10
Rp11
ag3
(g4
g5
VI don't think I used any specific strategies, but rather just tried to focus more intently on the indicated image.
p12
tp13
Rp14
a.