(dp0
S'images'
p1
(lp2
S'345.jpg'
p3
aS'205.jpg'
p4
aS'286.jpg'
p5
aS'83.jpg'
p6
aS'13.jpg'
p7
aS'242.jpg'
p8
aS'195.jpg'
p9
aS'64.jpg'
p10
aS'46.jpg'
p11
aS'222.jpg'
p12
aS'357.jpg'
p13
aS'63.jpg'
p14
aS'322.jpg'
p15
aS'273.jpg'
p16
aS'49.jpg'
p17
aS'239.jpg'
p18
aS'171.jpg'
p19
aS'305.jpg'
p20
aS'167.jpg'
p21
aS'176.jpg'
p22
aS'346.jpg'
p23
aS'142.jpg'
p24
aS'221.jpg'
p25
aS'97.jpg'
p26
aS'144.jpg'
p27
aS'138.jpg'
p28
aS'135.jpg'
p29
aS'230.jpg'
p30
aS'313.jpg'
p31
aS'25.jpg'
p32
aS'306.jpg'
p33
aS'344.jpg'
p34
aS'96.jpg'
p35
aS'113.jpg'
p36
aS'107.jpg'
p37
aS'353.jpg'
p38
aS'321.jpg'
p39
aS'173.jpg'
p40
aS'188.jpg'
p41
aS'218.jpg'
p42
aS'259.jpg'
p43
aS'31.jpg'
p44
aS'332.jpg'
p45
aS'225.jpg'
p46
aS'11.jpg'
p47
aS'295.jpg'
p48
aS'85.jpg'
p49
aS'261.jpg'
p50
aS'197.jpg'
p51
aS'76.jpg'
p52
aS'84.jpg'
p53
aS'111.jpg'
p54
aS'263.jpg'
p55
aS'358.jpg'
p56
aS'164.jpg'
p57
aS'360.jpg'
p58
aS'90.jpg'
p59
aS'154.jpg'
p60
aS'86.jpg'
p61
aS'279.jpg'
p62
aS'17.jpg'
p63
aS'231.jpg'
p64
aS'335.jpg'
p65
aS'33.jpg'
p66
aS'132.jpg'
p67
aS'5.jpg'
p68
aS'4.jpg'
p69
aS'73.jpg'
p70
aS'129.jpg'
p71
aS'179.jpg'
p72
aS'224.jpg'
p73
aS'141.jpg'
p74
aS'143.jpg'
p75
aS'228.jpg'
p76
aS'214.jpg'
p77
aS'269.jpg'
p78
aS'266.jpg'
p79
aS'151.jpg'
p80
aS'56.jpg'
p81
aS'245.jpg'
p82
aS'190.jpg'
p83
aS'343.jpg'
p84
aS'333.jpg'
p85
aS'43.jpg'
p86
aS'283.jpg'
p87
aS'92.jpg'
p88
aS'186.jpg'
p89
aS'44.jpg'
p90
aS'67.jpg'
p91
aS'314.jpg'
p92
aS'18.jpg'
p93
aS'300.jpg'
p94
aS'59.jpg'
p95
aS'238.jpg'
p96
aS'342.jpg'
p97
aS'19.jpg'
p98
aS'327.jpg'
p99
aS'148.jpg'
p100
aS'78.jpg'
p101
aS'149.jpg'
p102
aS'185.jpg'
p103
aS'16.jpg'
p104
aS'298.jpg'
p105
aS'182.jpg'
p106
aS'275.jpg'
p107
aS'253.jpg'
p108
aS'256.jpg'
p109
aS'320.jpg'
p110
aS'267.jpg'
p111
aS'240.jpg'
p112
aS'98.jpg'
p113
aS'189.jpg'
p114
aS'309.jpg'
p115
aS'213.jpg'
p116
aS'26.jpg'
p117
aS'336.jpg'
p118
aS'99.jpg'
p119
aS'233.jpg'
p120
aS'349.jpg'
p121
aS'27.jpg'
p122
aS'237.jpg'
p123
aS'198.jpg'
p124
aS'163.jpg'
p125
aS'10.jpg'
p126
aS'170.jpg'
p127
aS'288.jpg'
p128
aS'36.jpg'
p129
aS'72.jpg'
p130
asS'ratings'
p131
(lp132
(lp133
(NF0.0
tp134
a(NF2.009
tp135
aa(lp136
(NF0.0
tp137
a(NF2.009
tp138
aa(lp139
(NF0.0
tp140
a(I2
F0.499
tp141
aa(lp142
(NF0.0
tp143
a(I2
F0.399
tp144
a(I2
F2.01
tp145
aa(lp146
(NF0.0
tp147
a(I3
F0.335
tp148
a(I3
F2.013
tp149
aa(lp150
(NF0.0
tp151
a(I3
F0.349
tp152
a(I3
F2.01
tp153
aa(lp154
(NF0.0
tp155
a(I1
F0.432
tp156
aa(lp157
(NF0.0
tp158
a(I2
F1.767
tp159
aa(lp160
(NF0.0
tp161
a(I3
F0.667
tp162
aa(lp163
(NF0.0
tp164
a(NF2.012
tp165
aa(lp166
(NF0.0
tp167
a(I1
F0.617
tp168
aa(lp169
(NF0.0
tp170
a(I2
F0.415
tp171
aa(lp172
(NF0.0
tp173
a(I3
F1.282
tp174
aa(lp175
(NF0.0
tp176
a(NF2.011
tp177
aa(lp178
(NF0.0
tp179
a(NF2.012
tp180
aa(lp181
(NF0.0
tp182
a(I2
F0.316
tp183
a(I2
F2.01
tp184
aa(lp185
(NF0.0
tp186
a(I2
F0.314
tp187
a(I2
F2.01
tp188
aa(lp189
(NF0.0
tp190
a(I3
F0.35
tp191
a(I3
F2.011
tp192
aa(lp193
(NF0.0
tp194
a(I1
F0.783
tp195
aa(lp196
(NF0.0
tp197
a(I1
F0.45
tp198
aa(lp199
(NF0.0
tp200
a(I3
F0.7
tp201
aa(lp202
(NF0.0
tp203
a(NF2.011
tp204
aa(lp205
(NF0.0
tp206
a(I3
F0.366
tp207
a(I3
F2.011
tp208
aa(lp209
(NF0.0
tp210
a(I1
F0.368
tp211
a(I1
F2.013
tp212
aa(lp213
(NF0.0
tp214
a(I2
F0.401
tp215
a(I2
F2.012
tp216
aa(lp217
(NF0.0
tp218
a(I3
F0.532
tp219
aa(lp220
(NF0.0
tp221
a(I3
F0.567
tp222
aa(lp223
(NF0.0
tp224
a(NF2.013
tp225
aa(lp226
(NF0.0
tp227
a(I2
F1.182
tp228
aa(lp229
(NF0.0
tp230
a(I3
F0.667
tp231
aa(lp232
(NF0.0
tp233
a(NF2.013
tp234
aa(lp235
(NF0.0
tp236
a(I3
F0.466
tp237
aa(lp238
(NF0.0
tp239
a(I3
F0.283
tp240
a(I3
F2.012
tp241
aa(lp242
(NF0.0
tp243
a(I2
F0.3
tp244
a(I2
F2.013
tp245
aa(lp246
(NF0.0
tp247
a(I2
F0.816
tp248
aa(lp249
(NF0.0
tp250
a(NF2.012
tp251
aa(lp252
(NF0.0
tp253
a(I2
F0.449
tp254
aa(lp255
(NF0.0
tp256
a(I1
F0.35
tp257
a(I1
F2.012
tp258
aa(lp259
(NF0.0
tp260
a(I3
F0.267
tp261
a(I3
F2.011
tp262
aa(lp263
(NF0.0
tp264
a(NF2.011
tp265
aa(lp266
(NF0.0
tp267
a(I3
F1.782
tp268
aa(lp269
(NF0.0
tp270
a(I3
F0.45
tp271
aa(lp272
(NF0.0
tp273
a(I1
F0.484
tp274
aa(lp275
(NF0.0
tp276
a(I3
F0.45
tp277
aa(lp278
(NF0.0
tp279
a(I3
F0.601
tp280
aa(lp281
(NF0.0
tp282
a(I2
F0.767
tp283
aa(lp284
(NF0.0
tp285
a(I2
F1.117
tp286
aa(lp287
(NF0.0
tp288
a(I3
F0.549
tp289
aa(lp290
(NF0.0
tp291
a(I1
F0.366
tp292
a(I1
F2.01
tp293
aa(lp294
(NF0.0
tp295
a(I2
F0.516
tp296
aa(lp297
(NF0.0
tp298
a(I2
F0.417
tp299
aa(lp300
(NF0.0
tp301
a(I2
F0.416
tp302
aa(lp303
(NF0.0
tp304
a(I3
F0.415
tp305
aa(lp306
(NF0.0
tp307
a(I3
F0.664
tp308
aa(lp309
(NF0.0
tp310
a(I2
F0.333
tp311
a(I2
F2.011
tp312
aa(lp313
(NF0.0
tp314
a(I3
F0.234
tp315
a(I3
F2.011
tp316
aa(lp317
(NF0.0
tp318
a(I2
F0.483
tp319
aa(lp320
(NF0.0
tp321
a(NF2.01
tp322
aa(lp323
(NF0.0
tp324
a(I3
F0.55
tp325
aa(lp326
(NF0.0
tp327
a(I3
F0.351
tp328
a(I3
F2.011
tp329
aa(lp330
(NF0.0
tp331
a(I2
F0.45
tp332
aa(lp333
(NF0.0
tp334
a(I3
F1.05
tp335
aa(lp336
(NF0.0
tp337
a(I3
F0.532
tp338
aa(lp339
(NF0.0
tp340
a(I3
F0.234
tp341
a(I3
F2.011
tp342
aa(lp343
(NF0.0
tp344
a(I4
F0.315
tp345
a(I4
F2.011
tp346
aa(lp347
(NF0.0
tp348
a(I2
F0.568
tp349
aa(lp350
(NF0.0
tp351
a(NF2.012
tp352
aa(lp353
(NF0.0
tp354
a(I1
F0.317
tp355
a(I1
F2.012
tp356
aa(lp357
(NF0.0
tp358
a(I3
F0.767
tp359
aa(lp360
(NF0.0
tp361
a(I2
F0.35
tp362
a(I2
F2.012
tp363
aa(lp364
(NF0.0
tp365
a(I3
F0.402
tp366
a(I3
F2.012
tp367
aa(lp368
(NF0.0
tp369
a(I3
F0.919
tp370
aa(lp371
(NF0.0
tp372
a(I2
F0.467
tp373
aa(lp374
(NF0.0
tp375
a(I2
F0.349
tp376
a(I2
F2.012
tp377
aa(lp378
(NF0.0
tp379
a(I3
F0.284
tp380
a(I3
F2.011
tp381
aa(lp382
(NF0.0
tp383
a(I3
F0.8
tp384
aa(lp385
(NF0.0
tp386
a(I3
F0.367
tp387
a(I3
F2.012
tp388
aa(lp389
(NF0.0
tp390
a(NF2.013
tp391
aa(lp392
(NF0.0
tp393
a(I1
F0.517
tp394
aa(lp395
(NF0.0
tp396
a(I2
F0.417
tp397
aa(lp398
(NF0.0
tp399
a(I2
F0.567
tp400
aa(lp401
(NF0.0
tp402
a(I3
F0.318
tp403
a(I3
F2.012
tp404
aa(lp405
(NF0.0
tp406
a(I1
F0.283
tp407
a(I1
F2.012
tp408
aa(lp409
(NF0.0
tp410
a(NF2.011
tp411
aa(lp412
(NF0.0
tp413
a(I3
F0.417
tp414
aa(lp415
(NF0.0
tp416
a(I1
F0.349
tp417
a(I1
F2.011
tp418
aa(lp419
(NF0.0
tp420
a(I2
F0.332
tp421
a(I2
F2.013
tp422
aa(lp423
(NF0.0
tp424
a(NF2.01
tp425
aa(lp426
(NF0.0
tp427
a(I3
F0.333
tp428
a(I3
F2.011
tp429
aa(lp430
(NF0.0
tp431
a(I3
F0.832
tp432
aa(lp433
(NF0.0
tp434
a(I3
F0.249
tp435
a(I3
F2.011
tp436
aa(lp437
(NF0.0
tp438
a(I3
F0.267
tp439
a(I3
F2.011
tp440
aa(lp441
(NF0.0
tp442
a(I3
F0.568
tp443
aa(lp444
(NF0.0
tp445
a(I3
F0.801
tp446
aa(lp447
(NF0.0
tp448
a(NF2.011
tp449
aa(lp450
(NF0.0
tp451
a(I3
F0.383
tp452
a(I3
F2.011
tp453
aa(lp454
(NF0.0
tp455
a(I3
F0.286
tp456
a(I3
F2.014
tp457
aa(lp458
(NF0.0
tp459
a(NF2.011
tp460
aa(lp461
(NF0.0
tp462
a(I2
F0.901
tp463
aa(lp464
(NF0.0
tp465
a(I4
F0.701
tp466
aa(lp467
(NF0.0
tp468
a(I3
F0.881
tp469
aa(lp470
(NF0.0
tp471
a(I3
F1.768
tp472
aa(lp473
(NF0.0
tp474
a(I3
F0.451
tp475
aa(lp476
(NF0.0
tp477
a(I2
F0.415
tp478
aa(lp479
(NF0.0
tp480
a(I3
F0.449
tp481
aa(lp482
(NF0.0
tp483
a(NF2.01
tp484
aa(lp485
(NF0.0
tp486
a(I3
F0.433
tp487
aa(lp488
(NF0.0
tp489
a(I3
F0.567
tp490
aa(lp491
(NF0.0
tp492
a(I3
F0.701
tp493
aa(lp494
(NF0.0
tp495
a(I2
F1.166
tp496
aa(lp497
(NF0.0
tp498
a(I3
F0.583
tp499
aa(lp500
(NF0.0
tp501
a(I3
F0.45
tp502
aa(lp503
(NF0.0
tp504
a(I3
F0.438
tp505
aa(lp506
(NF0.0
tp507
a(I3
F0.767
tp508
aa(lp509
(NF0.0
tp510
a(I2
F0.499
tp511
aa(lp512
(NF0.0
tp513
a(I3
F0.65
tp514
aa(lp515
(NF0.0
tp516
a(NF2.012
tp517
aa(lp518
(NF0.0
tp519
a(I2
F0.318
tp520
a(I2
F2.013
tp521
aa(lp522
(NF0.0
tp523
a(I4
F1.534
tp524
aa(lp525
(NF0.0
tp526
a(I3
F0.683
tp527
aa(lp528
(NF0.0
tp529
a(NF2.013
tp530
aa(lp531
(NF0.0
tp532
a(I3
F0.6
tp533
aa(lp534
(NF0.0
tp535
a(I2
F0.615
tp536
aa(lp537
(NF0.0
tp538
a(I2
F0.434
tp539
aa(lp540
(NF0.0
tp541
a(I2
F0.884
tp542
aa(lp543
(NF0.0
tp544
a(I3
F1.135
tp545
aa(lp546
(NF0.0
tp547
a(I3
F0.567
tp548
aa(lp549
(NF0.0
tp550
a(I1
F0.565
tp551
aasS'run_time'
p552
F680.5893318653107
sS'total_iters'
p553
(lp554
I0
aI1
aI2
aI3
aI4
aI5
aI6
aI7
aI8
aI9
aI10
aI11
aI12
aI13
aI14
aI15
aI16
aI17
aI18
aI19
aI20
aI21
aI22
aI23
aI24
aI25
aI26
aI27
aI28
aI29
aI30
aI31
aI32
aI33
aI34
aI35
aI36
aI37
aI38
aI39
aI40
aI41
aI42
aI43
aI44
aI45
aI46
aI47
aI48
aI49
aI50
aI51
aI52
aI53
aI54
aI55
aI56
aI57
aI58
aI59
aI60
aI61
aI62
aI63
aI64
aI65
aI66
aI67
aI68
aI69
aI70
aI71
aI72
aI73
aI74
aI75
aI76
aI77
aI78
aI79
aI80
aI81
aI82
aI83
aI84
aI85
aI86
aI87
aI88
aI89
aI90
aI91
aI92
aI93
aI94
aI95
aI96
aI97
aI98
aI99
aI100
aI101
aI102
aI103
aI104
aI105
aI106
aI107
aI108
aI109
aI110
aI111
aI112
aI113
aI114
aI115
aI116
aI117
aI118
aI119
aI120
aI121
aI122
aI123
aI124
aI125
aI126
aI127
as.