(dp0
S'cued_RT'
p1
(lp2
F0.634843111038208
aF0.4514448642730713
aF0.4935441017150879
aF0.4905250072479248
aF0.4019169807434082
aF0.3977689743041992
asS'cued'
p3
(lp4
S'250_161.jpg'
p5
aS'210_125.jpg'
p6
aS'249_160.jpg'
p7
aS'355_94.jpg'
p8
aS'206_121.jpg'
p9
aS'303_47.jpg'
p10
aS'232_145.jpg'
p11
aS'350_9.jpg'
p12
aS'191_108.jpg'
p13
aS'265_175.jpg'
p14
aS'330_71.jpg'
p15
aS'282_28.jpg'
p16
aS'239_151.jpg'
p17
aS'259_17.jpg'
p18
aS'340_80.jpg'
p19
aS'279_25.jpg'
p20
asS'run_time'
p21
F138.82346606254578
sS'cue_tuples'
p22
(lp23
(S'cue_R'
p24
S'F'
p25
I0
tp26
a(g24
S'H'
p27
I0
tp28
a(g24
g27
I1
tp29
a(S'cue_L'
p30
g27
I0
tp31
a(g30
g27
I0
tp32
a(g30
g25
I0
tp33
a(g30
g25
I0
tp34
a(g24
g25
I0
tp35
a(g30
g25
I0
tp36
a(g24
g27
I0
tp37
a(g30
g27
I1
tp38
a(g24
g25
I0
tp39
a(g24
g25
I1
tp40
a(g24
g27
I0
tp41
a(g30
g27
I0
tp42
a(g30
g25
I1
tp43
asS'uncued'
p44
(lp45
S'317_6.jpg'
p46
aS'263_173.jpg'
p47
aS'243_155.jpg'
p48
aS'289_34.jpg'
p49
aS'269_179.jpg'
p50
aS'311_54.jpg'
p51
aS'258_169.jpg'
p52
aS'305_49.jpg'
p53
aS'192_109.jpg'
p54
aS'200_116.jpg'
p55
aS'208_123.jpg'
p56
aS'271_180.jpg'
p57
aS'334_75.jpg'
p58
aS'264_174.jpg'
p59
aS'338_79.jpg'
p60
aS'183_100.jpg'
p61
asS'uncued_RT'
p62
(lp63
F1.2134029865264893
aF0.5759499073028564
aF0.5545670986175537
aF0.43267083168029785
aF0.4911510944366455
aF0.41391992568969727
aF0.524033784866333
aF0.6015830039978027
aF0.8290500640869141
aF0.5398311614990234
as.