(dp0
S'cued_RT'
p1
(lp2
F0.351107120513916
aF0.6160240173339844
aF0.4885520935058594
aF0.4509551525115967
aF0.5717389583587646
aF0.5613219738006592
asS'cued'
p3
(lp4
S'259_17.jpg'
p5
aS'218_132.jpg'
p6
aS'221_135.jpg'
p7
aS'295_4.jpg'
p8
aS'345_85.jpg'
p9
aS'197_113.jpg'
p10
aS'306_5.jpg'
p11
aS'358_97.jpg'
p12
aS'239_151.jpg'
p13
aS'195_111.jpg'
p14
aS'344_84.jpg'
p15
aS'230_143.jpg'
p16
aS'313_56.jpg'
p17
aS'346_86.jpg'
p18
aS'263_173.jpg'
p19
aS'332_73.jpg'
p20
asS'run_time'
p21
F138.15012907981873
sS'cue_tuples'
p22
(lp23
(S'cue_L'
p24
S'H'
p25
I0
tp26
a(S'cue_R'
p27
g25
I0
tp28
a(g24
S'F'
p29
I0
tp30
a(g27
g29
I0
tp31
a(g27
g25
I1
tp32
a(g27
g29
I1
tp33
a(g24
g25
I0
tp34
a(g27
g25
I0
tp35
a(g24
g29
I0
tp36
a(g27
g29
I0
tp37
a(g24
g25
I0
tp38
a(g24
g29
I0
tp39
a(g24
g29
I1
tp40
a(g27
g29
I0
tp41
a(g24
g25
I1
tp42
a(g27
g25
I0
tp43
asS'uncued'
p44
(lp45
S'321_63.jpg'
p46
aS'305_49.jpg'
p47
aS'357_96.jpg'
p48
aS'343_83.jpg'
p49
aS'286_31.jpg'
p50
aS'322_64.jpg'
p51
aS'261_171.jpg'
p52
aS'224_138.jpg'
p53
aS'335_76.jpg'
p54
aS'228_141.jpg'
p55
aS'266_176.jpg'
p56
aS'269_179.jpg'
p57
aS'214_129.jpg'
p58
aS'279_25.jpg'
p59
aS'190_107.jpg'
p60
aS'231_144.jpg'
p61
asS'uncued_RT'
p62
(lp63
F0.4608461856842041
aF0.6650590896606445
aF0.42739295959472656
aF0.557020902633667
aF0.6176960468292236
aF0.564755916595459
aF0.6041579246520996
aF0.4698331356048584
aF0.5502219200134277
aF0.4441230297088623
as.