(dp0
S'images'
p1
(lp2
S'9.jpg'
p3
aS'330.jpg'
p4
aS'151.jpg'
p5
aS'179.jpg'
p6
aS'47.jpg'
p7
aS'207.jpg'
p8
aS'75.jpg'
p9
aS'239.jpg'
p10
aS'284.jpg'
p11
aS'279.jpg'
p12
aS'249.jpg'
p13
aS'183.jpg'
p14
aS'60.jpg'
p15
aS'116.jpg'
p16
aS'29.jpg'
p17
aS'145.jpg'
p18
aS'100.jpg'
p19
aS'160.jpg'
p20
aS'71.jpg'
p21
aS'109.jpg'
p22
aS'175.jpg'
p23
aS'340.jpg'
p24
aS'174.jpg'
p25
aS'264.jpg'
p26
aS'3.jpg'
p27
aS'180.jpg'
p28
aS'25.jpg'
p29
aS'350.jpg'
p30
aS'318.jpg'
p31
aS'208.jpg'
p32
aS'121.jpg'
p33
aS'206.jpg'
p34
aS'123.jpg'
p35
aS'49.jpg'
p36
aS'216.jpg'
p37
aS'79.jpg'
p38
aS'338.jpg'
p39
aS'190.jpg'
p40
aS'259.jpg'
p41
aS'28.jpg'
p42
aS'80.jpg'
p43
aS'54.jpg'
p44
aS'155.jpg'
p45
aS'173.jpg'
p46
aS'246.jpg'
p47
aS'108.jpg'
p48
aS'311.jpg'
p49
aS'136.jpg'
p50
aS'200.jpg'
p51
aS'156.jpg'
p52
aS'6.jpg'
p53
aS'42.jpg'
p54
aS'263.jpg'
p55
aS'265.jpg'
p56
aS'169.jpg'
p57
aS'61.jpg'
p58
aS'250.jpg'
p59
aS'324.jpg'
p60
aS'355.jpg'
p61
aS'161.jpg'
p62
aS'282.jpg'
p63
aS'243.jpg'
p64
aS'125.jpg'
p65
aS'232.jpg'
p66
aS'23.jpg'
p67
aS'34.jpg'
p68
aS'31.jpg'
p69
aS'17.jpg'
p70
aS'153.jpg'
p71
aS'271.jpg'
p72
aS'269.jpg'
p73
aS'94.jpg'
p74
aS'187.jpg'
p75
aS'35.jpg'
p76
aS'210.jpg'
p77
aS'303.jpg'
p78
aS'191.jpg'
p79
aS'302.jpg'
p80
aS'65.jpg'
p81
aS'84.jpg'
p82
aS'150.jpg'
p83
aS'258.jpg'
p84
aS'317.jpg'
p85
aS'268.jpg'
p86
aS'334.jpg'
p87
aS'131.jpg'
p88
aS'289.jpg'
p89
aS'192.jpg'
p90
aS'328.jpg'
p91
aS'305.jpg'
p92
aS'87.jpg'
p93
aS'228.jpg'
p94
aS'229.jpg'
p95
aS'194.jpg'
p96
aS'63.jpg'
p97
aS'337.jpg'
p98
aS'211.jpg'
p99
aS'202.jpg'
p100
aS'226.jpg'
p101
aS'52.jpg'
p102
aS'341.jpg'
p103
aS'301.jpg'
p104
aS'212.jpg'
p105
aS'356.jpg'
p106
aS'58.jpg'
p107
aS'110.jpg'
p108
aS'41.jpg'
p109
aS'296.jpg'
p110
aS'315.jpg'
p111
aS'106.jpg'
p112
aS'124.jpg'
p113
aS'144.jpg'
p114
aS'77.jpg'
p115
aS'103.jpg'
p116
aS'223.jpg'
p117
aS'50.jpg'
p118
aS'157.jpg'
p119
aS'254.jpg'
p120
aS'66.jpg'
p121
aS'147.jpg'
p122
aS'93.jpg'
p123
aS'12.jpg'
p124
aS'178.jpg'
p125
aS'5.jpg'
p126
aS'102.jpg'
p127
aS'165.jpg'
p128
aS'199.jpg'
p129
aS'88.jpg'
p130
asS'ratings'
p131
(lp132
(lp133
(NF0.0
tp134
a(I1
F0.068
tp135
a(I1
F2.012
tp136
aa(lp137
(NF0.0
tp138
a(I2
F0.034
tp139
a(I2
F2.012
tp140
aa(lp141
(NF0.0
tp142
a(I4
F0.1
tp143
a(I4
F2.012
tp144
aa(lp145
(NF0.0
tp146
a(I3
F1.367
tp147
aa(lp148
(NF0.0
tp149
a(I4
F0.716
tp150
aa(lp151
(NF0.0
tp152
a(I3
F0.998
tp153
aa(lp154
(NF0.0
tp155
a(I3
F0.416
tp156
aa(lp157
(NF0.0
tp158
a(I2
F1.466
tp159
aa(lp160
(NF0.0
tp161
a(I2
F0.252
tp162
a(I2
F2.012
tp163
aa(lp164
(NF0.0
tp165
a(I1
F0.631
tp166
aa(lp167
(NF0.0
tp168
a(I3
F0.534
tp169
aa(lp170
(NF0.0
tp171
a(I4
F0.583
tp172
aa(lp173
(NF0.0
tp174
a(NF2.012
tp175
aa(lp176
(NF0.0
tp177
a(I2
F0.469
tp178
aa(lp179
(NF0.0
tp180
a(I3
F0.433
tp181
aa(lp182
(NF0.0
tp183
a(I1
F0.518
tp184
aa(lp185
(NF0.0
tp186
a(I2
F0.633
tp187
aa(lp188
(NF0.0
tp189
a(I3
F0.499
tp190
aa(lp191
(NF0.0
tp192
a(I1
F0.535
tp193
aa(lp194
(NF0.0
tp195
a(I2
F0.368
tp196
a(I2
F2.011
tp197
aa(lp198
(NF0.0
tp199
a(I3
F0.267
tp200
a(I3
F2.011
tp201
aa(lp202
(NF0.0
tp203
a(I1
F0.283
tp204
a(I1
F2.013
tp205
aa(lp206
(NF0.0
tp207
a(I2
F0.265
tp208
a(I2
F2.011
tp209
aa(lp210
(NF0.0
tp211
a(I3
F0.5
tp212
aa(lp213
(NF0.0
tp214
a(I2
F0.283
tp215
a(I2
F2.011
tp216
aa(lp217
(NF0.0
tp218
a(I3
F0.584
tp219
aa(lp220
(NF0.0
tp221
a(I1
F0.366
tp222
a(I1
F2.01
tp223
aa(lp224
(NF0.0
tp225
a(I2
F0.316
tp226
a(I2
F2.011
tp227
aa(lp228
(NF0.0
tp229
a(I3
F0.25
tp230
a(I3
F2.01
tp231
aa(lp232
(NF0.0
tp233
a(I1
F0.401
tp234
a(I1
F2.011
tp235
aa(lp236
(NF0.0
tp237
a(I1
F0.4
tp238
a(I1
F2.011
tp239
aa(lp240
(NF0.0
tp241
a(I1
F0.517
tp242
aa(lp243
(NF0.0
tp244
a(I2
F0.35
tp245
a(I2
F2.012
tp246
aa(lp247
(NF0.0
tp248
a(I3
F0.515
tp249
aa(lp250
(NF0.0
tp251
a(I3
F0.565
tp252
aa(lp253
(NF0.0
tp254
a(I3
F0.383
tp255
a(I3
F2.012
tp256
aa(lp257
(NF0.0
tp258
a(I2
F0.334
tp259
a(I2
F2.012
tp260
aa(lp261
(NF0.0
tp262
a(I3
F0.281
tp263
a(I3
F2.009
tp264
aa(lp265
(NF0.0
tp266
a(I3
F0.251
tp267
a(I3
F2.011
tp268
aa(lp269
(NF0.0
tp270
a(I2
F0.25
tp271
a(I2
F2.013
tp272
aa(lp273
(NF0.0
tp274
a(I1
F0.25
tp275
a(I1
F2.012
tp276
aa(lp277
(NF0.0
tp278
a(NF2.011
tp279
aa(lp280
(NF0.0
tp281
a(I3
F0.467
tp282
aa(lp283
(NF0.0
tp284
a(I3
F0.549
tp285
aa(lp286
(NF0.0
tp287
a(I3
F0.367
tp288
a(I3
F2.012
tp289
aa(lp290
(NF0.0
tp291
a(I3
F0.35
tp292
a(I3
F2.012
tp293
aa(lp294
(NF0.0
tp295
a(I2
F0.235
tp296
a(I2
F2.014
tp297
aa(lp298
(NF0.0
tp299
a(I3
F0.335
tp300
a(I3
F2.012
tp301
aa(lp302
(NF0.0
tp303
a(I3
F0.367
tp304
a(I3
F2.013
tp305
aa(lp306
(NF0.0
tp307
a(I3
F0.317
tp308
a(I3
F2.012
tp309
aa(lp310
(NF0.0
tp311
a(I2
F0.215
tp312
a(I2
F2.012
tp313
aa(lp314
(NF0.0
tp315
a(I4
F0.332
tp316
a(I4
F2.01
tp317
aa(lp318
(NF0.0
tp319
a(NF2.012
tp320
aa(lp321
(NF0.0
tp322
a(I3
F0.332
tp323
a(I3
F2.01
tp324
aa(lp325
(NF0.0
tp326
a(I3
F0.199
tp327
a(I3
F2.01
tp328
aa(lp329
(NF0.0
tp330
a(I3
F0.347
tp331
a(I3
F2.011
tp332
aa(lp333
(NF0.0
tp334
a(NF2.015
tp335
aa(lp336
(NF0.0
tp337
a(I3
F0.717
tp338
aa(lp339
(NF0.0
tp340
a(I2
F0.584
tp341
aa(lp342
(NF0.0
tp343
a(I2
F0.5
tp344
aa(lp345
(NF0.0
tp346
a(I1
F0.368
tp347
a(I1
F2.013
tp348
aa(lp349
(NF0.0
tp350
a(I3
F0.45
tp351
aa(lp352
(NF0.0
tp353
a(I3
F0.918
tp354
aa(lp355
(NF0.0
tp356
a(I4
F0.398
tp357
a(I4
F2.01
tp358
aa(lp359
(NF0.0
tp360
a(I2
F0.583
tp361
aa(lp362
(NF0.0
tp363
a(I3
F0.333
tp364
a(I3
F2.013
tp365
aa(lp366
(NF0.0
tp367
a(I2
F0.218
tp368
a(I2
F2.011
tp369
aa(lp370
(NF0.0
tp371
a(I3
F0.334
tp372
a(I3
F2.011
tp373
aa(lp374
(NF0.0
tp375
a(I3
F0.269
tp376
a(I2
F1.853
tp377
aa(lp378
(NF0.0
tp379
a(I2
F0.533
tp380
aa(lp381
(NF0.0
tp382
a(I3
F1.032
tp383
aa(lp384
(NF0.0
tp385
a(I3
F0.666
tp386
aa(lp387
(NF0.0
tp388
a(I3
F0.5
tp389
aa(lp390
(NF0.0
tp391
a(I3
F0.335
tp392
a(I3
F2.011
tp393
aa(lp394
(NF0.0
tp395
a(I3
F0.316
tp396
a(I3
F2.012
tp397
aa(lp398
(NF0.0
tp399
a(I3
F0.717
tp400
aa(lp401
(NF0.0
tp402
a(I3
F0.333
tp403
a(I3
F2.013
tp404
aa(lp405
(NF0.0
tp406
a(I2
F0.567
tp407
aa(lp408
(NF0.0
tp409
a(I4
F1.598
tp410
aa(lp411
(NF0.0
tp412
a(I3
F0.532
tp413
aa(lp414
(NF0.0
tp415
a(I3
F0.683
tp416
aa(lp417
(NF0.0
tp418
a(I3
F0.998
tp419
aa(lp420
(NF0.0
tp421
a(I2
F0.216
tp422
a(I2
F2.011
tp423
aa(lp424
(NF0.0
tp425
a(I3
F0.533
tp426
aa(lp427
(NF0.0
tp428
a(NF2.01
tp429
aa(lp430
(NF0.0
tp431
a(I3
F0.416
tp432
aa(lp433
(NF0.0
tp434
a(I3
F1.849
tp435
aa(lp436
(NF0.0
tp437
a(NF2.013
tp438
aa(lp439
(NF0.0
tp440
a(NF2.012
tp441
aa(lp442
(NF0.0
tp443
a(I3
F1.316
tp444
aa(lp445
(NF0.0
tp446
a(I2
F0.449
tp447
aa(lp448
(NF0.0
tp449
a(I3
F0.35
tp450
a(I3
F2.012
tp451
aa(lp452
(NF0.0
tp453
a(I3
F0.283
tp454
a(I3
F2.011
tp455
aa(lp456
(NF0.0
tp457
a(I2
F0.783
tp458
aa(lp459
(NF0.0
tp460
a(NF2.01
tp461
aa(lp462
(NF0.0
tp463
a(I2
F0.4
tp464
a(I2
F2.012
tp465
aa(lp466
(NF0.0
tp467
a(I3
F1.05
tp468
aa(lp469
(NF0.0
tp470
a(I1
F1.067
tp471
aa(lp472
(NF0.0
tp473
a(I3
F0.317
tp474
a(I3
F2.012
tp475
aa(lp476
(NF0.0
tp477
a(I4
F0.965
tp478
aa(lp479
(NF0.0
tp480
a(I3
F0.815
tp481
aa(lp482
(NF0.0
tp483
a(I2
F0.633
tp484
aa(lp485
(NF0.0
tp486
a(I3
F0.367
tp487
a(I3
F2.011
tp488
aa(lp489
(NF0.0
tp490
a(I3
F0.251
tp491
a(I3
F2.012
tp492
aa(lp493
(NF0.0
tp494
a(I3
F0.368
tp495
a(I3
F2.012
tp496
aa(lp497
(NF0.0
tp498
a(I2
F1.147
tp499
aa(lp500
(NF0.0
tp501
a(I3
F0.832
tp502
aa(lp503
(NF0.0
tp504
a(I4
F1.866
tp505
aa(lp506
(NF0.0
tp507
a(I3
F0.367
tp508
a(I3
F2.013
tp509
aa(lp510
(NF0.0
tp511
a(I1
F0.466
tp512
aa(lp513
(NF0.0
tp514
a(I2
F1.365
tp515
aa(lp516
(NF0.0
tp517
a(I2
F1.301
tp518
aa(lp519
(NF0.0
tp520
a(I4
F0.4
tp521
a(I4
F2.01
tp522
aa(lp523
(NF0.0
tp524
a(I2
F0.482
tp525
aa(lp526
(NF0.0
tp527
a(I3
F0.382
tp528
a(I3
F2.009
tp529
aa(lp530
(NF0.0
tp531
a(I3
F0.417
tp532
aa(lp533
(NF0.0
tp534
a(I3
F0.748
tp535
aa(lp536
(NF0.0
tp537
a(I2
F0.348
tp538
a(I2
F2.01
tp539
aa(lp540
(NF0.0
tp541
a(I3
F1.131
tp542
aa(lp543
(NF0.0
tp544
a(NF2.012
tp545
aa(lp546
(NF0.0
tp547
a(I2
F1.184
tp548
aa(lp549
(NF0.0
tp550
a(I3
F0.367
tp551
a(I3
F2.012
tp552
aa(lp553
(NF0.0
tp554
a(I3
F0.75
tp555
aa(lp556
(NF0.0
tp557
a(I3
F0.383
tp558
a(I3
F2.01
tp559
aa(lp560
(NF0.0
tp561
a(I2
F1.117
tp562
aa(lp563
(NF0.0
tp564
a(I2
F0.499
tp565
aa(lp566
(NF0.0
tp567
a(NF2.009
tp568
aa(lp569
(NF0.0
tp570
a(NF2.011
tp571
aasS'run_time'
p572
F700.3220298290253
sS'total_iters'
p573
(lp574
I0
aI1
aI2
aI3
aI4
aI5
aI6
aI7
aI8
aI9
aI10
aI11
aI12
aI13
aI14
aI15
aI16
aI17
aI18
aI19
aI20
aI21
aI22
aI23
aI24
aI25
aI26
aI27
aI28
aI29
aI30
aI31
aI32
aI33
aI34
aI35
aI36
aI37
aI38
aI39
aI40
aI41
aI42
aI43
aI44
aI45
aI46
aI47
aI48
aI49
aI50
aI51
aI52
aI53
aI54
aI55
aI56
aI57
aI58
aI59
aI60
aI61
aI62
aI63
aI64
aI65
aI66
aI67
aI68
aI69
aI70
aI71
aI72
aI73
aI74
aI75
aI76
aI77
aI78
aI79
aI80
aI81
aI82
aI83
aI84
aI85
aI86
aI87
aI88
aI89
aI90
aI91
aI92
aI93
aI94
aI95
aI96
aI97
aI98
aI99
aI100
aI101
aI102
aI103
aI104
aI105
aI106
aI107
aI108
aI109
aI110
aI111
aI112
aI113
aI114
aI115
aI116
aI117
aI118
aI119
aI120
aI121
aI122
aI123
aI124
aI125
aI126
aI127
as.