(lp0
S'A little boring'
p1
aS'Very tired'
p2
accopy_reg
_reconstructor
p3
(cfuture.types.newstr
newstr
p4
c__builtin__
unicode
p5
VLandscapes were easier to remember, because they were composed of large, easily defined shapes and leading lines.
p6
tp7
Rp8
ag3
(g4
g5
VThe right side felt easier. 
p9
tp10
Rp11
ag3
(g4
g5
VI used word associations, talking to myself as I recognized each image \u2014 things like "bangs" or mountain over river. It helped me recall a few.
p12
tp13
Rp14
a.