(dp0
S'cued_RT'
p1
(lp2
sS'cued'
p3
(lp4
S'349_17.jpg'
p5
aS'342_163.jpg'
p6
aS'321_144.jpg'
p7
aS'230_21.jpg'
p8
aS'218_132.jpg'
p9
aS'190_107.jpg'
p10
aS'328_150.jpg'
p11
aS'285_111.jpg'
p12
aS'208_123.jpg'
p13
aS'293_119.jpg'
p14
asS'run_time'
p15
F50.05797290802002
sS'cue_tuples'
p16
(lp17
(S'cue_L'
p18
S'F'
p19
I0
tp20
a(g18
g19
I1
tp21
a(g18
g19
I0
tp22
a(g18
g19
I1
tp23
a(g18
g19
I0
tp24
a(g18
S'L'
p25
I0
tp26
a(g18
g25
I0
tp27
a(g18
g25
I0
tp28
a(g18
g25
I0
tp29
a(g18
g25
I1
tp30
asS'uncued'
p31
(lp32
S'246_36.jpg'
p33
aS'277_104.jpg'
p34
aS'269_57.jpg'
p35
aS'201_117.jpg'
p36
aS'308_132.jpg'
p37
aS'183_100.jpg'
p38
aS'272_10.jpg'
p39
aS'262_50.jpg'
p40
aS'333_155.jpg'
p41
aS'286_112.jpg'
p42
asS'uncued_RT'
p43
(lp44
F1.186337947845459
aF0.6425788402557373
aF0.690392017364502
aF0.5862679481506348
aF0.503403902053833
aF0.6945328712463379
aF0.7197270393371582
aF1.608077049255371
aF0.743880033493042
aF1.261376142501831
as.