(dp0
S'cue_tuples'
p1
(lp2
(S'cue_R'
p3
S'L'
p4
I0
tp5
a(g3
g4
I1
tp6
a(g3
g4
I0
tp7
a(g3
g4
I0
tp8
a(g3
g4
I0
tp9
a(g3
g4
I0
tp10
a(g3
g4
I0
tp11
a(g3
g4
I0
tp12
a(g3
g4
I0
tp13
a(g3
g4
I1
tp14
asS'uncued'
p15
(lp16
S'22827276.thl_sunaaiqiqcggrskoqgy.jpg'
p17
aS'26424075.thl_sunaipyohrqlwngaqif.jpg'
p18
aS'23014927.thl_sunabkmdplkdbvxriff.jpg'
p19
aS'26379054.thl_sunaeouogqolxvggaoq.jpg'
p20
aS'22923068.thl_sunabcfpwlpolnutyju.jpg'
p21
aS'26451269.thl_sunbpvgllfdejxcpjqp.jpg'
p22
aS'22827540.thl_sunaajpqmulidejvjsr.jpg'
p23
aS'22921112.thl_sunabbwggenhfbftyvi.jpg'
p24
aS'26370116.thl_sunacepzfrmtkiqonpy.jpg'
p25
aS'22826832.thl_sunaahzooisqkwlxwoz.jpg'
p26
asS'cued'
p27
(lp28
S'26437107.thl_sunaydywdmvlfddbxbk.jpg'
p29
aS'26426575.thl_sunajwqkfsykceonyig.jpg'
p30
aS'26378596.thl_sunaenwuebvlpdmntju.jpg'
p31
aS'26373407.thl_sunacycdoztxoluxjyk.jpg'
p32
aS'26427867.thl_sunakodkcslgqhqlgwl.jpg'
p33
aS'26384637.thl_sunaffgsyyvoqdlkmnk.jpg'
p34
aS'26377133.thl_sunaefgzwiramypjvtd.jpg'
p35
aS'26369923.thl_sunacbeefkxpymwevpk.jpg'
p36
aS'26373195.thl_sunacxeheuiigkcgquf.jpg'
p37
aS'26374346.thl_sunadfktsqjthoglcsm.jpg'
p38
asS'uncued_RT'
p39
(lp40
F0.6020810604095459
aF0.44847583770751953
asS'cued_RT'
p41
(lp42
F1.0733258724212646
aF0.3330409526824951
aF0.6908600330352783
aF0.38835906982421875
aF0.38401198387145996
aF0.541964054107666
aF0.4515359401702881
aF0.42933201789855957
as.