(dp0
S'images'
p1
(lp2
S'sunaalcrrdbjgdztbiz.jpg'
p3
aS'26425370.thl.jpg'
p4
aS'26437068.thl.jpg'
p5
aS'sunaajspcoepticvplv.jpg'
p6
aS'sunabtrnbvpppgczjim.jpg'
p7
aS'26451318.thl.jpg'
p8
aS'26440073.thl.jpg'
p9
aS'sunajjxttslobudoqbv.jpg'
p10
aS'26440422.thl.jpg'
p11
aS'sunaeoghzrjarigmwua.jpg'
p12
aS'sunapqkyghktgtosuuk.jpg'
p13
aS'23071000.thl.jpg'
p14
aS'sunamlotskmmsjeogby.jpg'
p15
aS'22856172.thl.jpg'
p16
aS'23063814.thl.jpg'
p17
aS'26441591.thl.jpg'
p18
aS'26370445.thl.jpg'
p19
aS'22853352.thl.jpg'
p20
aS'sunaakxgygjfqrzpyoz.jpg'
p21
aS'26378986.thl.jpg'
p22
aS'26431753.thl.jpg'
p23
aS'sunarfdklgdnjgeqfjg.jpg'
p24
aS'sunarceibpcyacbmfga.jpg'
p25
aS'sunaathajvxrgptwhoj.jpg'
p26
aS'26428545.thl.jpg'
p27
aS'26374787.thl.jpg'
p28
aS'26421538.thl.jpg'
p29
aS'26387690.thl.jpg'
p30
aS'sunbpflsdaxnddnwcqi.jpg'
p31
aS'sunagsiwrmuixqgdimb.jpg'
p32
aS'sunahiphsekjihkafsl.jpg'
p33
aS'sunablfqiwfqomjarht.jpg'
p34
aS'sunacacflqoyxhsqzhe.jpg'
p35
aS'26427111.thl.jpg'
p36
aS'26433347.thl.jpg'
p37
aS'sundahdxwmcdluscvot.jpg'
p38
aS'sunaddtdkycxbqlpfqa.jpg'
p39
aS'22887144.thl.jpg'
p40
aS'sunatstrpjxhvtbaczf.jpg'
p41
aS'sunacsaovnjezqwbykf.jpg'
p42
asS'ratings'
p43
(lp44
(lp45
(NF0.0
tp46
aa(lp47
(NF0.0
tp48
a(I4
F1.047
tp49
aa(lp50
(NF0.0
tp51
a(I3
F0.982
tp52
aa(lp53
(NF0.0
tp54
a(I2
F1.313
tp55
aa(lp56
(NF0.0
tp57
a(I2
F1.545
tp58
aa(lp59
(NF0.0
tp60
a(I3
F1.763
tp61
aa(lp62
(NF0.0
tp63
a(I4
F0.879
tp64
aa(lp65
(NF0.0
tp66
a(I3
F0.995
tp67
aa(lp68
(NF0.0
tp69
a(I2
F1.147
tp70
aa(lp71
(NF0.0
tp72
a(I3
F0.997
tp73
aa(lp74
(NF0.0
tp75
a(I3
F1.179
tp76
aa(lp77
(NF0.0
tp78
a(I3
F1.463
tp79
aa(lp80
(NF0.0
tp81
a(I3
F0.912
tp82
aa(lp83
(NF0.0
tp84
a(I4
F1.13
tp85
aa(lp86
(NF0.0
tp87
a(I4
F0.862
tp88
aa(lp89
(NF0.0
tp90
a(I4
F1.829
tp91
aa(lp92
(NF0.0
tp93
a(I3
F0.944
tp94
aa(lp95
(NF0.0
tp96
a(I3
F0.93
tp97
aa(lp98
(NF0.0
tp99
a(I4
F0.961
tp100
aa(lp101
(NF0.0
tp102
a(I3
F0.696
tp103
aa(lp104
(NF0.0
tp105
a(I3
F0.948
tp106
aa(lp107
(NF0.0
tp108
a(I3
F0.981
tp109
aa(lp110
(NF0.0
tp111
a(I3
F1.225
tp112
aa(lp113
(NF0.0
tp114
a(I2
F0.996
tp115
aa(lp116
(NF0.0
tp117
aa(lp118
(NF0.0
tp119
a(I3
F1.029
tp120
aa(lp121
(NF0.0
tp122
a(I3
F0.697
tp123
aa(lp124
(NF0.0
tp125
a(I3
F0.746
tp126
aa(lp127
(NF0.0
tp128
a(I1
F0.913
tp129
aa(lp130
(NF0.0
tp131
a(I2
F0.946
tp132
aa(lp133
(NF0.0
tp134
a(I2
F0.945
tp135
aa(lp136
(NF0.0
tp137
a(I3
F1.029
tp138
aa(lp139
(NF0.0
tp140
a(I2
F1.13
tp141
aa(lp142
(NF0.0
tp143
a(I2
F0.848
tp144
aa(lp145
(NF0.0
tp146
a(I3
F1.064
tp147
aa(lp148
(NF0.0
tp149
a(I3
F0.962
tp150
aa(lp151
(NF0.0
tp152
a(I3
F0.66
tp153
aa(lp154
(NF0.0
tp155
a(I2
F0.862
tp156
aa(lp157
(NF0.0
tp158
a(I4
F1.195
tp159
aa(lp160
(NF0.0
tp161
a(I2
F1.13
tp162
aasS'run_time'
p163
F122.24229598045349
sS'total_iters'
p164
(lp165
I0
aI1
aI2
aI3
aI4
aI5
aI6
aI7
aI8
aI9
aI10
aI11
aI12
aI13
aI14
aI15
aI16
aI17
aI18
aI19
aI20
aI21
aI22
aI23
aI24
aI25
aI26
aI27
aI28
aI29
aI30
aI31
aI32
aI33
aI34
aI35
aI36
aI37
aI38
aI39
as.