(dp0
S'images'
p1
(lp2
S'26423296.thl.jpg'
p3
aS'26428057.thl.jpg'
p4
aS'23029830.thl.jpg'
p5
aS'26390189.thl.jpg'
p6
aS'sunaauueuhhvklldjik.jpg'
p7
aS'26374605.thl.jpg'
p8
aS'26392651.thl.jpg'
p9
aS'sunagfvluwixdsozaql.jpg'
p10
aS'22896812.thl.jpg'
p11
aS'26431848.thl.jpg'
p12
aS'sunahbvlpavurqoxdeq.jpg'
p13
aS'sunaakgekhjklxmvulj.jpg'
p14
aS'sunaivflshbyfrfzhqb.jpg'
p15
aS'sunaiwfobocrruqznsv.jpg'
p16
aS'26373362.thl.jpg'
p17
aS'sunabkngeblodihjvbk.jpg'
p18
aS'23025535.thl.jpg'
p19
aS'22875816.thl.jpg'
p20
aS'sunapqwoeotxshkukbh.jpg'
p21
aS'sunabeyhmxodahoieyk.jpg'
p22
aS'sunaddsaeicthrfbkhe.jpg'
p23
aS'26379612.thl.jpg'
p24
aS'sunabcuurugvxwparpk.jpg'
p25
aS'26441750.thl.jpg'
p26
aS'sunasnqkkyhilqkxiqm.jpg'
p27
aS'sunaalltyvjhbzhkmvg.jpg'
p28
aS'sunaqbmgkgqucajzrkp.jpg'
p29
aS'26427983.thl.jpg'
p30
aS'26374055.thl.jpg'
p31
aS'26432173.thl.jpg'
p32
aS'sunabueyoajufbkraki.jpg'
p33
aS'sunacerqowiaeoqkmsq.jpg'
p34
aS'26432148.thl.jpg'
p35
aS'sunbgzjryivyczuvkvm.jpg'
p36
aS'sunbfzchmomnvzhbxdg.jpg'
p37
aS'26433592.thl.jpg'
p38
aS'sunabasphceswhwwqvv.jpg'
p39
aS'sunaemcowdozyphwknd.jpg'
p40
aS'22919000.thl.jpg'
p41
aS'26374135.thl.jpg'
p42
asS'ratings'
p43
(lp44
(lp45
(NF0.0
tp46
a(I2
F1.065
tp47
aa(lp48
(NF0.0
tp49
a(I3
F1.379
tp50
aa(lp51
(NF0.0
tp52
a(I4
F0.596
tp53
aa(lp54
(NF0.0
tp55
a(I1
F0.797
tp56
aa(lp57
(NF0.0
tp58
a(I2
F0.999
tp59
aa(lp60
(NF0.0
tp61
a(I3
F0.912
tp62
aa(lp63
(NF0.0
tp64
a(I4
F1.03
tp65
aa(lp66
(NF0.0
tp67
aa(lp68
(NF0.0
tp69
a(I3
F0.963
tp70
aa(lp71
(NF0.0
tp72
a(I3
F1.13
tp73
aa(lp74
(NF0.0
tp75
a(I2
F0.963
tp76
aa(lp77
(NF0.0
tp78
a(I2
F1.18
tp79
aa(lp80
(NF0.0
tp81
a(I3
F0.812
tp82
aa(lp83
(NF0.0
tp84
a(I3
F0.794
tp85
aa(lp86
(NF0.0
tp87
a(I3
F0.713
tp88
aa(lp89
(NF0.0
tp90
a(I3
F0.612
tp91
aa(lp92
(NF0.0
tp93
a(I2
F0.729
tp94
aa(lp95
(NF0.0
tp96
a(I3
F1.047
tp97
aa(lp98
(NF0.0
tp99
a(I3
F0.778
tp100
aa(lp101
(NF0.0
tp102
a(I2
F0.697
tp103
aa(lp104
(NF0.0
tp105
a(I1
F1.328
tp106
aa(lp107
(NF0.0
tp108
a(I3
F0.896
tp109
aa(lp110
(NF0.0
tp111
a(I3
F0.846
tp112
aa(lp113
(NF0.0
tp114
a(I2
F0.796
tp115
aa(lp116
(NF0.0
tp117
a(I3
F0.862
tp118
aa(lp119
(NF0.0
tp120
a(I3
F0.792
tp121
aa(lp122
(NF0.0
tp123
a(I2
F0.713
tp124
aa(lp125
(NF0.0
tp126
a(I3
F0.595
tp127
aa(lp128
(NF0.0
tp129
a(I2
F1.244
tp130
aa(lp131
(NF0.0
tp132
a(I1
F1.163
tp133
aa(lp134
(NF0.0
tp135
a(I2
F0.963
tp136
aa(lp137
(NF0.0
tp138
a(I3
F0.646
tp139
aa(lp140
(NF0.0
tp141
a(I3
F0.996
tp142
aa(lp143
(NF0.0
tp144
a(I3
F1.046
tp145
aa(lp146
(NF0.0
tp147
a(I1
F0.58
tp148
aa(lp149
(NF0.0
tp150
a(I2
F0.813
tp151
aa(lp152
(NF0.0
tp153
a(I3
F1.013
tp154
aa(lp155
(NF0.0
tp156
a(I2
F0.848
tp157
aa(lp158
(NF0.0
tp159
aa(lp160
(NF0.0
tp161
a(I1
F0.679
tp162
aasS'run_time'
p163
F122.17612600326538
sS'total_iters'
p164
(lp165
I0
aI1
aI2
aI3
aI4
aI5
aI6
aI7
aI8
aI9
aI10
aI11
aI12
aI13
aI14
aI15
aI16
aI17
aI18
aI19
aI20
aI21
aI22
aI23
aI24
aI25
aI26
aI27
aI28
aI29
aI30
aI31
aI32
aI33
aI34
aI35
aI36
aI37
aI38
aI39
as.