(dp0
S'cue_tuples'
p1
(lp2
(S'cue_L'
p3
S'F'
p4
I0
tp5
a(g3
g4
I0
tp6
a(g3
g4
I0
tp7
a(g3
g4
I1
tp8
a(g3
g4
I0
tp9
a(g3
g4
I0
tp10
a(g3
g4
I0
tp11
a(g3
g4
I0
tp12
a(g3
g4
I0
tp13
a(g3
g4
I0
tp14
asS'uncued'
p15
(lp16
S'26374605.thl_sunadflbrkckmepztql.jpg'
p17
aS'03015528000_sunaaacnosloariecpa.jpg'
p18
aS'23025535.thl_sunabohxbskznglnrhv.jpg'
p19
aS'26421575.thl_sunahbvlpavurqoxdeq.jpg'
p20
aS'26374055.thl_sunadakkdovnuzlycvp.jpg'
p21
aS'26441750.thl_sunbfzchmomnvzhbxdg.jpg'
p22
aS'26369944.thl_sunaccdtpgenvcbcbcf.jpg'
p23
aS'22925624.thl_sunabeyhmxodahoieyk.jpg'
p24
aS'26424440.thl_sunaivflshbyfrfzhqb.jpg'
p25
aS'22875816.thl_sunaauueuhhvklldjik.jpg'
p26
asS'cued'
p27
(lp28
S'23029830.thl_sunabrjdpmoedcdjbpo.jpg'
p29
aS'26392651.thl_sunagfvluwixdsozaql.jpg'
p30
aS'26432148.thl_sunapqwoeotxshkukbh.jpg'
p31
aS'26455774.thl_sunbvzmgrdvaakxusbu.jpg'
p32
aS'23060574.thl_sunabwfvcqqidycwypa.jpg'
p33
aS'22851864.thl_sunaakgekhjklxmvulj.jpg'
p34
aS'26373362.thl_sunacxtcahkymosigud.jpg'
p35
aS'26427983.thl_sunalntxqqadigcletd.jpg'
p36
aS'26433942.thl_sunasnqkkyhilqkxiqm.jpg'
p37
aS'22855536.thl_sunaalltyvjhbzhkmvg.jpg'
p38
asS'uncued_RT'
p39
(lp40
F0.29827213287353516
asS'cued_RT'
p41
(lp42
F0.5495810508728027
aF1.0274748802185059
aF0.39820194244384766
aF0.36054396629333496
aF0.4554910659790039
aF0.5841619968414307
aF0.41298389434814453
aF0.4878251552581787
aF0.4095919132232666
as.