(dp0
S'images'
p1
(lp2
S'sunaptrqvaooxfvktvw.jpg'
p3
aS'sunadochqcucscehsgk.jpg'
p4
aS'sunaglqunwuycxydmyu.jpg'
p5
aS'sunacsdhbbsybcyxnel.jpg'
p6
aS'26374803.thl.jpg'
p7
aS'sunaygrtwrwfezqjizr.jpg'
p8
aS'sunafkmnlytenlsywia.jpg'
p9
aS'sunaeomlfaabhpswasy.jpg'
p10
aS'sunadpnqovzckyikrjo.jpg'
p11
aS'sunadnjjzohjhbohlwq.jpg'
p12
aS'sunagvxkjokqimstxpe.jpg'
p13
aS'26451168.thl.jpg'
p14
aS'26389125.thl.jpg'
p15
aS'sunabjuovqvyfuzvqwt.jpg'
p16
aS'sunbaoizrfijvhpnnjn.jpg'
p17
aS'26374709.thl.jpg'
p18
aS'sunaffstbkappprzxnv.jpg'
p19
aS'26443034.thl.jpg'
p20
aS'26420979.thl.jpg'
p21
aS'26427612.thl.jpg'
p22
aS'26384554.thl.jpg'
p23
aS'sunbprywzqxjcezkbch.jpg'
p24
aS'26374767.thl.jpg'
p25
aS'26386846.thl.jpg'
p26
aS'26429130.thl.jpg'
p27
aS'26439074.thl.jpg'
p28
aS'sunafvsxtzaizojicxx.jpg'
p29
aS'sunafhmnhsdurlvddpw.jpg'
p30
aS'sunagetqixeypsysbpn.jpg'
p31
aS'26419689.thl.jpg'
p32
aS'26387568.thl.jpg'
p33
aS'26425112.thl.jpg'
p34
aS'26421382.thl.jpg'
p35
aS'sunabyfxcxhdebvdyfd.jpg'
p36
aS'26377777.thl.jpg'
p37
aS'22826748.thl.jpg'
p38
aS'sunadfndyrtqqiasoig.jpg'
p39
aS'26439297.thl.jpg'
p40
aS'23007415.thl.jpg'
p41
aS'sunaeisnjeetzmkbuad.jpg'
p42
asS'ratings'
p43
(lp44
(lp45
(NF0.0
tp46
a(I2
F1.13
tp47
aa(lp48
(NF0.0
tp49
a(I3
F0.981
tp50
aa(lp51
(NF0.0
tp52
aa(lp53
(NF0.0
tp54
a(I3
F0.747
tp55
aa(lp56
(NF0.0
tp57
a(I2
F1.029
tp58
aa(lp59
(NF0.0
tp60
a(I3
F0.945
tp61
aa(lp62
(NF0.0
tp63
a(I3
F0.99
tp64
aa(lp65
(NF0.0
tp66
a(I1
F1.377
tp67
aa(lp68
(NF0.0
tp69
a(I4
F1.345
tp70
aa(lp71
(NF0.0
tp72
a(I1
F1.746
tp73
aa(lp74
(NF0.0
tp75
a(I1
F1.162
tp76
aa(lp77
(NF0.0
tp78
a(I2
F1.379
tp79
aa(lp80
(NF0.0
tp81
a(I1
F1.227
tp82
aa(lp83
(NF0.0
tp84
a(I4
F1.278
tp85
aa(lp86
(NF0.0
tp87
a(I3
F1.297
tp88
aa(lp89
(NF0.0
tp90
a(I4
F0.962
tp91
aa(lp92
(NF0.0
tp93
a(I3
F0.963
tp94
aa(lp95
(NF0.0
tp96
a(I2
F1.144
tp97
aa(lp98
(NF0.0
tp99
a(I3
F1.311
tp100
aa(lp101
(NF0.0
tp102
a(I4
F1.112
tp103
aa(lp104
(NF0.0
tp105
a(I4
F1.229
tp106
aa(lp107
(NF0.0
tp108
a(I3
F0.73
tp109
aa(lp110
(NF0.0
tp111
a(I2
F0.878
tp112
aa(lp113
(NF0.0
tp114
a(I1
F1.345
tp115
aa(lp116
(NF0.0
tp117
a(I4
F0.895
tp118
aa(lp119
(NF0.0
tp120
a(I3
F1.212
tp121
aa(lp122
(NF0.0
tp123
a(I3
F1.211
tp124
aa(lp125
(NF0.0
tp126
a(I3
F1.245
tp127
aa(lp128
(NF0.0
tp129
a(I3
F0.862
tp130
aa(lp131
(NF0.0
tp132
a(I2
F0.83
tp133
aa(lp134
(NF0.0
tp135
a(I3
F1.062
tp136
aa(lp137
(NF0.0
tp138
a(I2
F1.546
tp139
aa(lp140
(NF0.0
tp141
a(I4
F1.045
tp142
aa(lp143
(NF0.0
tp144
a(I4
F0.862
tp145
aa(lp146
(NF0.0
tp147
a(I3
F1.295
tp148
aa(lp149
(NF0.0
tp150
aa(lp151
(NF0.0
tp152
a(I3
F1.444
tp153
aa(lp154
(NF0.0
tp155
a(I2
F1.03
tp156
aa(lp157
(NF0.0
tp158
a(I4
F0.779
tp159
aa(lp160
(NF0.0
tp161
a(I2
F1.029
tp162
aasS'run_time'
p163
F122.40983200073242
sS'total_iters'
p164
(lp165
I0
aI1
aI2
aI3
aI4
aI5
aI6
aI7
aI8
aI9
aI10
aI11
aI12
aI13
aI14
aI15
aI16
aI17
aI18
aI19
aI20
aI21
aI22
aI23
aI24
aI25
aI26
aI27
aI28
aI29
aI30
aI31
aI32
aI33
aI34
aI35
aI36
aI37
aI38
aI39
as.