(dp0
S'cue_tuples'
p1
(lp2
(S'cue_R'
p3
S'L'
p4
I0
tp5
a(g3
g4
I0
tp6
a(g3
g4
I1
tp7
a(g3
g4
I0
tp8
a(g3
g4
I0
tp9
a(g3
g4
I0
tp10
a(g3
g4
I0
tp11
a(g3
g4
I0
tp12
a(g3
g4
I0
tp13
a(g3
g4
I0
tp14
asS'uncued'
p15
(lp16
S'26387568.thl_sunafkmnlytenlsywia.jpg'
p17
aS'26425112.thl_sunaizgnnplsvajzhkc.jpg'
p18
aS'26379430.thl_sunaeutbrtswvsozxyk.jpg'
p19
aS'26374767.thl_sunadnjjzohjhbohlwq.jpg'
p20
aS'26437080.thl_sunayaepykrqvenaqqy.jpg'
p21
aS'26386846.thl_sunafhmnhsdurlvddpw.jpg'
p22
aS'22854888.thl_sunaakxjfbrrequcjmx.jpg'
p23
aS'26374709.thl_sunadfndyrtqqiasoig.jpg'
p24
aS'26384863.thl_sunaffstbkappprzxnv.jpg'
p25
aS'26421368.thl_sunagvjurcwdbixvnyi.jpg'
p26
asS'cued'
p27
(lp28
S'26422598.thl_sunahmhrncocyhsjpxk.jpg'
p29
aS'22887480.thl_sunaavtbadenwnzeutj.jpg'
p30
aS'26427612.thl_sunaknlirqjqiwbbeeg.jpg'
p31
aS'26439297.thl_sunbagfpovqwbuexqdn.jpg'
p32
aS'26374713.thl_sunadikxpvqeabxrvvc.jpg'
p33
aS'26432175.thl_sunaptrqvaooxfvktvw.jpg'
p34
aS'23007415.thl_sunabjuovqvyfuzvqwt.jpg'
p35
aS'26421382.thl_sunagvxkjokqimstxpe.jpg'
p36
aS'23076640.thl_sunabyfxcxhdebvdyfd.jpg'
p37
aS'26374803.thl_sunadpnqovzckyikrjo.jpg'
p38
asS'uncued_RT'
p39
(lp40
F0.39566898345947266
asS'cued_RT'
p41
(lp42
F0.3713388442993164
aF0.3928639888763428
aF0.3426179885864258
aF0.49231600761413574
aF0.48494720458984375
aF0.5168099403381348
aF0.3483459949493408
aF0.5623378753662109
aF0.4220459461212158
as.