(dp0
S'cue_tuples'
p1
(lp2
(S'cue_L'
p3
S'L'
p4
I0
tp5
a(g3
g4
I0
tp6
a(g3
g4
I0
tp7
a(g3
g4
I0
tp8
a(g3
g4
I0
tp9
a(g3
g4
I0
tp10
a(g3
g4
I0
tp11
a(g3
g4
I0
tp12
a(g3
g4
I0
tp13
a(g3
g4
I0
tp14
asS'uncued'
p15
(lp16
S'00966960627fa_sunaygrtwrwfezqjizr.jpg'
p17
aS'00061931230fb_sunaaekxzjzrfgtkwjf.jpg'
p18
aS'00280940422fb_sunabohxbskznglnrhv.jpg'
p19
aS'00903960620fa_sunanainkqdvktzoxyl.jpg'
p20
aS'00130931230fa_sunaamvxnvouicstkjb.jpg'
p21
aS'00772941201fa_sunafpfpiiujzoesnqg.jpg'
p22
aS'00147931230fb_sunaatpkocdkocwxpkb.jpg'
p23
aS'01011960627fa_sundahdxwmcdluscvot.jpg'
p24
aS'00744941201fa_sunaeomlfaabhpswasy.jpg'
p25
aS'00799941205fa_sunagutjvdvnhxejerz.jpg'
p26
asS'cued'
p27
(lp28
S'00116931230fa_sunaakqepfoeqomfgxf.jpg'
p29
aS'00081941031fa_sunaaftlyfudyzuhqzf.jpg'
p30
aS'00112931230fa_sunaakjaacuzulqckgl.jpg'
p31
aS'00986960627fa_sunbgzjryivyczuvkvm.jpg'
p32
aS'00947960627fa_sunasmmcxdddtmtazwx.jpg'
p33
aS'00681941121fa_sunadqmjrhfjyuzyvdd.jpg'
p34
aS'00871940307_sunajrujcsdxmfbssmc.jpg'
p35
aS'00987960627fa_sunbloeoiozwjjsiamp.jpg'
p36
aS'00788941205fa_sunagountlxpzkytsmp.jpg'
p37
aS'00214940128fa_sunabbafjowbzcvbucc.jpg'
p38
asS'uncued_RT'
p39
(lp40
F0.4059281349182129
aF0.5525810718536377
aF0.7285399436950684
aF0.497344970703125
aF0.6325109004974365
aF0.4222829341888428
aF0.41631484031677246
aF0.7269809246063232
aF0.6182799339294434
aF0.5458371639251709
asS'cued_RT'
p41
(lp42
s.