(dp0
S'images'
p1
(lp2
S'00630941031fa.jpg'
p3
aS'00116931230fa.jpg'
p4
aS'00772941201fa.jpg'
p5
aS'sunaeomlfaabhpswasy.jpg'
p6
aS'00147931230fb.jpg'
p7
aS'00947960627fa.jpg'
p8
aS'sunaygrtwrwfezqjizr.jpg'
p9
aS'sunagountlxpzkytsmp.jpg'
p10
aS'00112931230fa.jpg'
p11
aS'00986960627fa.jpg'
p12
aS'sunabohxbskznglnrhv.jpg'
p13
aS'00681941121fa.jpg'
p14
aS'sunaamvxnvouicstkjb.jpg'
p15
aS'01011960627fa.jpg'
p16
aS'00061931230fb.jpg'
p17
aS'00130931230fa.jpg'
p18
aS'sunaaftlyfudyzuhqzf.jpg'
p19
aS'sunadpnqovzckyikrjo.jpg'
p20
aS'sunaaekxzjzrfgtkwjf.jpg'
p21
aS'sunabyfxcxhdebvdyfd.jpg'
p22
aS'sunaakqepfoeqomfgxf.jpg'
p23
aS'sunahawfngukizslzsd.jpg'
p24
aS'00887960530.jpg'
p25
aS'sunbloeoiozwjjsiamp.jpg'
p26
aS'sunabqowuarvqqcnipn.jpg'
p27
aS'sunaakjaacuzulqckgl.jpg'
p28
aS'sunafhmnhsdurlvddpw.jpg'
p29
aS'00723941201fa.jpg'
p30
aS'sunaapfaivxqoynnwwp.jpg'
p31
aS'00292940422fb.jpg'
p32
aS'00676941121fa.jpg'
p33
aS'00267940128fb.jpg'
p34
aS'00090931230fa.jpg'
p35
aS'00276940422fa.jpg'
p36
aS'sunbesrwkdsffeogeqq.jpg'
p37
aS'00894960620fa.jpg'
p38
aS'00751960620fa.jpg'
p39
aS'00891960530fa.jpg'
p40
aS'sunamlotskmmsjeogby.jpg'
p41
aS'sunadakkdovnuzlycvp.jpg'
p42
asS'ratings'
p43
(lp44
(lp45
(NF0.0
tp46
aa(lp47
(NF0.0
tp48
a(I1
F0.963
tp49
aa(lp50
(NF0.0
tp51
a(I1
F1.101
tp52
aa(lp53
(NF0.0
tp54
a(I3
F1.564
tp55
aa(lp56
(NF0.0
tp57
a(I1
F0.966
tp58
aa(lp59
(NF0.0
tp60
a(I1
F1.143
tp61
aa(lp62
(NF0.0
tp63
a(I2
F1.554
tp64
aa(lp65
(NF0.0
tp66
a(I4
F1.507
tp67
aa(lp68
(NF0.0
tp69
a(I2
F1.342
tp70
aa(lp71
(NF0.0
tp72
a(I1
F1.359
tp73
aa(lp74
(NF0.0
tp75
a(I3
F1.167
tp76
aa(lp77
(NF0.0
tp78
a(I1
F1.116
tp79
aa(lp80
(NF0.0
tp81
a(I3
F1.919
tp82
aa(lp83
(NF0.0
tp84
a(I1
F1.135
tp85
aa(lp86
(NF0.0
tp87
a(I1
F1.292
tp88
aa(lp89
(NF0.0
tp90
a(I1
F0.897
tp91
aa(lp92
(NF0.0
tp93
a(I2
F1.306
tp94
aa(lp95
(NF0.0
tp96
aa(lp97
(NF0.0
tp98
a(I3
F1.467
tp99
aa(lp100
(NF0.0
tp101
a(I2
F1.635
tp102
aa(lp103
(NF0.0
tp104
a(I2
F1.131
tp105
aa(lp106
(NF0.0
tp107
a(I4
F1.132
tp108
aa(lp109
(NF0.0
tp110
a(I2
F1.528
tp111
aa(lp112
(NF0.0
tp113
a(I3
F1.044
tp114
aa(lp115
(NF0.0
tp116
a(I2
F1.466
tp117
aa(lp118
(NF0.0
tp119
a(I3
F1.734
tp120
aa(lp121
(NF0.0
tp122
a(I2
F1.511
tp123
aa(lp124
(NF0.0
tp125
a(I2
F1.407
tp126
aa(lp127
(NF0.0
tp128
a(I2
F1.7
tp129
aa(lp130
(NF0.0
tp131
a(I2
F1.787
tp132
aa(lp133
(NF0.0
tp134
a(I2
F1.033
tp135
aa(lp136
(NF0.0
tp137
a(I2
F0.755
tp138
aa(lp139
(NF0.0
tp140
a(I2
F1.054
tp141
aa(lp142
(NF0.0
tp143
a(I1
F1.847
tp144
aa(lp145
(NF0.0
tp146
a(I1
F1.866
tp147
aa(lp148
(NF0.0
tp149
aa(lp150
(NF0.0
tp151
a(I1
F1.333
tp152
aa(lp153
(NF0.0
tp154
a(I2
F1.308
tp155
aa(lp156
(NF0.0
tp157
a(I3
F1.34
tp158
aa(lp159
(NF0.0
tp160
a(I4
F1.458
tp161
aasS'run_time'
p162
F123.12710189819336
sS'total_iters'
p163
(lp164
I0
aI1
aI2
aI3
aI4
aI5
aI6
aI7
aI8
aI9
aI10
aI11
aI12
aI13
aI14
aI15
aI16
aI17
aI18
aI19
aI20
aI21
aI22
aI23
aI24
aI25
aI26
aI27
aI28
aI29
aI30
aI31
aI32
aI33
aI34
aI35
aI36
aI37
aI38
aI39
as.