(dp0
S'cue_tuples'
p1
(lp2
(S'cue_R'
p3
S'L'
p4
I0
tp5
a(g3
g4
I1
tp6
a(g3
g4
I0
tp7
a(g3
g4
I0
tp8
a(g3
g4
I0
tp9
a(g3
g4
I0
tp10
a(g3
g4
I0
tp11
a(g3
g4
I0
tp12
a(g3
g4
I0
tp13
a(g3
g4
I0
tp14
asS'uncued'
p15
(lp16
S'00834940307fa_sunaibnpvhkdpdnzcnz.jpg'
p17
aS'00955960627fb_sunauburywlkjszngcq.jpg'
p18
aS'00786941205fa_sunagmhildamktmqjss.jpg'
p19
aS'00636941031fa_sunaddtdkycxbqlpfqa.jpg'
p20
aS'00080931230fb_sunaafjszryxyavjzln.jpg'
p21
aS'00851940307fa_sunaivflshbyfrfzhqb.jpg'
p22
aS'00700941121fa_sunadsgmtznewzyasnk.jpg'
p23
aS'00127931230fa_sunaampvucecsfbdafn.jpg'
p24
aS'00804960530fa_sunagwswhkvnsmuszlz.jpg'
p25
aS'00884960530fa_sunakodkcslgqhqlgwl.jpg'
p26
asS'cued'
p27
(lp28
S'00062931230fb_sunaaelotvjgibjtjhs.jpg'
p29
aS'00787960620fa_sunagoufulkpsxrmklt.jpg'
p30
aS'00794960620fa_sunagtqhhwxjeuxdebe.jpg'
p31
aS'00071941031fa_sunaaexqbtdswxrqjvz.jpg'
p32
aS'00144931230fb_sunaathajvxrgptwhoj.jpg'
p33
aS'00909960530_sunaobtizabegtwfwul.jpg'
p34
aS'00790941205fa_sunagpjzsbltchlwvou.jpg'
p35
aS'00631940928fa_sunadbdqzigzwipuipr.jpg'
p36
aS'00314940422fa_sunabwmcbaxwioksdgw.jpg'
p37
aS'00620940928fa_sunacypmnujalygkunp.jpg'
p38
asS'uncued_RT'
p39
(lp40
F0.4246070384979248
asS'cued_RT'
p41
(lp42
F1.0274779796600342
aF0.5535681247711182
aF0.5379009246826172
aF0.598336935043335
aF0.43927717208862305
aF0.4792168140411377
aF0.41089296340942383
aF0.4380180835723877
aF0.35797691345214844
as.