(dp0
S'images'
p1
(lp2
S'00851940307fa.jpg'
p3
aS'sunadsgmtznewzyasnk.jpg'
p4
aS'00787960620fa.jpg'
p5
aS'00144931230fb.jpg'
p6
aS'sunagmhildamktmqjss.jpg'
p7
aS'00786941205fa.jpg'
p8
aS'sunaaexqbtdswxrqjvz.jpg'
p9
aS'sunaobtizabegtwfwul.jpg'
p10
aS'sunaqyylsngywqzwfmx.jpg'
p11
aS'sunadbdqzigzwipuipr.jpg'
p12
aS'sunaajpqmulidejvjsr.jpg'
p13
aS'00858940307fa.jpg'
p14
aS'sunagpjzsbltchlwvou.jpg'
p15
aS'00794960620fa.jpg'
p16
aS'sunaampvucecsfbdafn.jpg'
p17
aS'00631940928fa.jpg'
p18
aS'sunaibnpvhkdpdnzcnz.jpg'
p19
aS'00314940422fa.jpg'
p20
aS'01207940128fa.jpg'
p21
aS'sunauburywlkjszngcq.jpg'
p22
aS'sunabppokiyglaxpcha.jpg'
p23
aS'sunaathajvxrgptwhoj.jpg'
p24
aS'sunagvjurcwdbixvnyi.jpg'
p25
aS'sunablfqiwfqomjarht.jpg'
p26
aS'00080931230fb.jpg'
p27
aS'sunaajqmsaavkmgbsth.jpg'
p28
aS'sunajrgtewnualfcerj.jpg'
p29
aS'00955960627fb.jpg'
p30
aS'00108960530fa.jpg'
p31
aS'sunacvjlsylseoghjup.jpg'
p32
aS'00636941031fa.jpg'
p33
aS'00564940928fa.jpg'
p34
aS'sunacycdoztxoluxjyk.jpg'
p35
aS'00792941205fa.jpg'
p36
aS'sunabtlfmiwtljmoues.jpg'
p37
aS'sunabanoxjtqxamkucc.jpg'
p38
aS'sunaekgzpfilgjxpeyq.jpg'
p39
aS'00970960627fa.jpg'
p40
aS'00096931230fa.jpg'
p41
aS'00730960620fa.jpg'
p42
asS'ratings'
p43
(lp44
(lp45
(NF0.0
tp46
a(I2
F1.427
tp47
aa(lp48
(NF0.0
tp49
a(I2
F1.473
tp50
aa(lp51
(NF0.0
tp52
a(I1
F1.135
tp53
aa(lp54
(NF0.0
tp55
a(I1
F0.883
tp56
aa(lp57
(NF0.0
tp58
a(I1
F1.29
tp59
aa(lp60
(NF0.0
tp61
a(I1
F0.986
tp62
aa(lp63
(NF0.0
tp64
a(I4
F1.167
tp65
aa(lp66
(NF0.0
tp67
a(I3
F1.208
tp68
aa(lp69
(NF0.0
tp70
a(I3
F1.583
tp71
aa(lp72
(NF0.0
tp73
a(I3
F1.219
tp74
aa(lp75
(NF0.0
tp76
a(I2
F1.469
tp77
aa(lp78
(NF0.0
tp79
a(I1
F1.216
tp80
aa(lp81
(NF0.0
tp82
a(I4
F1.435
tp83
aa(lp84
(NF0.0
tp85
a(I1
F0.822
tp86
aa(lp87
(NF0.0
tp88
a(I4
F1.051
tp89
aa(lp90
(NF0.0
tp91
a(I1
F0.995
tp92
aa(lp93
(NF0.0
tp94
aa(lp95
(NF0.0
tp96
a(I1
F1.131
tp97
aa(lp98
(NF0.0
tp99
a(I1
F0.989
tp100
aa(lp101
(NF0.0
tp102
aa(lp103
(NF0.0
tp104
a(I3
F1.246
tp105
aa(lp106
(NF0.0
tp107
a(I4
F0.947
tp108
aa(lp109
(NF0.0
tp110
a(I4
F1.084
tp111
aa(lp112
(NF0.0
tp113
a(I2
F1.75
tp114
aa(lp115
(NF0.0
tp116
a(I1
F0.91
tp117
aa(lp118
(NF0.0
tp119
aa(lp120
(NF0.0
tp121
a(I1
F1.028
tp122
aa(lp123
(NF0.0
tp124
a(I1
F1.62
tp125
aa(lp126
(NF0.0
tp127
a(I2
F1.519
tp128
aa(lp129
(NF0.0
tp130
a(I1
F0.969
tp131
aa(lp132
(NF0.0
tp133
a(I1
F0.743
tp134
aa(lp135
(NF0.0
tp136
a(I1
F0.719
tp137
aa(lp138
(NF0.0
tp139
a(I4
F1.345
tp140
aa(lp141
(NF0.0
tp142
a(I1
F1.631
tp143
aa(lp144
(NF0.0
tp145
a(I1
F1.593
tp146
aa(lp147
(NF0.0
tp148
a(I3
F1.043
tp149
aa(lp150
(NF0.0
tp151
aa(lp152
(NF0.0
tp153
a(I1
F0.664
tp154
aa(lp155
(NF0.0
tp156
a(I1
F0.748
tp157
aa(lp158
(NF0.0
tp159
a(I2
F1.061
tp160
aasS'run_time'
p161
F123.31071496009827
sS'total_iters'
p162
(lp163
I0
aI1
aI2
aI3
aI4
aI5
aI6
aI7
aI8
aI9
aI10
aI11
aI12
aI13
aI14
aI15
aI16
aI17
aI18
aI19
aI20
aI21
aI22
aI23
aI24
aI25
aI26
aI27
aI28
aI29
aI30
aI31
aI32
aI33
aI34
aI35
aI36
aI37
aI38
aI39
as.