(dp0
S'cue_tuples'
p1
(lp2
(S'cue_R'
p3
S'F'
p4
I0
tp5
a(g3
g4
I0
tp6
a(g3
g4
I0
tp7
a(g3
g4
I0
tp8
a(g3
g4
I1
tp9
a(g3
g4
I0
tp10
a(g3
g4
I0
tp11
a(g3
g4
I0
tp12
a(g3
g4
I0
tp13
a(g3
g4
I0
tp14
asS'uncued'
p15
(lp16
S'00630940928fa_sunaczwgyukesaajxnx.jpg'
p17
aS'00885960530fa_sunakwlvxjpddialozd.jpg'
p18
aS'00908960530fa_sunanwjjyqqwzqrqagd.jpg'
p19
aS'00670941121fa_sunadochqcucscehsgk.jpg'
p20
aS'00983960627fa_sunbfyvfqiimvdaxlqn.jpg'
p21
aS'00694941121fa_sunadrmfzmstgdjdcod.jpg'
p22
aS'00271940422fa_sunabmbnddafmywtjjj.jpg'
p23
aS'00818940307fa_sunahpblecxtmuzkmxb.jpg'
p24
aS'00967960627fa_sunbaejotfklekvpxcz.jpg'
p25
aS'00194940128fb_sunaayehfdqcyxggsej.jpg'
p26
asS'cued'
p27
(lp28
S'00633940928fa_sunadbhmrgrrpyzglxs.jpg'
p29
aS'00705960530fa_sunaduslxfzlbxlllnz.jpg'
p30
aS'00598941031fa_sunacxtcahkymosigud.jpg'
p31
aS'00162931230fb_sunaavjinpnkappuonm.jpg'
p32
aS'00598940928fa_sunacxeheuiigkcgquf.jpg'
p33
aS'00111931230fb_sunaakgekhjklxmvulj.jpg'
p34
aS'00780960530fa_sunagetqixeypsysbpn.jpg'
p35
aS'00742941201fa_sunaenwuebvlpdmntju.jpg'
p36
aS'00868960307fa_sunajjxttslobudoqbv.jpg'
p37
aS'00218940128fa_sunabbwggenhfbftyvi.jpg'
p38
asS'uncued_RT'
p39
(lp40
F0.505134105682373
asS'cued_RT'
p41
(lp42
F2.798007011413574
aF0.5867469310760498
aF0.2972850799560547
aF0.46971797943115234
aF0.2955760955810547
aF0.3623638153076172
aF0.39354586601257324
aF0.3828089237213135
aF0.36782097816467285
as.