(dp0
S'images'
p1
(lp2
S'sunacwggadqsfpovdjv.jpg'
p3
aS'sunabwfvcqqidycwypa.jpg'
p4
aS'00581940928fa.jpg'
p5
aS'sunahwgbqkqcrwprgvh.jpg'
p6
aS'00925960627fa.jpg'
p7
aS'sunadnjjzohjhbohlwq.jpg'
p8
aS'sunahtfxgsrmkiulnwk.jpg'
p9
aS'sunagufzbeteqdjxais.jpg'
p10
aS'00939960627fa.jpg'
p11
aS'00874940307fa.jpg'
p12
aS'sunapqkpqdfvxlbqwyo.jpg'
p13
aS'00860940307fa.jpg'
p14
aS'00483940519fa.jpg'
p15
aS'00210940128fb.jpg'
p16
aS'00979960627fa.jpg'
p17
aS'00961960627fa.jpg'
p18
aS'sunahqrxievfeusiqlt.jpg'
p19
aS'00589940928fa.jpg'
p20
aS'sunacacflqoyxhsqzhe.jpg'
p21
aS'00898960530fa.jpg'
p22
aS'sunaaheqzstzxuadglu.jpg'
p23
aS'sunafgdqbclkwfocdhg.jpg'
p24
aS'sunajwqkfsykceonyig.jpg'
p25
aS'00921960627fa.jpg'
p26
aS'00829940307fa.jpg'
p27
aS'00727941205fa.jpg'
p28
aS'00728941205fa.jpg'
p29
aS'00953960627fa.jpg'
p30
aS'sunaafvitpexrpvumsa.jpg'
p31
aS'sunbwdrdvsweerwsdrj.jpg'
p32
aS'sunaooaqzputrowwbsw.jpg'
p33
aS'sunafgzgbisbopcyslr.jpg'
p34
aS'sunaiozxhxgtfrmoagh.jpg'
p35
aS'sunahedfrhtcwpneund.jpg'
p36
aS'sunaavtbadenwnzeutj.jpg'
p37
aS'sunadikxpvqeabxrvvc.jpg'
p38
aS'01010960627fa.jpg'
p39
aS'00922960627fa.jpg'
p40
aS'00914960620fa.jpg'
p41
aS'00070940307fa.jpg'
p42
asS'ratings'
p43
(lp44
(lp45
(NF0.0
tp46
a(I1
F1.275
tp47
aa(lp48
(NF0.0
tp49
a(I1
F1.12
tp50
aa(lp51
(NF0.0
tp52
a(I3
F0.954
tp53
aa(lp54
(NF0.0
tp55
a(I2
F1.168
tp56
aa(lp57
(NF0.0
tp58
a(I3
F1.152
tp59
aa(lp60
(NF0.0
tp61
a(I1
F1.224
tp62
aa(lp63
(NF0.0
tp64
a(I1
F1.203
tp65
aa(lp66
(NF0.0
tp67
a(I1
F1.318
tp68
aa(lp69
(NF0.0
tp70
a(I3
F1.103
tp71
aa(lp72
(NF0.0
tp73
a(I2
F1.407
tp74
aa(lp75
(NF0.0
tp76
a(I3
F1.26
tp77
aa(lp78
(NF0.0
tp79
a(I2
F1.117
tp80
aa(lp81
(NF0.0
tp82
a(I1
F1.704
tp83
aa(lp84
(NF0.0
tp85
a(I3
F0.934
tp86
aa(lp87
(NF0.0
tp88
a(I4
F1.501
tp89
aa(lp90
(NF0.0
tp91
a(I4
F0.929
tp92
aa(lp93
(NF0.0
tp94
a(I3
F1.299
tp95
aa(lp96
(NF0.0
tp97
a(I3
F1.314
tp98
aa(lp99
(NF0.0
tp100
aa(lp101
(NF0.0
tp102
a(I2
F1.735
tp103
aa(lp104
(NF0.0
tp105
a(I3
F1.274
tp106
aa(lp107
(NF0.0
tp108
a(I3
F1.132
tp109
aa(lp110
(NF0.0
tp111
a(I1
F1.583
tp112
aa(lp113
(NF0.0
tp114
a(I2
F1.552
tp115
aa(lp116
(NF0.0
tp117
a(I1
F1.281
tp118
aa(lp119
(NF0.0
tp120
a(I1
F0.839
tp121
aa(lp122
(NF0.0
tp123
a(I1
F0.597
tp124
aa(lp125
(NF0.0
tp126
a(I1
F0.937
tp127
aa(lp128
(NF0.0
tp129
a(I1
F1.044
tp130
aa(lp131
(NF0.0
tp132
a(I2
F0.997
tp133
aa(lp134
(NF0.0
tp135
a(I3
F1.035
tp136
aa(lp137
(NF0.0
tp138
a(I1
F1.562
tp139
aa(lp140
(NF0.0
tp141
a(I3
F1.548
tp142
aa(lp143
(NF0.0
tp144
a(I1
F1.196
tp145
aa(lp146
(NF0.0
tp147
a(I2
F1.202
tp148
aa(lp149
(NF0.0
tp150
a(I2
F1.556
tp151
aa(lp152
(NF0.0
tp153
a(I1
F1.254
tp154
aa(lp155
(NF0.0
tp156
a(I2
F0.925
tp157
aa(lp158
(NF0.0
tp159
a(I2
F1.802
tp160
aa(lp161
(NF0.0
tp162
a(I1
F0.955
tp163
aasS'run_time'
p164
F123.0938651561737
sS'total_iters'
p165
(lp166
I0
aI1
aI2
aI3
aI4
aI5
aI6
aI7
aI8
aI9
aI10
aI11
aI12
aI13
aI14
aI15
aI16
aI17
aI18
aI19
aI20
aI21
aI22
aI23
aI24
aI25
aI26
aI27
aI28
aI29
aI30
aI31
aI32
aI33
aI34
aI35
aI36
aI37
aI38
aI39
as.