(dp0
S'cue_tuples'
p1
(lp2
(S'cue_R'
p3
S'F'
p4
I0
tp5
a(g3
g4
I1
tp6
a(g3
g4
I0
tp7
a(g3
g4
I0
tp8
a(g3
g4
I0
tp9
a(g3
g4
I0
tp10
a(g3
g4
I0
tp11
a(g3
g4
I0
tp12
a(g3
g4
I1
tp13
a(g3
g4
I0
tp14
asS'uncued'
p15
(lp16
S'00092931230fa_sunaaheqzstzxuadglu.jpg'
p17
aS'00589940928fa_sunacwggadqsfpovdjv.jpg'
p18
aS'00571940928fa_sunacuatpqpqhyjhjqk.jpg'
p19
aS'00925960627fa_sunapqwnqzxlsfvgsjm.jpg'
p20
aS'00860940307fa_sunaizeyhvjzknwjudw.jpg'
p21
aS'00939960627fa_sunarceibpcyacbmfga.jpg'
p22
aS'00787941205fa_sunagmwxxwymwojbvgi.jpg'
p23
aS'00797960620fa_sunagufzbeteqdjxais.jpg'
p24
aS'00308940422fb_sunabwfvcqqidycwypa.jpg'
p25
aS'00829940307fa_sunahwgbqkqcrwprgvh.jpg'
p26
asS'cued'
p27
(lp28
S'00979960627fa_sunbdycacjfaujxitbw.jpg'
p29
aS'00898960530fa_sunamkmeblgteyggink.jpg'
p30
aS'00921960627fa_sunapqkpqdfvxlbqwyo.jpg'
p31
aS'00746941201fa_sunaetydippjxikifsb.jpg'
p32
aS'00827940307fa_sunahtfxgsrmkiulnwk.jpg'
p33
aS'00961960627fa_sunawotxrevnqvamsfp.jpg'
p34
aS'00727941205fa_sunaeisnjeetzmkbuad.jpg'
p35
aS'00822940307fa_sunahqrxievfeusiqlt.jpg'
p36
aS'00507940519fa_sunacacflqoyxhsqzhe.jpg'
p37
aS'00876960620fa_sunajwqkfsykceonyig.jpg'
p38
asS'uncued_RT'
p39
(lp40
F0.7365567684173584
aF0.4203810691833496
asS'cued_RT'
p41
(lp42
F0.32450318336486816
aF0.6549229621887207
aF0.37189817428588867
aF0.40206003189086914
aF0.4895899295806885
aF0.732903003692627
aF0.622398853302002
aF0.41387295722961426
as.