(lp0
S'A little engaging'
p1
aS'A little tired'
p2
accopy_reg
_reconstructor
p3
(cfuture.types.newstr
newstr
p4
c__builtin__
unicode
p5
Vscenes, because they had more general features that werne't as similar to other pictures
p6
tp7
Rp8
ag3
(g4
g5
VThe left
p9
tp10
Rp11
ag3
(g4
g5
Vtried to pick out distinguishing features and repeated them back in my head
p12
tp13
Rp14
a.