(dp0
S'cued_RT'
p1
(lp2
sS'cued'
p3
(lp4
S'248_38.jpg'
p5
aS'352_172.jpg'
p6
aS'313_137.jpg'
p7
aS'349_17.jpg'
p8
aS'307_131.jpg'
p9
aS'203_119.jpg'
p10
aS'270_58.jpg'
p11
aS'224_138.jpg'
p12
aS'278_105.jpg'
p13
aS'229_20.jpg'
p14
asS'run_time'
p15
F47.07979607582092
sS'cue_tuples'
p16
(lp17
(S'cue_L'
p18
S'F'
p19
I1
tp20
a(g18
g19
I1
tp21
a(g18
g19
I0
tp22
a(g18
g19
I0
tp23
a(g18
g19
I1
tp24
a(g18
S'L'
p25
I0
tp26
a(g18
g25
I0
tp27
a(g18
g25
I0
tp28
a(g18
g25
I0
tp29
a(g18
g25
I0
tp30
asS'uncued'
p31
(lp32
S'242_32.jpg'
p33
aS'327_15.jpg'
p34
aS'200_116.jpg'
p35
aS'226_180.jpg'
p36
aS'249_39.jpg'
p37
aS'288_114.jpg'
p38
aS'337_159.jpg'
p39
aS'281_108.jpg'
p40
aS'310_134.jpg'
p41
aS'230_21.jpg'
p42
asS'uncued_RT'
p43
(lp44
F0.7406530380249023
aF0.5310149192810059
aF0.3924520015716553
aF0.4782390594482422
aF0.5268039703369141
aF0.7590429782867432
aF0.4611549377441406
aF0.6078879833221436
aF0.6120240688323975
aF0.5360491275787354
as.