(lp0
S'Neutral'
p1
ag1
accopy_reg
_reconstructor
p2
(cfuture.types.newstr
newstr
p3
c__builtin__
unicode
p4
VScenes because of the more detail and stronger showing of the image
p5
tp6
Rp7
ag2
(g3
g4
VLeft side, for some reason my right side would stray more
p8
tp9
Rp10
ag2
(g3
g4
VI tried to keeo them in order in my mind or think of key features of the image to help me pick them out later
p11
tp12
Rp13
a.