(dp0
S'cued'
p1
(lp2
S'00089931230fa_sunaagcpoejbuzyvddd.jpg'
p3
aS'00630940928fa_sunaczwgyukesaajxnx.jpg'
p4
aS'00828940307fa_sunahuynahneraqftyz.jpg'
p5
aS'00804960530fa_sunagwswhkvnsmuszlz.jpg'
p6
aS'00741941201fa_sunaemcowdozyphwknd.jpg'
p7
aS'00774941201fa_sunafvtpfczkzopbgue.jpg'
p8
aS'00851940307fa_sunaivflshbyfrfzhqb.jpg'
p9
aS'00864940307fa_sunajawzbrlrwafowen.jpg'
p10
aS'01003960627fb_sunbwdrdvsweerwsdrj.jpg'
p11
aS'00479940519fa_sunabxsbfwjccqxxzxq.jpg'
p12
asS'uncued'
p13
(lp14
S'00262940128fa_sunabizydfotqddlnjp.jpg'
p15
aS'00095931230fa_sunaahzooisqkwlxwoz.jpg'
p16
aS'00564940928fa_sunacmpqqfbsvlzinzl.jpg'
p17
aS'00676941121fa_sunadpnqovzckyikrjo.jpg'
p18
aS'00973960627fa_sunbbgtoeuzierkkajt.jpg'
p19
aS'00768941205fa_sunafkmnlytenlsywia.jpg'
p20
aS'00126931230fb_sunaamdjwemxpmmtypi.jpg'
p21
aS'00743941201fa_sunaeoghzrjarigmwua.jpg'
p22
aS'00211940128fa_sunabasphceswhwwqvv.jpg'
p23
aS'00999960627fa_sunbvbrvgbpanfrawft.jpg'
p24
asS'cue_tuples'
p25
(lp26
(S'cue_L'
p27
S'L'
p28
I0
tp29
a(g27
g28
I0
tp30
a(g27
g28
I0
tp31
a(g27
g28
I1
tp32
a(g27
g28
I0
tp33
a(g27
g28
I0
tp34
a(g27
g28
I0
tp35
a(g27
g28
I0
tp36
a(g27
g28
I0
tp37
a(g27
g28
I1
tp38
asS'uncued_RT'
p39
(lp40
NaNasS'cued_RT'
p41
(lp42
NaNaNaNaNaNaNaNas.