(lp0
S'A little engaging'
p1
aS'A little tired'
p2
accopy_reg
_reconstructor
p3
(cfuture.types.newstr
newstr
p4
c__builtin__
unicode
p5
Vbackground couldn't see eyes/main part of faces very well
p6
tp7
Rp8
ag3
(g4
g5
Vyes - background
p9
tp10
Rp11
ag3
(g4
g5
Vasy word of what it is in my head (can do for backgrounds not faces)
p12
tp13
Rp14
a.