(lp0
S'A little boring'
p1
aS'Very tired'
p2
accopy_reg
_reconstructor
p3
(cfuture.types.newstr
newstr
p4
c__builtin__
unicode
p5
VThe places, not sure why
p6
tp7
Rp8
ag3
(g4
g5
VRight maybe?
p9
tp10
Rp11
ag3
(g4
g5
VTry to determine the general outlines of things to get a sense of what they were
p12
tp13
Rp14
a.