(lp0
S'Neutral'
p1
aS'A little alert'
p2
accopy_reg
_reconstructor
p3
(cfuture.types.newstr
newstr
p4
c__builtin__
unicode
p5
Vthe landsacpes because there was more details to help in remembering them 
p6
tp7
Rp8
ag3
(g4
g5
Vno
p9
tp10
Rp11
ag3
(g4
g5
VI would try to break up the landscapes into catergoreis such as outdoors/indoors, but I did not really have a strategy for the faces
p12
tp13
Rp14
a.