(dp0
S'cue_tuples'
p1
(lp2
(S'cue_L'
p3
S'L'
p4
I0
tp5
a(g3
g4
I0
tp6
a(g3
g4
I0
tp7
a(g3
g4
I0
tp8
a(g3
g4
I0
tp9
a(g3
g4
I1
tp10
a(g3
g4
I0
tp11
a(g3
g4
I0
tp12
a(g3
g4
I0
tp13
a(g3
g4
I0
tp14
asS'uncued'
p15
(lp16
S'00194940128fb_sunaayehfdqcyxggsej.jpg'
p17
aS'00548940519fa_sunacerqowiaeoqkmsq.jpg'
p18
aS'00807941205fa_sunahawfngukizslzsd.jpg'
p19
aS'00778941205fa_sunagcthdfirrcawoic.jpg'
p20
aS'00997960627fa_sunbtpilbhhbmhmeuzq.jpg'
p21
aS'01005960627fa_sunbwyuesflwdpqtgoy.jpg'
p22
aS'00271940422fa_sunabmbnddafmywtjjj.jpg'
p23
aS'00955960627fb_sunauburywlkjszngcq.jpg'
p24
aS'00993960627fa_sunbprywzqxjcezkbch.jpg'
p25
aS'00773960620fa_sunafvsxtzaizojicxx.jpg'
p26
asS'cued'
p27
(lp28
S'00815941205fa_sunahiphsekjihkafsl.jpg'
p29
aS'00819940307fa_sunahqldjibofgsfdgb.jpg'
p30
aS'00796941205fa_sunaguchqqnrtodtezq.jpg'
p31
aS'00145931230fb_sunaatjesvdupctftmn.jpg'
p32
aS'00633940928fa_sunadbhmrgrrpyzglxs.jpg'
p33
aS'00198940128fb_sunaazezcsunmhttzxz.jpg'
p34
aS'00851940307fa_sunaivflshbyfrfzhqb.jpg'
p35
aS'00532960627fa_sunaccdtpgenvcbcbcf.jpg'
p36
aS'00675941121fa_sunadoxcchtmsxewsau.jpg'
p37
aS'00745941205fa_sunaeouogqolxvggaoq.jpg'
p38
asS'uncued_RT'
p39
(lp40
F0.667510986328125
aF0.3848409652709961
aF0.49085402488708496
aF0.5267300605773926
aF0.4686548709869385
aF0.6282191276550293
aF0.45566391944885254
aF0.3464629650115967
aF0.41014790534973145
aF0.33548808097839355
asS'cued_RT'
p41
(lp42
s.