(dp0
S'images'
p1
(lp2
S'sunacvbrcejzwmcgnoq.jpg'
p3
aS'00935960627fa.jpg'
p4
aS'00108960530fa.jpg'
p5
aS'sunaffgsyyvoqdlkmnk.jpg'
p6
aS'00805941205fa.jpg'
p7
aS'00929960627fa.jpg'
p8
aS'00631940928fa.jpg'
p9
aS'sunaawsdjisukbbginm.jpg'
p10
aS'sunaprnrbmgkomdbchr.jpg'
p11
aS'sunaduslxfzlbxlllnz.jpg'
p12
aS'sunacvjlsylseoghjup.jpg'
p13
aS'sunaekgzpfilgjxpeyq.jpg'
p14
aS'00705960530fa.jpg'
p15
aS'sunadkazmlajmohnwfl.jpg'
p16
aS'00730960620fa.jpg'
p17
aS'00598941031fa.jpg'
p18
aS'sunaooaqzputrowwbsw.jpg'
p19
aS'00214940128fa.jpg'
p20
aS'00129931230fb.jpg'
p21
aS'sunahgtbwgsmtqeodwh.jpg'
p22
aS'00574940928fa.jpg'
p23
aS'00576941031fa.jpg'
p24
aS'sunbpvgllfdejxcpjqp.jpg'
p25
aS'sunabrjdpmoedcdjbpo.jpg'
p26
aS'00242940128fa.jpg'
p27
aS'sunaamsdyakblkfoydx.jpg'
p28
aS'sunaffstbkappprzxnv.jpg'
p29
aS'00111931230fb.jpg'
p30
aS'sunbesrwkdsffeogeqq.jpg'
p31
aS'sunabbafjowbzcvbucc.jpg'
p32
aS'00751960620fa.jpg'
p33
aS'sunaalhlvzmjmitybdn.jpg'
p34
aS'sunaajtnvzzpsjdzres.jpg'
p35
aS'sunabcuurugvxwparpk.jpg'
p36
aS'00124931230fa.jpg'
p37
aS'sunabrwnslxalcohfre.jpg'
p38
aS'00292940422fb.jpg'
p39
aS'sunaqbmgkgqucajzrkp.jpg'
p40
aS'sunagvxkjokqimstxpe.jpg'
p41
aS'sunacacflqoyxhsqzhe.jpg'
p42
asS'ratings'
p43
(lp44
(lp45
(NF0.0
tp46
a(I3
F1.083
tp47
aa(lp48
(NF0.0
tp49
a(I2
F1.475
tp50
aa(lp51
(NF0.0
tp52
a(I1
F0.947
tp53
aa(lp54
(NF0.0
tp55
a(I4
F0.68
tp56
aa(lp57
(NF0.0
tp58
a(I2
F0.927
tp59
aa(lp60
(NF0.0
tp61
a(I1
F0.78
tp62
aa(lp63
(NF0.0
tp64
a(I1
F0.762
tp65
aa(lp66
(NF0.0
tp67
a(I1
F1.03
tp68
aa(lp69
(NF0.0
tp70
a(I1
F1.294
tp71
aa(lp72
(NF0.0
tp73
a(I1
F1.08
tp74
aa(lp75
(NF0.0
tp76
a(I1
F0.845
tp77
aa(lp78
(NF0.0
tp79
a(I1
F1.411
tp80
aa(lp81
(NF0.0
tp82
a(I1
F0.595
tp83
aa(lp84
(NF0.0
tp85
a(I1
F0.712
tp86
aa(lp87
(NF0.0
tp88
a(I1
F0.713
tp89
aa(lp90
(NF0.0
tp91
a(I2
F1.231
tp92
aa(lp93
(NF0.0
tp94
a(I2
F0.962
tp95
aa(lp96
(NF0.0
tp97
a(I1
F0.53
tp98
aa(lp99
(NF0.0
tp100
a(I1
F0.562
tp101
aa(lp102
(NF0.0
tp103
a(I4
F0.794
tp104
aa(lp105
(NF0.0
tp106
a(I1
F0.665
tp107
aa(lp108
(NF0.0
tp109
a(I1
F0.796
tp110
aa(lp111
(NF0.0
tp112
a(I1
F0.885
tp113
aa(lp114
(NF0.0
tp115
a(I1
F1.012
tp116
aa(lp117
(NF0.0
tp118
a(I1
F0.579
tp119
aa(lp120
(NF0.0
tp121
a(I1
F0.746
tp122
aa(lp123
(NF0.0
tp124
a(I1
F0.729
tp125
aa(lp126
(NF0.0
tp127
a(I1
F0.495
tp128
aa(lp129
(NF0.0
tp130
a(I1
F0.764
tp131
aa(lp132
(NF0.0
tp133
a(I4
F0.795
tp134
aa(lp135
(NF0.0
tp136
a(I1
F0.413
tp137
aa(lp138
(NF0.0
tp139
a(I1
F0.695
tp140
aa(lp141
(NF0.0
tp142
a(I1
F0.83
tp143
aa(lp144
(NF0.0
tp145
a(I4
F0.829
tp146
aa(lp147
(NF0.0
tp148
a(I1
F0.646
tp149
aa(lp150
(NF0.0
tp151
a(I4
F1.045
tp152
aa(lp153
(NF0.0
tp154
a(I1
F0.663
tp155
aa(lp156
(NF0.0
tp157
a(I2
F1.146
tp158
aa(lp159
(NF0.0
tp160
a(I1
F0.813
tp161
aa(lp162
(NF0.0
tp163
a(I4
F1.346
tp164
aasS'run_time'
p165
F122.22639083862305
sS'total_iters'
p166
(lp167
I0
aI1
aI2
aI3
aI4
aI5
aI6
aI7
aI8
aI9
aI10
aI11
aI12
aI13
aI14
aI15
aI16
aI17
aI18
aI19
aI20
aI21
aI22
aI23
aI24
aI25
aI26
aI27
aI28
aI29
aI30
aI31
aI32
aI33
aI34
aI35
aI36
aI37
aI38
aI39
as.