(dp0
S'cue_tuples'
p1
(lp2
(S'cue_R'
p3
S'L'
p4
I0
tp5
a(g3
g4
I0
tp6
a(g3
g4
I0
tp7
a(g3
g4
I0
tp8
a(g3
g4
I1
tp9
a(g3
g4
I0
tp10
a(g3
g4
I0
tp11
a(g3
g4
I0
tp12
a(g3
g4
I0
tp13
a(g3
g4
I1
tp14
asS'uncued'
p15
(lp16
S'00911960530fa_sunaooaqzputrowwbsw.jpg'
p17
aS'00214940128fa_sunabbafjowbzcvbucc.jpg'
p18
aS'00124931230fa_sunaalhlvzmjmitybdn.jpg'
p19
aS'00996960627fa_sunbpvgllfdejxcpjqp.jpg'
p20
aS'00705960530fa_sunaduslxfzlbxlllnz.jpg'
p21
aS'00929960627fa_sunaprnrbmgkomdbchr.jpg'
p22
aS'00982960627fa_sunbesrwkdsffeogeqq.jpg'
p23
aS'00129931230fb_sunaamsdyakblkfoydx.jpg'
p24
aS'00111931230fb_sunaakgekhjklxmvulj.jpg'
p25
aS'00242940128fa_sunabcuurugvxwparpk.jpg'
p26
asS'cued'
p27
(lp28
S'00292940422fb_sunabrjdpmoedcdjbpo.jpg'
p29
aS'00108960530fa_sunaajtnvzzpsjdzres.jpg'
p30
aS'00576941031fa_sunacvjlsylseoghjup.jpg'
p31
aS'00935960627fa_sunaqbmgkgqucajzrkp.jpg'
p32
aS'00760960620fa_sunaffstbkappprzxnv.jpg'
p33
aS'00630941031fa_sunadakkdovnuzlycvp.jpg'
p34
aS'00730960620fa_sunaekgzpfilgjxpeyq.jpg'
p35
aS'00754941201fa_sunaffgsyyvoqdlkmnk.jpg'
p36
aS'00574940928fa_sunacvbrcejzwmcgnoq.jpg'
p37
aS'00812941205fa_sunahgtbwgsmtqeodwh.jpg'
p38
asS'uncued_RT'
p39
(lp40
F0.33522796630859375
aF0.5204958915710449
asS'cued_RT'
p41
(lp42
F0.47301697731018066
aF0.483112096786499
aF0.46024012565612793
aF0.30812501907348633
aF0.4909939765930176
aF0.5138862133026123
aF0.39896202087402344
aF0.4011349678039551
as.