(dp0
S'cue_tuples'
p1
(lp2
(S'cue_R'
p3
S'F'
p4
I0
tp5
a(g3
g4
I0
tp6
a(g3
g4
I0
tp7
a(g3
g4
I0
tp8
a(g3
g4
I0
tp9
a(g3
g4
I0
tp10
a(g3
g4
I0
tp11
a(g3
g4
I0
tp12
a(g3
g4
I0
tp13
a(g3
g4
I0
tp14
asS'uncued'
p15
(lp16
S'00096931230fa_sunaaiqiqcggrskoqgy.jpg'
p17
aS'00227940128fa_sunabckqabszusgcykj.jpg'
p18
aS'00564941031fa_sunacsaovnjezqwbykf.jpg'
p19
aS'00795941205fa_sunagtumacdlmciqamz.jpg'
p20
aS'00092931230fa_sunaaheqzstzxuadglu.jpg'
p21
aS'00919960620fa_sunapmfmzadmosuogaz.jpg'
p22
aS'00554940519fa_sunacfdkbsrughwqwtt.jpg'
p23
aS'00071940128fa_sunaaexpnawiehinlpy.jpg'
p24
aS'00235940128fb_sunabclssnoeuigtawp.jpg'
p25
aS'00123931230fb_sunaalcrrdbjgdztbiz.jpg'
p26
asS'cued'
p27
(lp28
S'00076931230fa_sunaafewhewbxmjiurz.jpg'
p29
aS'00792941205fa_sunagsiwrmuixqgdimb.jpg'
p30
aS'00288940422fa_sunabppokiyglaxpcha.jpg'
p31
aS'00931960627fa_sunaptrqvaooxfvktvw.jpg'
p32
aS'00780960530fa_sunagetqixeypsysbpn.jpg'
p33
aS'00663941121fa_sunadnjjzohjhbohlwq.jpg'
p34
aS'00926960627Fa_sunapqwoeotxshkukbh.jpg'
p35
aS'00892960530fa_sunalntxqqadigcletd.jpg'
p36
aS'00910960530fa_sunaofikylqtxphvdem.jpg'
p37
aS'00841940307fa_sunaisiwfgppimtnmxl.jpg'
p38
asS'uncued_RT'
p39
(lp40
sS'cued_RT'
p41
(lp42
F0.42951202392578125
aF0.5033600330352783
aF0.3430640697479248
aF0.37837719917297363
aF0.47208189964294434
aF0.4051640033721924
aF0.34848880767822266
aF0.3961198329925537
aF0.41381406784057617
aF0.3667778968811035
as.