(dp0
S'images'
p1
(lp2
S'00263940128fb.jpg'
p3
aS'sunarfdklgdnjgeqfjg.jpg'
p4
aS'00725941201fa.jpg'
p5
aS'00750941201fa.jpg'
p6
aS'sunanaacmmosxrfwmvl.jpg'
p7
aS'sunaamvxnvouicstkjb.jpg'
p8
aS'sunadfktsqjthoglcsm.jpg'
p9
aS'sunaizgnnplsvajzhkc.jpg'
p10
aS'00790941205fa.jpg'
p11
aS'00132931230fb.jpg'
p12
aS'sunafowswglhxcsufpo.jpg'
p13
aS'sunaanjcbzdvtvblsdy.jpg'
p14
aS'00719941201fa.jpg'
p15
aS'00822940307fa.jpg'
p16
aS'sunbddbivbptlrlauhy.jpg'
p17
aS'sunalkiibhqpxfamlll.jpg'
p18
aS'sunabzuqsrgcsonqlkz.jpg'
p19
aS'sunajtrfunvzdfticna.jpg'
p20
aS'00958960627fa.jpg'
p21
aS'sunapqwnqzxlsfvgsjm.jpg'
p22
aS'00862940307fa.jpg'
p23
aS'00848940307fa.jpg'
p24
aS'sunaauhozyxzeeqstxi.jpg'
p25
aS'00818940307fa.jpg'
p26
aS'sunafvtpfczkzopbgue.jpg'
p27
aS'sunaeuzwggvibufclwf.jpg'
p28
aS'00638941031fa.jpg'
p29
aS'sunablfqiwfqomjarht.jpg'
p30
aS'00146960620fb.jpg'
p31
aS'00885960530fa.jpg'
p32
aS'sunaibnpvhkdpdnzcnz.jpg'
p33
aS'00942960627fa.jpg'
p34
aS'00290940422fa.jpg'
p35
aS'00296940422fa.jpg'
p36
aS'sunakmnfgklupjijsgf.jpg'
p37
aS'00747941201fa.jpg'
p38
aS'00799941205fa.jpg'
p39
aS'00774941201fa.jpg'
p40
aS'00505960627fa.jpg'
p41
aS'sunadvithllcgmfxsrn.jpg'
p42
asS'ratings'
p43
(lp44
(lp45
(NF0.0
tp46
a(I2
F1.401
tp47
aa(lp48
(NF0.0
tp49
a(I1
F0.746
tp50
aa(lp51
(NF0.0
tp52
a(I1
F0.961
tp53
aa(lp54
(NF0.0
tp55
a(I3
F1.045
tp56
aa(lp57
(NF0.0
tp58
a(I1
F0.611
tp59
aa(lp60
(NF0.0
tp61
a(I1
F0.478
tp62
aa(lp63
(NF0.0
tp64
a(I1
F0.462
tp65
aa(lp66
(NF0.0
tp67
a(I1
F0.532
tp68
aa(lp69
(NF0.0
tp70
a(I2
F1.178
tp71
aa(lp72
(NF0.0
tp73
a(I2
F0.928
tp74
aa(lp75
(NF0.0
tp76
a(I1
F0.88
tp77
aa(lp78
(NF0.0
tp79
a(I1
F0.896
tp80
aa(lp81
(NF0.0
tp82
a(I2
F1.33
tp83
aa(lp84
(NF0.0
tp85
a(I3
F0.945
tp86
aa(lp87
(NF0.0
tp88
a(I1
F0.729
tp89
aa(lp90
(NF0.0
tp91
a(I1
F0.546
tp92
aa(lp93
(NF0.0
tp94
a(I1
F0.429
tp95
aa(lp96
(NF0.0
tp97
a(I1
F0.579
tp98
aa(lp99
(NF0.0
tp100
a(I2
F1.313
tp101
aa(lp102
(NF0.0
tp103
a(I1
F0.712
tp104
aa(lp105
(NF0.0
tp106
a(I4
F1.079
tp107
aa(lp108
(NF0.0
tp109
a(I2
F0.978
tp110
aa(lp111
(NF0.0
tp112
a(I1
F0.494
tp113
aa(lp114
(NF0.0
tp115
a(I1
F1.163
tp116
aa(lp117
(NF0.0
tp118
a(I1
F0.529
tp119
aa(lp120
(NF0.0
tp121
a(I1
F0.447
tp122
aa(lp123
(NF0.0
tp124
a(I1
F0.912
tp125
aa(lp126
(NF0.0
tp127
a(I1
F0.628
tp128
aa(lp129
(NF0.0
tp130
a(I1
F1.081
tp131
aa(lp132
(NF0.0
tp133
a(I1
F1.162
tp134
aa(lp135
(NF0.0
tp136
a(I1
F0.663
tp137
aa(lp138
(NF0.0
tp139
a(I1
F0.478
tp140
aa(lp141
(NF0.0
tp142
a(I3
F0.945
tp143
aa(lp144
(NF0.0
tp145
a(I1
F1.113
tp146
aa(lp147
(NF0.0
tp148
a(I1
F0.562
tp149
aa(lp150
(NF0.0
tp151
a(I1
F1.095
tp152
aa(lp153
(NF0.0
tp154
a(I4
F1.079
tp155
aa(lp156
(NF0.0
tp157
a(I1
F1.229
tp158
aa(lp159
(NF0.0
tp160
a(I1
F1.062
tp161
aa(lp162
(NF0.0
tp163
a(I1
F0.744
tp164
aasS'run_time'
p165
F122.16029191017151
sS'total_iters'
p166
(lp167
I0
aI1
aI2
aI3
aI4
aI5
aI6
aI7
aI8
aI9
aI10
aI11
aI12
aI13
aI14
aI15
aI16
aI17
aI18
aI19
aI20
aI21
aI22
aI23
aI24
aI25
aI26
aI27
aI28
aI29
aI30
aI31
aI32
aI33
aI34
aI35
aI36
aI37
aI38
aI39
as.