(lp0
S'Neutral'
p1
aS'A little tired'
p2
accopy_reg
_reconstructor
p3
(cfuture.types.newstr
newstr
p4
c__builtin__
unicode
p5
Vscenes were easier. to recognize faces i need to focus my actual attention and sight of vision to them; faces are more detailed
p6
tp7
Rp8
ag3
(g4
g5
Vnope
p9
tp10
Rp11
ag3
(g4
g5
Vdifference in shading for scenes. tried to recognize race for faces
p12
tp13
Rp14
a.