(lp0
S'A little engaging'
p1
aS'Neutral'
p2
accopy_reg
_reconstructor
p3
(cfuture.types.newstr
newstr
p4
c__builtin__
unicode
p5
Vscenes: more distinct patterns/shapes?
p6
tp7
Rp8
ag3
(g4
g5
Vno
p9
tp10
Rp11
ag3
(g4
g5
Vlook for overarching shapes/come up with a "title" for some of the pictures
p12
tp13
Rp14
a.