(lp0
ccopy_reg
_reconstructor
p1
(cfuture.types.newstr
newstr
p2
c__builtin__
unicode
p3
V18
p4
tp5
Rp6
aS'Female'
p7
aS'--'
p8
aI01
aI00
aI00
aI00
aI00
aI00
aI00
aS'some college'
p9
aS'No'
p10
aS'Yes'
p11
ag10
aS''
p12
ag1
(g2
g3
V10
p13
tp14
Rp15
ag1
(g2
g3
V0
p16
tp17
Rp18
aS'Very alert'
p19
a.