(dp0
S'cued'
p1
(lp2
S'gray10_crop_grayscale_CFD-AM-219-101-N.jpg'
p3
aS'grayscale_art760.jpg'
p4
aS'gray20_crop_grayscale_CFD-AM-221-184-N.jpg'
p5
aS'grayscale_p1010542.jpg'
p6
aS'grayscale_par9.jpg'
p7
aS'grayscale_a804068.jpg'
p8
aS'gray10_crop_grayscale_CFD-AF-228-173-N.jpg'
p9
aS'grayscale_art945.jpg'
p10
aS'gray10_crop_grayscale_CFD-AM-228-214-N.jpg'
p11
aS'grayscale_p1010186.jpg'
p12
aS'grayscale_urb906.jpg'
p13
aS'grayscale_a212055.jpg'
p14
aS'gray15_crop_grayscale_CFD-AM-243-212-N.jpg'
p15
aS'grayscale_a487092.jpg'
p16
aS'grayscale_p1010172.jpg'
p17
aS'grayscale_bost105.jpg'
p18
aS'grayscale_par123.jpg'
p19
aS'grayscale_a462093.jpg'
p20
aS'grayscale_sky38.jpg'
p21
aS'grayscale_exp19.jpg'
p22
asS'cued_RT'
p23
(lp24
F0.7641570568084717
aF0.4827909469604492
aF0.7253339290618896
aF0.43756103515625
aF0.42124080657958984
aF0.4308040142059326
aF0.544611930847168
aF0.4224967956542969
asS'cue_Right'
p25
(lp26
I1
aI0
aI1
aI0
aI1
aI0
aI1
aI0
aI1
aI1
aI0
aI0
aI1
aI0
aI0
aI0
aI1
aI1
aI1
aI0
asS'run_time'
p27
F64.12182402610779
sS'uncued'
p28
(lp29
S'grayscale_a487065.jpg'
p30
aS'gray10_crop_grayscale_CFD-AF-241-141-N.jpg'
p31
aS'grayscale_par162.jpg'
p32
aS'gray15_crop_grayscale_CFD-AM-237-154-N.jpg'
p33
aS'gray10_crop_grayscale_CFD-AM-252-114-N.jpg'
p34
aS'gray10_crop_grayscale_CFD-AF-234-208-N.jpg'
p35
aS'grayscale_boston270.jpg'
p36
aS'gray20_crop_grayscale_CFD-AM-212-050-N.jpg'
p37
aS'grayscale_p9110486.jpg'
p38
aS'gray20_crop_grayscale_CFD-AF-249-092-N.jpg'
p39
aS'gray10_crop_grayscale_CFD-AM-201-076-N.jpg'
p40
aS'gray10_crop_grayscale_CFD-AF-236-145-N.jpg'
p41
aS'grayscale_par85.jpg'
p42
aS'gray15_crop_grayscale_CFD-AF-200-228-N.jpg'
p43
aS'gray20_crop_grayscale_CFD-AM-210-035-N.jpg'
p44
aS'gray10_crop_grayscale_CFD-AM-217-085-N.jpg'
p45
aS'gray20_crop_grayscale_CFD-WM-251-002-N.jpg'
p46
aS'gray15_crop_grayscale_CFD-AM-213-056-N.jpg'
p47
aS'gray10_crop_grayscale_CFD-AM-247-165-N.jpg'
p48
aS'gray10_crop_grayscale_CFD-AM-205-153-N.jpg'
p49
asS'total_iters'
p50
I20
sS'uncued_RT'
p51
(lp52
F0.45844602584838867
aF0.47492504119873047
aF0.4244098663330078
aF0.7100250720977783
aF0.47284483909606934
aF0.5123538970947266
aF0.38248586654663086
aF0.3566470146179199
aF0.2720310688018799
aF0.30152106285095215
aF0.4902980327606201
aF0.49611711502075195
as.