(dp0
S'images'
p1
(lp2
S'grayscale_art760.jpg'
p3
aS'grayscale_urb866.jpg'
p4
aS'gray10_crop_grayscale_CFD-AF-234-208-N.jpg'
p5
aS'grayscale_urb246.jpg'
p6
aS'gray10_crop_grayscale_CFD-AM-247-165-N.jpg'
p7
aS'grayscale_boston270.jpg'
p8
aS'grayscale_urb274.jpg'
p9
aS'grayscale_par162.jpg'
p10
aS'grayscale_bost105.jpg'
p11
aS'gray10_crop_grayscale_CFD-AM-205-153-N.jpg'
p12
aS'grayscale_par123.jpg'
p13
aS'grayscale_art945.jpg'
p14
aS'grayscale_art1686.jpg'
p15
aS'grayscale_p9110486.jpg'
p16
aS'grayscale_a487092.jpg'
p17
aS'gray20_crop_grayscale_CFD-AM-221-184-N.jpg'
p18
aS'grayscale_a804068.jpg'
p19
aS'grayscale_p1010317.jpg'
p20
aS'grayscale_gre181.jpg'
p21
aS'gray10_crop_grayscale_CFD-AM-201-076-N.jpg'
p22
aS'gray20_crop_grayscale_CFD-AM-210-035-N.jpg'
p23
aS'grayscale_par9.jpg'
p24
aS'gray10_crop_grayscale_CFD-AM-219-101-N.jpg'
p25
aS'gray10_crop_grayscale_CFD-AF-228-173-N.jpg'
p26
aS'grayscale_a212055.jpg'
p27
aS'gray15_crop_grayscale_CFD-AM-243-212-N.jpg'
p28
aS'grayscale_p1010172.jpg'
p29
aS'gray15_crop_grayscale_CFD-AF-200-228-N.jpg'
p30
aS'grayscale_urb906.jpg'
p31
aS'grayscale_art1717.jpg'
p32
aS'gray10_crop_grayscale_CFD-AM-252-114-N.jpg'
p33
aS'grayscale_a487065.jpg'
p34
aS'grayscale_p1010183.jpg'
p35
aS'grayscale_p1010542.jpg'
p36
aS'gray10_crop_grayscale_CFD-AM-217-085-N.jpg'
p37
aS'grayscale_exp19.jpg'
p38
aS'gray10_crop_grayscale_CFD-AF-241-141-N.jpg'
p39
aS'grayscale_boston18.jpg'
p40
aS'grayscale_a212018.jpg'
p41
aS'grayscale_p1010186.jpg'
p42
aS'grayscale_par85.jpg'
p43
aS'gray20_crop_grayscale_CFD-AF-249-092-N.jpg'
p44
aS'gray15_crop_grayscale_CFD-AM-245-111-N.jpg'
p45
aS'grayscale_gre116.jpg'
p46
aS'grayscale_a462093.jpg'
p47
aS'grayscale_urban1124.jpg'
p48
aS'grayscale_art925.jpg'
p49
aS'gray15_crop_grayscale_CFD-AM-213-056-N.jpg'
p50
aS'grayscale_sky21.jpg'
p51
aS'grayscale_city65.jpg'
p52
aS'grayscale_gre186.jpg'
p53
aS'gray10_crop_grayscale_CFD-AM-228-214-N.jpg'
p54
aS'grayscale_sky38.jpg'
p55
aS'grayscale_art936.jpg'
p56
aS'grayscale_urban1152.jpg'
p57
aS'grayscale_city60.jpg'
p58
aS'grayscale_boston68.jpg'
p59
aS'gray10_crop_grayscale_CFD-AF-236-145-N.jpg'
p60
aS'grayscale_boston339.jpg'
p61
aS'grayscale_p1010323.jpg'
p62
asS'ratings'
p63
(lp64
(lp65
(NF0.0
tp66
aa(lp67
(NF0.0
tp68
a(I1
F0.003
tp69
a(I1
F1.016
tp70
aa(lp71
(NF0.0
tp72
a(I4
F0.003
tp73
a(I4
F1.016
tp74
aa(lp75
(NF0.0
tp76
a(I1
F0.003
tp77
a(I1
F1.016
tp78
aa(lp79
(NF0.0
tp80
a(I1
F0.003
tp81
a(I1
F1.017
tp82
aa(lp83
(NF0.0
tp84
a(I4
F0.003
tp85
a(I4
F1.016
tp86
aa(lp87
(NF0.0
tp88
a(I1
F0.003
tp89
a(I1
F1.017
tp90
aa(lp91
(NF0.0
tp92
a(I1
F0.003
tp93
a(I1
F1.016
tp94
aa(lp95
(NF0.0
tp96
a(I1
F0.003
tp97
a(I1
F1.001
tp98
aa(lp99
(NF0.0
tp100
aa(lp101
(NF0.0
tp102
a(I1
F0.003
tp103
a(I1
F1.017
tp104
aa(lp105
(NF0.0
tp106
a(I1
F0.003
tp107
a(I1
F1.017
tp108
aa(lp109
(NF0.0
tp110
a(I1
F0.003
tp111
a(I1
F1.016
tp112
aa(lp113
(NF0.0
tp114
a(I1
F0.003
tp115
a(I1
F1.016
tp116
aa(lp117
(NF0.0
tp118
a(I1
F0.003
tp119
a(I1
F1.016
tp120
aa(lp121
(NF0.0
tp122
a(I1
F0.003
tp123
a(I1
F1.016
tp124
aa(lp125
(NF0.0
tp126
a(I1
F0.003
tp127
a(I1
F1.016
tp128
aa(lp129
(NF0.0
tp130
a(I4
F0.003
tp131
a(I4
F1.016
tp132
aa(lp133
(NF0.0
tp134
a(I1
F0.003
tp135
a(I1
F1.016
tp136
aa(lp137
(NF0.0
tp138
a(I1
F0.003
tp139
a(I1
F1.0
tp140
aa(lp141
(NF0.0
tp142
a(I1
F0.003
tp143
a(I1
F1.016
tp144
aa(lp145
(NF0.0
tp146
a(I1
F0.003
tp147
a(I1
F1.016
tp148
aa(lp149
(NF0.0
tp150
a(I1
F0.003
tp151
a(I1
F1.017
tp152
aa(lp153
(NF0.0
tp154
a(I1
F0.003
tp155
a(I1
F1.014
tp156
aa(lp157
(NF0.0
tp158
a(I4
F0.003
tp159
a(I4
F1.0
tp160
aa(lp161
(NF0.0
tp162
a(I1
F0.003
tp163
a(I1
F1.017
tp164
aa(lp165
(NF0.0
tp166
a(I1
F0.003
tp167
a(I1
F1.001
tp168
aa(lp169
(NF0.0
tp170
a(I1
F0.003
tp171
a(I1
F1.016
tp172
aa(lp173
(NF0.0
tp174
a(I4
F0.003
tp175
a(I4
F1.016
tp176
aa(lp177
(NF0.0
tp178
a(I4
F0.003
tp179
a(I4
F1.017
tp180
aa(lp181
(NF0.0
tp182
a(I1
F0.003
tp183
a(I1
F1.016
tp184
aa(lp185
(NF0.0
tp186
a(I1
F0.003
tp187
a(I1
F1.016
tp188
aa(lp189
(NF0.0
tp190
a(I1
F0.003
tp191
a(I1
F1.0
tp192
aa(lp193
(NF0.0
tp194
a(I1
F0.003
tp195
a(I1
F1.0
tp196
aa(lp197
(NF0.0
tp198
a(I1
F0.003
tp199
a(I1
F1.016
tp200
aa(lp201
(NF0.0
tp202
a(I4
F0.003
tp203
a(I4
F1.016
tp204
aa(lp205
(NF0.0
tp206
a(I1
F0.003
tp207
a(I1
F1.016
tp208
aa(lp209
(NF0.0
tp210
a(I4
F0.003
tp211
a(I4
F1.0
tp212
aa(lp213
(NF0.0
tp214
a(I4
F0.003
tp215
a(I4
F1.0
tp216
aa(lp217
(NF0.0
tp218
a(I4
F0.003
tp219
a(I4
F1.017
tp220
aa(lp221
(NF0.0
tp222
a(I1
F0.003
tp223
a(I1
F1.0
tp224
aa(lp225
(NF0.0
tp226
a(I1
F0.003
tp227
a(I1
F1.0
tp228
aa(lp229
(NF0.0
tp230
a(I1
F0.003
tp231
a(I1
F1.001
tp232
aa(lp233
(NF0.0
tp234
a(I1
F0.003
tp235
a(I1
F1.016
tp236
aa(lp237
(NF0.0
tp238
a(I1
F0.003
tp239
a(I1
F1.017
tp240
aa(lp241
(NF0.0
tp242
a(I4
F0.003
tp243
a(I4
F1.015
tp244
aa(lp245
(NF0.0
tp246
a(I1
F0.003
tp247
a(I1
F1.016
tp248
aa(lp249
(NF0.0
tp250
a(I4
F0.003
tp251
a(I4
F1.017
tp252
aa(lp253
(NF0.0
tp254
a(I4
F0.003
tp255
a(I4
F1.016
tp256
aa(lp257
(NF0.0
tp258
a(I4
F0.003
tp259
a(I4
F1.017
tp260
aa(lp261
(NF0.0
tp262
a(I4
F0.003
tp263
a(I4
F1.015
tp264
aa(lp265
(NF0.0
tp266
a(I1
F0.003
tp267
a(I1
F1.017
tp268
aa(lp269
(NF0.0
tp270
a(I1
F0.003
tp271
a(I1
F1.0
tp272
aa(lp273
(NF0.0
tp274
a(I4
F0.003
tp275
a(I4
F1.016
tp276
aa(lp277
(NF0.0
tp278
a(I4
F0.003
tp279
a(I4
F1.017
tp280
aa(lp281
(NF0.0
tp282
a(I4
F0.003
tp283
a(I4
F1.017
tp284
aa(lp285
(NF0.0
tp286
a(I4
F0.003
tp287
a(I4
F1.016
tp288
aa(lp289
(NF0.0
tp290
a(I4
F0.003
tp291
a(I4
F1.015
tp292
aa(lp293
(NF0.0
tp294
a(I1
F0.003
tp295
a(I1
F1.016
tp296
aa(lp297
(NF0.0
tp298
a(I1
F0.003
tp299
a(I1
F1.016
tp300
aasS'run_time'
p301
F183.98027205467224
sS'total_iters'
p302
(lp303
I0
aI1
aI2
aI3
aI4
aI5
aI6
aI7
aI8
aI9
aI10
aI11
aI12
aI13
aI14
aI15
aI16
aI17
aI18
aI19
aI20
aI21
aI22
aI23
aI24
aI25
aI26
aI27
aI28
aI29
aI30
aI31
aI32
aI33
aI34
aI35
aI36
aI37
aI38
aI39
aI40
aI41
aI42
aI43
aI44
aI45
aI46
aI47
aI48
aI49
aI50
aI51
aI52
aI53
aI54
aI55
aI56
aI57
aI58
aI59
as.