(dp0
S'cued'
p1
(lp2
S'grayscale_par94.jpg'
p3
aS'grayscale_a462057.jpg'
p4
aS'grayscale_a438011.jpg'
p5
aS'grayscale_urban157.jpg'
p6
aS'grayscale_a812069.jpg'
p7
aS'grayscale_art1192.jpg'
p8
aS'grayscale_p1010521.jpg'
p9
aS'grayscale_art1546.jpg'
p10
aS'grayscale_urban1003.jpg'
p11
aS'grayscale_art799.jpg'
p12
aS'grayscale_a806037.jpg'
p13
aS'grayscale_urb159.jpg'
p14
aS'gray10_crop_grayscale_CFD-AF-215-70-N.jpg'
p15
aS'grayscale_boston19.jpg'
p16
aS'grayscale_city8.jpg'
p17
aS'grayscale_urb911.jpg'
p18
aS'gray20_crop_grayscale_CFD-AM-226-234-N.jpg'
p19
aS'gray15_crop_grayscale_CFD-AM-253-161-N.jpg'
p20
aS'gray15_crop_grayscale_CFD-AM-239-147-N.jpg'
p21
aS'gray20_crop_grayscale_CFD-AF-251-093-N.jpg'
p22
asS'cued_RT'
p23
(lp24
F0.44167113304138184
aF0.4395561218261719
aF0.44875288009643555
aF0.6435680389404297
aF0.45818400382995605
aF0.48537302017211914
asS'cue_Right'
p25
(lp26
I1
aI1
aI0
aI0
aI1
aI0
aI0
aI0
aI0
aI0
aI1
aI0
aI1
aI0
aI0
aI0
aI1
aI1
aI1
aI1
asS'run_time'
p27
F64.70082998275757
sS'uncued'
p28
(lp29
S'gray20_crop_grayscale_CFD-WM-204-031-N.jpg'
p30
aS'gray20_crop_grayscale_CFD-BF-006-017-N.jpg'
p31
aS'gray15_crop_grayscale_CFD-AF-221-147-N.jpg'
p32
aS'gray10_crop_grayscale_CFD-AM-230-150-N.jpg'
p33
aS'gray20_crop_grayscale_CFD-AM-224-126-N.jpg'
p34
aS'gray15_crop_grayscale_CFD-AM-206-086-N.jpg'
p35
aS'gray20_crop_grayscale_CFD-WM-215-041-N.jpg'
p36
aS'gray10_crop_grayscale_CFD-AF-245-143-N.jpg'
p37
aS'gray10_crop_grayscale_CFD-AF-219-106-N.jpg'
p38
aS'gray10_crop_grayscale_CFD-AM-214-168-N.jpg'
p39
aS'gray20_crop_grayscale_CFD-AF-248-148-N.jpg'
p40
aS'gray20_crop_grayscale_CFD-BF-003-003-N.jpg'
p41
aS'grayscale_street50.jpg'
p42
aS'gray10_crop_grayscale_CFD-AF-244-168-N.jpg'
p43
aS'gray10_crop_grayscale_CFD-AF-201-060-N.jpg'
p44
aS'gray20_crop_grayscale_CFD-WM-244-003-N.jpg'
p45
aS'grayscale_urb907.jpg'
p46
aS'grayscale_sky43.jpg'
p47
aS'grayscale_art1720.jpg'
p48
aS'grayscale_p1010589.jpg'
p49
asS'total_iters'
p50
I20
sS'uncued_RT'
p51
(lp52
F1.009289026260376
aF0.6046340465545654
aF0.6286270618438721
aF0.5147690773010254
aF0.5471460819244385
aF0.3957970142364502
aF0.520104169845581
aF0.4792630672454834
aF0.4403500556945801
aF0.48601698875427246
aF0.37139296531677246
aF0.4965689182281494
aF0.3371548652648926
aF0.39540600776672363
as.