(dp0
S'images'
p1
(lp2
S'gray25_crop_grayscale_CFD-BF-004-014-N.jpg'
p3
aS'gray20_crop_grayscale_CFD-AF-242-158-N.jpg'
p4
aS'grayscale_gre115.jpg'
p5
aS'grayscale_par87.jpg'
p6
aS'gray15_crop_grayscale_CFD-AM-202-079-N.jpg'
p7
aS'grayscale_urban167.jpg'
p8
aS'gray15_crop_grayscale_CFD-AM-234-355-N.jpg'
p9
aS'grayscale_a279033.jpg'
p10
aS'grayscale_art1732.jpg'
p11
aS'grayscale_art775.jpg'
p12
aS'gray10_crop_grayscale_CFD-AF-206-079-N.jpg'
p13
aS'grayscale_urban158.jpg'
p14
aS'grayscale_boston255.jpg'
p15
aS'gray15_crop_grayscale_CFD-AM-215-120-N.jpg'
p16
aS'gray15_crop_grayscale_CFD-AF-208-003-N.jpg'
p17
aS'gray10_crop_grayscale_CFD-AF-204-067-N.jpg'
p18
aS'grayscale_art1751.jpg'
p19
aS'grayscale_city10.jpg'
p20
aS'gray10_crop_grayscale_CFD-AF-230-193-N.jpg'
p21
aS'grayscale_a487062.jpg'
p22
aS'gray20_crop_grayscale_CFD-WM-206-045-N.jpg'
p23
aS'grayscale_urban73.jpg'
p24
aS'gray20_crop_grayscale_CFD-WM-225-127-N.jpg'
p25
aS'grayscale_city50.jpg'
p26
aS'grayscale_a805043.jpg'
p27
aS'grayscale_art1617.jpg'
p28
aS'gray10_crop_grayscale_CFD-AM-238-269-N.jpg'
p29
aS'grayscale_a538076.jpg'
p30
aS'grayscale_art475.jpg'
p31
aS'gray10_crop_grayscale_CFD-AF-217-155-N.jpg'
p32
aS'gray20_crop_grayscale_CFD-WM-218-074-N.jpg'
p33
aS'gray15_crop_grayscale_CFD-AF-223-183-N.jpg'
p34
aS'grayscale_a806011.jpg'
p35
aS'gray10_crop_grayscale_CFD-AF-214-139-N.jpg'
p36
aS'gray15_crop_grayscale_CFD-AF-252-135-N.jpg'
p37
aS'grayscale_p1010489.jpg'
p38
aS'gray15_crop_grayscale_CFD-AM-227-184-N.jpg'
p39
aS'gray20_crop_grayscale_CFD-AM-211-052-N.jpg'
p40
aS'grayscale_a588087.jpg'
p41
aS'gray15_crop_grayscale_CFD-AF-226-251-N.jpg'
p42
aS'gray15_crop_grayscale_CFD-AF-238-185-N.jpg'
p43
aS'gray10_crop_grayscale_CFD-AM-244-222-N.jpg'
p44
aS'grayscale_urban987.jpg'
p45
aS'gray15_crop_grayscale_CFD-BF-012-001-N.jpg'
p46
aS'grayscale_art1756.jpg'
p47
aS'gray15_crop_grayscale_CFD-AF-227-207-N.jpg'
p48
aS'gray15_crop_grayscale_CFD-AF-220-107-N.jpg'
p49
aS'grayscale_par33.jpg'
p50
aS'gray15_crop_grayscale_CFD-AF-209-006-N.jpg'
p51
aS'grayscale_city5.jpg'
p52
aS'grayscale_art869.jpg'
p53
aS'gray10_crop_grayscale_CFD-AF-233-190-N.jpg'
p54
aS'grayscale_street02.jpg'
p55
aS'gray10_crop_grayscale_CFD-AM-250-149-N.jpg'
p56
aS'gray15_crop_grayscale_CFD-AF-225-141-N.jpg'
p57
aS'gray10_crop_grayscale_CFD-AF-213-126-N.jpg'
p58
aS'grayscale_art1041.jpg'
p59
aS'grayscale_p1010527.jpg'
p60
aS'gray10_crop_grayscale_CFD-AM-229-224-N.jpg'
p61
aS'grayscale_art840.jpg'
p62
asS'ratings'
p63
(lp64
(lp65
(NF0.0
tp66
a(NF1.009
tp67
aa(lp68
(NF0.0
tp69
a(I1
F0.002
tp70
a(I1
F1.001
tp71
aa(lp72
(NF0.0
tp73
aa(lp74
(NF0.0
tp75
a(I1
F0.002
tp76
a(I1
F1.0
tp77
aa(lp78
(NF0.0
tp79
aa(lp80
(NF0.0
tp81
a(NF1.017
tp82
aa(lp83
(NF0.0
tp84
aa(lp85
(NF0.0
tp86
a(I4
F0.336
tp87
a(I4
F1.017
tp88
aa(lp89
(NF0.0
tp90
aa(lp91
(NF0.0
tp92
aa(lp93
(NF0.0
tp94
aa(lp95
(NF0.0
tp96
a(I4
F0.002
tp97
a(I4
F1.016
tp98
aa(lp99
(NF0.0
tp100
a(I1
F0.218
tp101
a(I1
F1.017
tp102
aa(lp103
(NF0.0
tp104
a(I4
F0.284
tp105
a(I4
F1.016
tp106
aa(lp107
(NF0.0
tp108
a(I4
F0.235
tp109
a(I4
F1.016
tp110
aa(lp111
(NF0.0
tp112
a(I4
F0.218
tp113
a(I4
F1.016
tp114
aa(lp115
(NF0.0
tp116
a(I1
F0.201
tp117
a(I1
F1.016
tp118
aa(lp119
(NF0.0
tp120
a(I1
F0.335
tp121
a(I1
F1.017
tp122
aa(lp123
(NF0.0
tp124
a(I4
F0.235
tp125
a(I4
F1.017
tp126
aa(lp127
(NF0.0
tp128
aa(lp129
(NF0.0
tp130
aa(lp131
(NF0.0
tp132
aa(lp133
(NF0.0
tp134
aa(lp135
(NF0.0
tp136
a(I4
F0.285
tp137
a(I4
F1.017
tp138
aa(lp139
(NF0.0
tp140
a(I1
F0.218
tp141
a(I1
F1.017
tp142
aa(lp143
(NF0.0
tp144
a(I1
F0.002
tp145
a(I1
F1.016
tp146
aa(lp147
(NF0.0
tp148
a(I4
F0.285
tp149
a(I4
F1.0
tp150
aa(lp151
(NF0.0
tp152
a(I1
F0.385
tp153
a(I1
F1.016
tp154
aa(lp155
(NF0.0
tp156
a(I4
F0.317
tp157
a(I4
F1.016
tp158
aa(lp159
(NF0.0
tp160
aa(lp161
(NF0.0
tp162
a(I4
F0.235
tp163
a(I4
F1.016
tp164
aa(lp165
(NF0.0
tp166
aa(lp167
(NF0.0
tp168
aa(lp169
(NF0.0
tp170
a(I4
F0.219
tp171
a(I4
F1.016
tp172
aa(lp173
(NF0.0
tp174
aa(lp175
(NF0.0
tp176
a(I1
F0.334
tp177
a(I1
F1.016
tp178
aa(lp179
(NF0.0
tp180
aa(lp181
(NF0.0
tp182
aa(lp183
(NF0.0
tp184
aa(lp185
(NF0.0
tp186
aa(lp187
(NF0.0
tp188
aa(lp189
(NF0.0
tp190
a(I4
F0.269
tp191
a(I4
F1.0
tp192
aa(lp193
(NF0.0
tp194
aa(lp195
(NF0.0
tp196
a(I4
F0.284
tp197
a(I4
F1.017
tp198
aa(lp199
(NF0.0
tp200
a(I1
F0.269
tp201
a(I1
F1.0
tp202
aa(lp203
(NF0.0
tp204
a(I4
F0.285
tp205
a(I4
F1.016
tp206
aa(lp207
(NF0.0
tp208
a(I4
F0.301
tp209
a(I4
F1.016
tp210
aa(lp211
(NF0.0
tp212
aa(lp213
(NF0.0
tp214
aa(lp215
(NF0.0
tp216
aa(lp217
(NF0.0
tp218
a(I4
F0.318
tp219
a(I4
F1.0
tp220
aa(lp221
(NF0.0
tp222
a(I1
F0.402
tp223
a(I1
F1.016
tp224
aa(lp225
(NF0.0
tp226
aa(lp227
(NF0.0
tp228
aa(lp229
(NF0.0
tp230
a(NF1.001
tp231
aa(lp232
(NF0.0
tp233
a(I4
F0.386
tp234
a(I4
F1.001
tp235
aa(lp236
(NF0.0
tp237
aa(lp238
(NF0.0
tp239
aa(lp240
(NF0.0
tp241
a(I4
F0.369
tp242
a(I4
F1.0
tp243
aa(lp244
(NF0.0
tp245
aasS'run_time'
p246
F175.32585501670837
sS'total_iters'
p247
(lp248
I0
aI1
aI2
aI3
aI4
aI5
aI6
aI7
aI8
aI9
aI10
aI11
aI12
aI13
aI14
aI15
aI16
aI17
aI18
aI19
aI20
aI21
aI22
aI23
aI24
aI25
aI26
aI27
aI28
aI29
aI30
aI31
aI32
aI33
aI34
aI35
aI36
aI37
aI38
aI39
aI40
aI41
aI42
aI43
aI44
aI45
aI46
aI47
aI48
aI49
aI50
aI51
aI52
aI53
aI54
aI55
aI56
aI57
aI58
aI59
as.