(dp0
S'images'
p1
(lp2
S'grayscale_sky43.jpg'
p3
aS'gray20_crop_grayscale_CFD-WM-215-041-N.jpg'
p4
aS'grayscale_city1.jpg'
p5
aS'gray15_crop_grayscale_CFD-AM-253-161-N.jpg'
p6
aS'gray20_crop_grayscale_CFD-BF-003-003-N.jpg'
p7
aS'gray10_crop_grayscale_CFD-AF-237-223-N.jpg'
p8
aS'gray20_crop_grayscale_CFD-AF-251-093-N.jpg'
p9
aS'grayscale_art1192.jpg'
p10
aS'grayscale_a812069.jpg'
p11
aS'grayscale_a462057.jpg'
p12
aS'gray10_crop_grayscale_CFD-AF-201-060-N.jpg'
p13
aS'gray20_crop_grayscale_CFD-WM-204-031-N.jpg'
p14
aS'gray10_crop_grayscale_CFD-AM-248-104-N.jpg'
p15
aS'grayscale_street50.jpg'
p16
aS'grayscale_art1015.jpg'
p17
aS'gray15_crop_grayscale_CFD-AM-206-086-N.jpg'
p18
aS'gray10_crop_grayscale_CFD-AF-239-171-N.jpg'
p19
aS'grayscale_par94.jpg'
p20
aS'gray20_crop_grayscale_CFD-BF-010-001-N.jpg'
p21
aS'grayscale_urb911.jpg'
p22
aS'gray20_crop_grayscale_CFD-AM-224-126-N.jpg'
p23
aS'grayscale_a438011.jpg'
p24
aS'grayscale_urban1003.jpg'
p25
aS'grayscale_p9120503.jpg'
p26
aS'grayscale_boston19.jpg'
p27
aS'grayscale_boston373.jpg'
p28
aS'gray20_crop_grayscale_CFD-WM-244-003-N.jpg'
p29
aS'grayscale_urban157.jpg'
p30
aS'gray10_crop_grayscale_CFD-AF-245-143-N.jpg'
p31
aS'grayscale_a806037.jpg'
p32
aS'gray10_crop_grayscale_CFD-AF-244-168-N.jpg'
p33
aS'grayscale_p1010589.jpg'
p34
aS'grayscale_sky22.jpg'
p35
aS'gray10_crop_grayscale_CFD-AM-242-176-N.jpg'
p36
aS'grayscale_art861.jpg'
p37
aS'grayscale_par103.jpg'
p38
aS'grayscale_urb907.jpg'
p39
aS'grayscale_art1316.jpg'
p40
aS'grayscale_art1546.jpg'
p41
aS'gray20_crop_grayscale_CFD-BF-006-017-N.jpg'
p42
aS'gray15_crop_grayscale_CFD-AM-239-147-N.jpg'
p43
aS'grayscale_archi296.jpg'
p44
aS'grayscale_city8.jpg'
p45
aS'gray10_crop_grayscale_CFD-AF-215-70-N.jpg'
p46
aS'gray20_crop_grayscale_CFD-AM-226-234-N.jpg'
p47
aS'grayscale_art799.jpg'
p48
aS'gray20_crop_grayscale_CFD-AF-248-148-N.jpg'
p49
aS'grayscale_city7.jpg'
p50
aS'gray10_crop_grayscale_CFD-AM-230-150-N.jpg'
p51
aS'grayscale_urb159.jpg'
p52
aS'grayscale_p1010521.jpg'
p53
aS'gray10_crop_grayscale_CFD-AM-214-168-N.jpg'
p54
aS'grayscale_art1720.jpg'
p55
aS'gray15_crop_grayscale_CFD-AF-221-147-N.jpg'
p56
aS'gray10_crop_grayscale_CFD-AF-219-106-N.jpg'
p57
aS'grayscale_urban649.jpg'
p58
aS'gray20_crop_grayscale_CFD-AF-250-200-N.jpg'
p59
aS'grayscale_urb506.jpg'
p60
aS'grayscale_art1474.jpg'
p61
aS'grayscale_urb893.jpg'
p62
asS'ratings'
p63
(lp64
(lp65
(NF0.0
tp66
aa(lp67
(NF0.0
tp68
a(I1
F0.002
tp69
a(I1
F1.017
tp70
aa(lp71
(NF0.0
tp72
a(I1
F0.002
tp73
a(I1
F1.015
tp74
aa(lp75
(NF0.0
tp76
aa(lp77
(NF0.0
tp78
a(I4
F0.002
tp79
a(I4
F1.017
tp80
aa(lp81
(NF0.0
tp82
a(I4
F0.002
tp83
a(I4
F1.0
tp84
aa(lp85
(NF0.0
tp86
a(I4
F0.003
tp87
a(I4
F1.016
tp88
aa(lp89
(NF0.0
tp90
a(I1
F0.003
tp91
a(I1
F1.016
tp92
aa(lp93
(NF0.0
tp94
a(I1
F0.003
tp95
a(I1
F1.016
tp96
aa(lp97
(NF0.0
tp98
a(I1
F0.002
tp99
a(I1
F1.016
tp100
aa(lp101
(NF0.0
tp102
a(I4
F0.003
tp103
a(I4
F1.016
tp104
aa(lp105
(NF0.0
tp106
a(I1
F0.002
tp107
a(I1
F1.016
tp108
aa(lp109
(NF0.0
tp110
a(I1
F0.002
tp111
a(I1
F1.016
tp112
aa(lp113
(NF0.0
tp114
a(I1
F0.002
tp115
a(I1
F1.0
tp116
aa(lp117
(NF0.0
tp118
a(I4
F0.002
tp119
a(I4
F1.0
tp120
aa(lp121
(NF0.0
tp122
aa(lp123
(NF0.0
tp124
a(I4
F0.268
tp125
a(I4
F1.016
tp126
aa(lp127
(NF0.0
tp128
a(I1
F0.002
tp129
a(I1
F1.016
tp130
aa(lp131
(NF0.0
tp132
a(I4
F0.035
tp133
a(I4
F1.017
tp134
aa(lp135
(NF0.0
tp136
a(I1
F0.002
tp137
a(I1
F1.016
tp138
aa(lp139
(NF0.0
tp140
aa(lp141
(NF0.0
tp142
aa(lp143
(NF0.0
tp144
a(I1
F0.003
tp145
a(I1
F1.017
tp146
aa(lp147
(NF0.0
tp148
a(I1
F0.002
tp149
a(I1
F1.016
tp150
aa(lp151
(NF0.0
tp152
a(I1
F0.002
tp153
a(I1
F1.0
tp154
aa(lp155
(NF0.0
tp156
a(I1
F0.002
tp157
a(I1
F1.0
tp158
aa(lp159
(NF0.0
tp160
a(I1
F0.386
tp161
a(I1
F1.017
tp162
aa(lp163
(NF0.0
tp164
a(I4
F0.235
tp165
a(I4
F1.016
tp166
aa(lp167
(NF0.0
tp168
a(I4
F0.285
tp169
a(I4
F1.017
tp170
aa(lp171
(NF0.0
tp172
a(I1
F0.268
tp173
a(I1
F1.017
tp174
aa(lp175
(NF0.0
tp176
aa(lp177
(NF0.0
tp178
a(I1
F0.186
tp179
a(I1
F1.001
tp180
aa(lp181
(NF0.0
tp182
aa(lp183
(NF0.0
tp184
aa(lp185
(NF0.0
tp186
a(I1
F0.185
tp187
a(I1
F1.017
tp188
aa(lp189
(NF0.0
tp190
a(I1
F0.002
tp191
a(I1
F1.001
tp192
aa(lp193
(NF0.0
tp194
a(I1
F0.002
tp195
a(I1
F1.016
tp196
aa(lp197
(NF0.0
tp198
a(I1
F0.003
tp199
a(I1
F1.016
tp200
aa(lp201
(NF0.0
tp202
a(I1
F0.117
tp203
a(I1
F1.016
tp204
aa(lp205
(NF0.0
tp206
a(I4
F0.218
tp207
a(I4
F1.016
tp208
aa(lp209
(NF0.0
tp210
a(I4
F0.151
tp211
a(I4
F1.016
tp212
aa(lp213
(NF0.0
tp214
a(I1
F0.003
tp215
a(I1
F1.015
tp216
aa(lp217
(NF0.0
tp218
a(I1
F0.003
tp219
a(I1
F1.017
tp220
aa(lp221
(NF0.0
tp222
a(I1
F0.003
tp223
a(I1
F1.017
tp224
aa(lp225
(NF0.0
tp226
aa(lp227
(NF0.0
tp228
a(I4
F0.003
tp229
a(I4
F1.001
tp230
aa(lp231
(NF0.0
tp232
a(I1
F0.003
tp233
a(I1
F1.016
tp234
aa(lp235
(NF0.0
tp236
a(I1
F0.003
tp237
a(I1
F1.017
tp238
aa(lp239
(NF0.0
tp240
a(I1
F0.218
tp241
a(I1
F1.017
tp242
aa(lp243
(NF0.0
tp244
a(I1
F0.185
tp245
a(I1
F1.0
tp246
aa(lp247
(NF0.0
tp248
a(I1
F0.218
tp249
a(I1
F1.0
tp250
aa(lp251
(NF0.0
tp252
aa(lp253
(NF0.0
tp254
aa(lp255
(NF0.0
tp256
a(I4
F0.185
tp257
a(I4
F1.017
tp258
aa(lp259
(NF0.0
tp260
a(I4
F0.035
tp261
a(I4
F1.0
tp262
aa(lp263
(NF0.0
tp264
a(I1
F0.003
tp265
a(I1
F1.017
tp266
aa(lp267
(NF0.0
tp268
a(I1
F0.003
tp269
a(I1
F1.016
tp270
aa(lp271
(NF0.0
tp272
a(I1
F0.003
tp273
a(I1
F1.016
tp274
aa(lp275
(NF0.0
tp276
a(I4
F0.003
tp277
a(I4
F1.016
tp278
aa(lp279
(NF0.0
tp280
aasS'run_time'
p281
F180.3618929386139
sS'total_iters'
p282
(lp283
I0
aI1
aI2
aI3
aI4
aI5
aI6
aI7
aI8
aI9
aI10
aI11
aI12
aI13
aI14
aI15
aI16
aI17
aI18
aI19
aI20
aI21
aI22
aI23
aI24
aI25
aI26
aI27
aI28
aI29
aI30
aI31
aI32
aI33
aI34
aI35
aI36
aI37
aI38
aI39
aI40
aI41
aI42
aI43
aI44
aI45
aI46
aI47
aI48
aI49
aI50
aI51
aI52
aI53
aI54
aI55
aI56
aI57
aI58
aI59
as.