(dp0
S'cued'
p1
(lp2
S'gray15_crop_grayscale_CFD-AF-227-207-N.jpg'
p3
aS'grayscale_art475.jpg'
p4
aS'grayscale_art775.jpg'
p5
aS'grayscale_a806011.jpg'
p6
aS'grayscale_art1732.jpg'
p7
aS'grayscale_a538076.jpg'
p8
aS'gray15_crop_grayscale_CFD-AF-223-183-N.jpg'
p9
aS'grayscale_par94.jpg'
p10
aS'grayscale_boston255.jpg'
p11
aS'grayscale_art1756.jpg'
p12
aS'grayscale_art1617.jpg'
p13
aS'grayscale_city5.jpg'
p14
aS'grayscale_urban158.jpg'
p15
aS'gray10_crop_grayscale_CFD-AM-250-149-N.jpg'
p16
aS'grayscale_city10.jpg'
p17
aS'grayscale_city50.jpg'
p18
aS'grayscale_art1041.jpg'
p19
aS'grayscale_art840.jpg'
p20
aS'grayscale_p1010527.jpg'
p21
aS'grayscale_gre115.jpg'
p22
asS'cued_RT'
p23
(lp24
F0.6065561771392822
aF0.7784030437469482
aF0.6538400650024414
aF0.6382749080657959
aF0.5887970924377441
aF0.46736788749694824
aF0.42473316192626953
aF0.3815767765045166
asS'cue_Right'
p25
(lp26
I1
aI1
aI0
aI1
aI0
aI1
aI1
aI0
aI1
aI1
aI1
aI0
aI0
aI1
aI0
aI1
aI0
aI0
aI0
aI0
asS'run_time'
p27
F67.25643992424011
sS'uncued'
p28
(lp29
S'grayscale_urban987.jpg'
p30
aS'gray15_crop_grayscale_CFD-AF-225-141-N.jpg'
p31
aS'gray15_crop_grayscale_CFD-AM-227-184-N.jpg'
p32
aS'gray20_crop_grayscale_CFD-AM-211-052-N.jpg'
p33
aS'gray10_crop_grayscale_CFD-AF-206-079-N.jpg'
p34
aS'gray10_crop_grayscale_CFD-AM-238-269-N.jpg'
p35
aS'grayscale_a805043.jpg'
p36
aS'gray15_crop_grayscale_CFD-AM-202-079-N.jpg'
p37
aS'gray10_crop_grayscale_CFD-AF-213-126-N.jpg'
p38
aS'gray10_crop_grayscale_CFD-AM-244-222-N.jpg'
p39
aS'gray15_crop_grayscale_CFD-AM-234-355-N.jpg'
p40
aS'gray15_crop_grayscale_CFD-BF-012-001-N.jpg'
p41
aS'gray10_crop_grayscale_CFD-AF-230-193-N.jpg'
p42
aS'grayscale_a588087.jpg'
p43
aS'gray20_crop_grayscale_CFD-WM-225-127-N.jpg'
p44
aS'gray15_crop_grayscale_CFD-AF-252-135-N.jpg'
p45
aS'gray25_crop_grayscale_CFD-BF-004-014-N.jpg'
p46
aS'gray20_crop_grayscale_CFD-AF-242-158-N.jpg'
p47
aS'gray15_crop_grayscale_CFD-AF-238-185-N.jpg'
p48
aS'gray10_crop_grayscale_CFD-AF-204-067-N.jpg'
p49
asS'total_iters'
p50
I20
sS'uncued_RT'
p51
(lp52
F1.9003758430480957
aF0.6244199275970459
aF0.6924910545349121
aF0.7215511798858643
aF0.5836639404296875
aF0.5062539577484131
aF0.511120080947876
aF0.3793148994445801
aF0.38323092460632324
aF0.4744739532470703
aF0.6176707744598389
aF0.5811591148376465
as.