(dp0
S'cued_RT'
p1
(lp2
sS'cued'
p3
(lp4
S'261_5.jpg'
p5
aS'285_111.jpg'
p6
aS'227_19.jpg'
p7
aS'308_132.jpg'
p8
aS'286_112.jpg'
p9
aS'246_36.jpg'
p10
aS'257_46.jpg'
p11
aS'360_18.jpg'
p12
aS'350_170.jpg'
p13
aS'291_117.jpg'
p14
asS'run_time'
p15
F49.04515314102173
sS'cue_tuples'
p16
(lp17
(S'cue_L'
p18
S'F'
p19
I0
tp20
a(g18
g19
I1
tp21
a(g18
g19
I0
tp22
a(g18
g19
I1
tp23
a(g18
g19
I0
tp24
a(g18
g19
I1
tp25
a(g18
g19
I0
tp26
a(g18
g19
I0
tp27
a(g18
g19
I0
tp28
a(g18
g19
I0
tp29
asS'uncued'
p30
(lp31
S'190_107.jpg'
p32
aS'324_147.jpg'
p33
aS'330_152.jpg'
p34
aS'358_178.jpg'
p35
aS'342_163.jpg'
p36
aS'215_13.jpg'
p37
aS'237_28.jpg'
p38
aS'335_157.jpg'
p39
aS'333_155.jpg'
p40
aS'206_121.jpg'
p41
asS'uncued_RT'
p42
(lp43
F0.33924388885498047
aF0.5912659168243408
aF0.43813109397888184
aF0.5177412033081055
aF0.5565760135650635
aF0.46871089935302734
aF0.6577157974243164
aF0.3757638931274414
aF0.5084941387176514
aF0.7439179420471191
as.