(lp0
S'A little engaging'
p1
aS'Very tired'
p2
accopy_reg
_reconstructor
p3
(cfuture.types.newstr
newstr
p4
c__builtin__
unicode
p5
VScenes, for some reason I could just see them for easily than the faces
p6
tp7
Rp8
ag3
(g4
g5
VLeft
p9
tp10
Rp11
ag3
(g4
g5
VDid not use any strategies and afraid I may have tried to remember the wrong image because I misremebered which side to look at as the letter came up on the opposite side to the one I had been attending to.
p12
tp13
Rp14
a.