(dp0
S'images'
p1
(lp2
S'sunarfdklgdnjgeqfjg.jpg'
p3
aS'sunadkazmlajmohnwfl.jpg'
p4
aS'00780960530fa.jpg'
p5
aS'00864940307fa.jpg'
p6
aS'00132931230fb.jpg'
p7
aS'00799941205fa.jpg'
p8
aS'00942960627fa.jpg'
p9
aS'sunasrjlmglmjzbmqxb.jpg'
p10
aS'sunabwmcbaxwioksdgw.jpg'
p11
aS'00789960620fa.jpg'
p12
aS'sunajrujcsdxmfbssmc.jpg'
p13
aS'sunajawzbrlrwafowen.jpg'
p14
aS'00108960530fa.jpg'
p15
aS'00772941201fa.jpg'
p16
aS'00742941201fa.jpg'
p17
aS'sunagwzdbtlixdhgolm.jpg'
p18
aS'00838940307fa.jpg'
p19
aS'00197940128fa.jpg'
p20
aS'sunbwtlihsuptkrckid.jpg'
p21
aS'00746941201fa.jpg'
p22
aS'00314940422fa.jpg'
p23
aS'01004960627fa.jpg'
p24
aS'sunaenwuebvlpdmntju.jpg'
p25
aS'00662941121fa.jpg'
p26
aS'sunagutjvdvnhxejerz.jpg'
p27
aS'sunalqmfgeadpqsyzpd.jpg'
p28
aS'00630940928fa.jpg'
p29
aS'sunaanjcbzdvtvblsdy.jpg'
p30
aS'sunaetydippjxikifsb.jpg'
p31
aS'sunaecpkgfewqqreqwe.jpg'
p32
aS'00720960620fa.jpg'
p33
aS'00185940422fb.jpg'
p34
aS'00129931230fb.jpg'
p35
aS'sunafgzgbisbopcyslr.jpg'
p36
aS'00950960627fa.jpg'
p37
aS'00158931230fb.jpg'
p38
aS'00970960627fa.jpg'
p39
aS'sunaavchcbptaerhcfy.jpg'
p40
aS'sunabbwggenhfbftyvi.jpg'
p41
aS'sunaawqdbpihmlbwyyn.jpg'
p42
asS'ratings'
p43
(lp44
(lp45
(NF0.0
tp46
a(I1
F1.894
tp47
aa(lp48
(NF0.0
tp49
a(I1
F1.447
tp50
aa(lp51
(NF0.0
tp52
aa(lp53
(NF0.0
tp54
a(I3
F0.88
tp55
aa(lp56
(NF0.0
tp57
a(I2
F0.932
tp58
aa(lp59
(NF0.0
tp60
a(I2
F1.52
tp61
aa(lp62
(NF0.0
tp63
a(I3
F1.647
tp64
aa(lp65
(NF0.0
tp66
aa(lp67
(NF0.0
tp68
a(I1
F1.147
tp69
aa(lp70
(NF0.0
tp71
a(I4
F1.512
tp72
aa(lp73
(NF0.0
tp74
a(I1
F1.431
tp75
aa(lp76
(NF0.0
tp77
a(I4
F1.813
tp78
aa(lp79
(NF0.0
tp80
a(I3
F1.146
tp81
aa(lp82
(NF0.0
tp83
a(I2
F1.747
tp84
aa(lp85
(NF0.0
tp86
a(I3
F1.697
tp87
aa(lp88
(NF0.0
tp89
a(I1
F1.264
tp90
aa(lp91
(NF0.0
tp92
a(I2
F1.045
tp93
aa(lp94
(NF0.0
tp95
a(I1
F1.113
tp96
aa(lp97
(NF0.0
tp98
aa(lp99
(NF0.0
tp100
a(I2
F0.961
tp101
aa(lp102
(NF0.0
tp103
a(I3
F0.93
tp104
aa(lp105
(NF0.0
tp106
a(I2
F0.902
tp107
aa(lp108
(NF0.0
tp109
a(I4
F1.513
tp110
aa(lp111
(NF0.0
tp112
a(I3
F1.585
tp113
aa(lp114
(NF0.0
tp115
a(I4
F1.497
tp116
aa(lp117
(NF0.0
tp118
a(I1
F1.263
tp119
aa(lp120
(NF0.0
tp121
a(I2
F1.346
tp122
aa(lp123
(NF0.0
tp124
aa(lp125
(NF0.0
tp126
a(I1
F1.13
tp127
aa(lp128
(NF0.0
tp129
a(I4
F1.112
tp130
aa(lp131
(NF0.0
tp132
a(I2
F1.348
tp133
aa(lp134
(NF0.0
tp135
a(I2
F1.164
tp136
aa(lp137
(NF0.0
tp138
a(I2
F1.687
tp139
aa(lp140
(NF0.0
tp141
a(I1
F1.179
tp142
aa(lp143
(NF0.0
tp144
a(I2
F0.981
tp145
aa(lp146
(NF0.0
tp147
a(I3
F0.963
tp148
aa(lp149
(NF0.0
tp150
a(I2
F1.043
tp151
aa(lp152
(NF0.0
tp153
a(I1
F1.113
tp154
aa(lp155
(NF0.0
tp156
a(I1
F0.881
tp157
aa(lp158
(NF0.0
tp159
a(I1
F0.73
tp160
aasS'run_time'
p161
F123.06209993362427
sS'total_iters'
p162
(lp163
I0
aI1
aI2
aI3
aI4
aI5
aI6
aI7
aI8
aI9
aI10
aI11
aI12
aI13
aI14
aI15
aI16
aI17
aI18
aI19
aI20
aI21
aI22
aI23
aI24
aI25
aI26
aI27
aI28
aI29
aI30
aI31
aI32
aI33
aI34
aI35
aI36
aI37
aI38
aI39
as.