(dp0
S'cue_tuples'
p1
(lp2
(S'cue_L'
p3
S'L'
p4
I0
tp5
a(g3
g4
I0
tp6
a(g3
g4
I0
tp7
a(g3
g4
I0
tp8
a(g3
g4
I0
tp9
a(g3
g4
I0
tp10
a(g3
g4
I1
tp11
a(g3
g4
I0
tp12
a(g3
g4
I0
tp13
a(g3
g4
I0
tp14
asS'uncued'
p15
(lp16
S'00746941201fa_sunaetydippjxikifsb.jpg'
p17
aS'00762941201fa_sunafgzgbisbopcyslr.jpg'
p18
aS'00108960530fa_sunaajtnvzzpsjdzres.jpg'
p19
aS'00197940128fa_sunaaylzyqlqrsmfwif.jpg'
p20
aS'00129931230fb_sunaamsdyakblkfoydx.jpg'
p21
aS'00314940422fa_sunabwmcbaxwioksdgw.jpg'
p22
aS'00942960627fa_sunarfdklgdnjgeqfjg.jpg'
p23
aS'00662941121fa_sunadkazmlajmohnwfl.jpg'
p24
aS'00158931230fb_sunaavchcbptaerhcfy.jpg'
p25
aS'00780960530fa_sunagetqixeypsysbpn.jpg'
p26
asS'cued'
p27
(lp28
S'00185940422fb_sunaawqdbpihmlbwyyn.jpg'
p29
aS'00801941205fa_sunagvprlbprarvgdvj.jpg'
p30
aS'00132931230fb_sunaanjcbzdvtvblsdy.jpg'
p31
aS'00742941201fa_sunaenwuebvlpdmntju.jpg'
p32
aS'00864940307fa_sunajawzbrlrwafowen.jpg'
p33
aS'00799941205fa_sunagutjvdvnhxejerz.jpg'
p34
aS'00950960627fa_sunasrjlmglmjzbmqxb.jpg'
p35
aS'00720960620fa_sunaecpkgfewqqreqwe.jpg'
p36
aS'01004960627fa_sunbwtlihsuptkrckid.jpg'
p37
aS'00789960620fa_sunagpancjmxqfazssf.jpg'
p38
asS'uncued_RT'
p39
(lp40
F1.4651918411254883
aF0.9286751747131348
aF0.838641881942749
aF0.7214798927307129
aF1.2871451377868652
aF0.5026130676269531
aF0.5096828937530518
aF0.5164699554443359
aF0.7457690238952637
aF0.5508248805999756
asS'cued_RT'
p41
(lp42
s.