(dp0
S'cue_tuples'
p1
(lp2
(S'cue_L'
p3
S'L'
p4
I0
tp5
a(g3
g4
I0
tp6
a(g3
g4
I0
tp7
a(g3
g4
I0
tp8
a(g3
g4
I0
tp9
a(g3
g4
I0
tp10
a(g3
g4
I0
tp11
a(g3
g4
I0
tp12
a(g3
g4
I0
tp13
a(g3
g4
I0
tp14
asS'uncued'
p15
(lp16
S'00081941031fa_sunaaftlyfudyzuhqzf.jpg'
p17
aS'00109931230fa_sunaajuzribjrizdshh.jpg'
p18
aS'00747941201fa_sunaeutbrtswvsozxyk.jpg'
p19
aS'00635941031fa_sunaddsaeicthrfbkhe.jpg'
p20
aS'00949960627fb_sunasnqkkyhilqkxiqm.jpg'
p21
aS'00943960627fa_sunarpsxqkduedrrzyi.jpg'
p22
aS'00822940307fa_sunahqrxievfeusiqlt.jpg'
p23
aS'00142931230fb_sunaapxkpvrhpjplsok.jpg'
p24
aS'00568940928fa_sunacsdhbbsybcyxnel.jpg'
p25
aS'00120931230fa_sunaakxgygjfqrzpyoz.jpg'
p26
asS'cued'
p27
(lp28
S'00098931230fa_sunaajpqmulidejvjsr.jpg'
p29
aS'00884960530fa_sunakodkcslgqhqlgwl.jpg'
p30
aS'00211940128fa_sunabasphceswhwwqvv.jpg'
p31
aS'00841940307fa_sunaisiwfgppimtnmxl.jpg'
p32
aS'00816941205fa_sunahmhrncocyhsjpxk.jpg'
p33
aS'00096931230fa_sunaaiqiqcggrskoqgy.jpg'
p34
aS'00093931230fa_sunaahwnmtqsrhocysw.jpg'
p35
aS'00532960627fa_sunaccdtpgenvcbcbcf.jpg'
p36
aS'00921960627fa_sunapqkpqdfvxlbqwyo.jpg'
p37
aS'00095931230fa_sunaahzooisqkwlxwoz.jpg'
p38
asS'uncued_RT'
p39
(lp40
F1.9403529167175293
aF0.5296099185943604
aF0.399547815322876
aF0.7785730361938477
aF0.574073076248169
aF0.6034290790557861
aF0.4142801761627197
aF0.50459885597229
aF0.5499269962310791
aF0.4182918071746826
asS'cued_RT'
p41
(lp42
s.