(dp0
S'images'
p1
(lp2
S'sunahqldjibofgsfdgb.jpg'
p3
aS'sunaqbmgkgqucajzrkp.jpg'
p4
aS'00266940128fb.jpg'
p5
aS'00858940307fa.jpg'
p6
aS'sunaaeplwsfslcbtojr.jpg'
p7
aS'sunanwjjyqqwzqrqagd.jpg'
p8
aS'sunaakqepfoeqomfgxf.jpg'
p9
aS'00061931230fb.jpg'
p10
aS'sunabxmguapjekttvwm.jpg'
p11
aS'00937960627fa.jpg'
p12
aS'00819940307fa.jpg'
p13
aS'00316940422fa.jpg'
p14
aS'00070940307fa.jpg'
p15
aS'sunabtrnbvpppgczjim.jpg'
p16
aS'00214940128fa.jpg'
p17
aS'sunagpjzsbltchlwvou.jpg'
p18
aS'00071941031fa.jpg'
p19
aS'sunaejnvnpltdmhbcsi.jpg'
p20
aS'00077931230fb.jpg'
p21
aS'00305940422fa.jpg'
p22
aS'sunadfktsqjthoglcsm.jpg'
p23
aS'sunabyvpwkgsjtijdwj.jpg'
p24
aS'sunaaexqbtdswxrqjvz.jpg'
p25
aS'sunabbafjowbzcvbucc.jpg'
p26
aS'sunagufzbeteqdjxais.jpg'
p27
aS'00728941205fa.jpg'
p28
aS'00290940422fa.jpg'
p29
aS'sunaaekxzjzrfgtkwjf.jpg'
p30
aS'sunajwqkfsykceonyig.jpg'
p31
aS'sunaixpqndlwhwjtjek.jpg'
p32
aS'sunabqowuarvqqcnipn.jpg'
p33
aS'00136931230fb.jpg'
p34
aS'00647941031fa.jpg'
p35
aS'00483940519fa.jpg'
p36
aS'00548940519fa.jpg'
p37
aS'00827940307fa.jpg'
p38
aS'sunaafynehyrzpsoaml.jpg'
p39
aS'00797960620fa.jpg'
p40
aS'00894960620fa.jpg'
p41
aS'sunabrwnslxalcohfre.jpg'
p42
asS'ratings'
p43
(lp44
(lp45
(NF0.0
tp46
a(I4
F1.096
tp47
aa(lp48
(NF0.0
tp49
a(I1
F1.58
tp50
aa(lp51
(NF0.0
tp52
a(I1
F1.864
tp53
aa(lp54
(NF0.0
tp55
a(I4
F0.994
tp56
aa(lp57
(NF0.0
tp58
a(I1
F1.001
tp59
aa(lp60
(NF0.0
tp61
a(I4
F0.98
tp62
aa(lp63
(NF0.0
tp64
a(I1
F0.845
tp65
aa(lp66
(NF0.0
tp67
aa(lp68
(NF0.0
tp69
a(I1
F0.997
tp70
aa(lp71
(NF0.0
tp72
a(I2
F1.313
tp73
aa(lp74
(NF0.0
tp75
a(I4
F1.713
tp76
aa(lp77
(NF0.0
tp78
a(I4
F1.762
tp79
aa(lp80
(NF0.0
tp81
a(I4
F1.496
tp82
aa(lp83
(NF0.0
tp84
a(I4
F0.962
tp85
aa(lp86
(NF0.0
tp87
a(I4
F1.247
tp88
aa(lp89
(NF0.0
tp90
a(I4
F1.88
tp91
aa(lp92
(NF0.0
tp93
a(I2
F1.13
tp94
aa(lp95
(NF0.0
tp96
a(I1
F0.87
tp97
aa(lp98
(NF0.0
tp99
a(I4
F1.329
tp100
aa(lp101
(NF0.0
tp102
a(I4
F0.898
tp103
aa(lp104
(NF0.0
tp105
a(I1
F0.882
tp106
aa(lp107
(NF0.0
tp108
a(I2
F1.246
tp109
aa(lp110
(NF0.0
tp111
a(I1
F1.69
tp112
aa(lp113
(NF0.0
tp114
a(I2
F1.131
tp115
aa(lp116
(NF0.0
tp117
a(I4
F1.18
tp118
aa(lp119
(NF0.0
tp120
a(I2
F1.211
tp121
aa(lp122
(NF0.0
tp123
a(I4
F1.05
tp124
aa(lp125
(NF0.0
tp126
a(I2
F0.891
tp127
aa(lp128
(NF0.0
tp129
a(I1
F1.133
tp130
aa(lp131
(NF0.0
tp132
a(I1
F1.764
tp133
aa(lp134
(NF0.0
tp135
a(I1
F1.28
tp136
aa(lp137
(NF0.0
tp138
a(I4
F1.463
tp139
aa(lp140
(NF0.0
tp141
a(I3
F1.388
tp142
aa(lp143
(NF0.0
tp144
aa(lp145
(NF0.0
tp146
a(I1
F0.997
tp147
aa(lp148
(NF0.0
tp149
a(I3
F1.296
tp150
aa(lp151
(NF0.0
tp152
a(I1
F0.856
tp153
aa(lp154
(NF0.0
tp155
a(I1
F1.352
tp156
aa(lp157
(NF0.0
tp158
a(I1
F1.26
tp159
aa(lp160
(NF0.0
tp161
a(I3
F1.646
tp162
aasS'run_time'
p163
F123.01236701011658
sS'total_iters'
p164
(lp165
I0
aI1
aI2
aI3
aI4
aI5
aI6
aI7
aI8
aI9
aI10
aI11
aI12
aI13
aI14
aI15
aI16
aI17
aI18
aI19
aI20
aI21
aI22
aI23
aI24
aI25
aI26
aI27
aI28
aI29
aI30
aI31
aI32
aI33
aI34
aI35
aI36
aI37
aI38
aI39
as.