(dp0
S'cue_tuples'
p1
(lp2
(S'cue_L'
p3
S'F'
p4
I0
tp5
a(g3
g4
I0
tp6
a(g3
g4
I0
tp7
a(g3
g4
I0
tp8
a(g3
g4
I0
tp9
a(g3
g4
I0
tp10
a(g3
g4
I0
tp11
a(g3
g4
I1
tp12
a(g3
g4
I0
tp13
a(g3
g4
I1
tp14
asS'uncued'
p15
(lp16
S'00080931230fb_sunaafjszryxyavjzln.jpg'
p17
aS'00957960627fa_sunavhxgmgrqsaptynb.jpg'
p18
aS'00787960620fa_sunagoufulkpsxrmklt.jpg'
p19
aS'00276940422fa_sunabmytpyhsgigllxu.jpg'
p20
aS'00144931230fb_sunaathajvxrgptwhoj.jpg'
p21
aS'00264940128fb_sunabjzyxcjnmztdonj.jpg'
p22
aS'00795941205fa_sunagtumacdlmciqamz.jpg'
p23
aS'00260940128fa_sunabgfhvifeijihhjw.jpg'
p24
aS'00895960530fa_sunamczizlzavhzhpay.jpg'
p25
aS'00267940128fb_sunablfqiwfqomjarht.jpg'
p26
asS'cued'
p27
(lp28
S'00993960627fa_sunbprywzqxjcezkbch.jpg'
p29
aS'00082931230fa_sunaafvitpexrpvumsa.jpg'
p30
aS'01000960627fa_sunbvzmgrdvaakxusbu.jpg'
p31
aS'00123931230fb_sunaalcrrdbjgdztbiz.jpg'
p32
aS'00559940519fa_sunacjkmnpawfzbyvae.jpg'
p33
aS'00065931230fb_sunaaemixhfquhnxxlm.jpg'
p34
aS'00952960627fa_sunathzzbcwjykldrem.jpg'
p35
aS'00818940307fa_sunahpblecxtmuzkmxb.jpg'
p36
aS'00271940422fa_sunabmbnddafmywtjjj.jpg'
p37
aS'00874940307fa_sunajtrfunvzdfticna.jpg'
p38
asS'uncued_RT'
p39
(lp40
F0.7797749042510986
aF0.6556951999664307
aF2.0321412086486816
aF0.5151119232177734
aF0.39992499351501465
aF0.3875541687011719
aF0.5106379985809326
aF0.5887758731842041
aF0.617218017578125
aF1.880784034729004
asS'cued_RT'
p41
(lp42
s.