(dp0
S'cue_tuples'
p1
(lp2
(S'cue_R'
p3
S'L'
p4
I0
tp5
a(g3
g4
I1
tp6
a(g3
g4
I1
tp7
a(g3
g4
I0
tp8
a(g3
g4
I0
tp9
a(g3
g4
I0
tp10
a(g3
g4
I0
tp11
a(g3
g4
I0
tp12
a(g3
g4
I0
tp13
a(g3
g4
I0
tp14
asS'uncued'
p15
(lp16
S'00235940128fb_sunabclssnoeuigtawp.jpg'
p17
aS'00705941205fa_sunadtlxenqqxsyjvix.jpg'
p18
aS'00208940128fa_sunaazzyhbvqjpmazjq.jpg'
p19
aS'00581940928fa_sunacvzhvcksnwqcqbw.jpg'
p20
aS'00288940422fa_sunabppokiyglaxpcha.jpg'
p21
aS'00958960627fa_sunavspxmxubqaeidjt.jpg'
p22
aS'00811960530fa_sunahedfrhtcwpneund.jpg'
p23
aS'00620940928fa_sunacypmnujalygkunp.jpg'
p24
aS'00898960530fa_sunamkmeblgteyggink.jpg'
p25
aS'00145931230fb_sunaatjesvdupctftmn.jpg'
p26
asS'cued'
p27
(lp28
S'00540940519fa_sunacdnquypmsshhsbk.jpg'
p29
aS'00778941205fa_sunagcthdfirrcawoic.jpg'
p30
aS'00926960627Fa_sunapqwoeotxshkukbh.jpg'
p31
aS'00063931230fa_sunaaelyvurpntclgau.jpg'
p32
aS'00953960627fa_sunatstrpjxhvtbaczf.jpg'
p33
aS'00119931230fb_sunaakvmbftkrgqhjun.jpg'
p34
aS'00071940128fa_sunaaexpnawiehinlpy.jpg'
p35
aS'00848940307fa_sunaivdylrawbmhryfp.jpg'
p36
aS'00138931230fa_sunaapfaivxqoynnwwp.jpg'
p37
aS'00868960307fa_sunajjxttslobudoqbv.jpg'
p38
asS'uncued_RT'
p39
(lp40
F0.6351439952850342
aF0.6223149299621582
asS'cued_RT'
p41
(lp42
F0.5294520854949951
aF0.4170260429382324
aF0.41922712326049805
aF0.4058561325073242
aF0.35439586639404297
aF0.36046504974365234
aF0.3173861503601074
aF0.3788909912109375
as.