(dp0
S'cue_tuples'
p1
(lp2
(S'cue_R'
p3
S'L'
p4
I0
tp5
a(g3
g4
I0
tp6
a(g3
g4
I0
tp7
a(g3
g4
I0
tp8
a(g3
g4
I0
tp9
a(g3
g4
I0
tp10
a(g3
g4
I0
tp11
a(g3
g4
I1
tp12
a(g3
g4
I0
tp13
a(g3
g4
I0
tp14
asS'uncued'
p15
(lp16
S'00598940928fa_sunacxeheuiigkcgquf.jpg'
p17
aS'00140931230fb_sunaapllqyqlykszopd.jpg'
p18
aS'00529940519fa_sunacbeefkxpymwevpk.jpg'
p19
aS'00882960530fa_sunaknlirqjqiwbbeeg.jpg'
p20
aS'00242940128fa_sunabcuurugvxwparpk.jpg'
p21
aS'00887960530_sunalcrtwiycqobgelp.jpg'
p22
aS'00985960627fa_sunbgklxeqjhdbyfhhy.jpg'
p23
aS'00633940928fa_sunadbhmrgrrpyzglxs.jpg'
p24
aS'00836940307fa_sunainqelldeebvxtcz.jpg'
p25
aS'00574940928fa_sunacvbrcejzwmcgnoq.jpg'
p26
asS'cued'
p27
(lp28
S'00776941205fa_sunafxokyavhgptyfye.jpg'
p29
aS'01007960627fa_sunbxarcshsnqsefemx.jpg'
p30
aS'00313940422fa_sunabwjvmoaddlyxfjr.jpg'
p31
aS'00982960627fa_sunbesrwkdsffeogeqq.jpg'
p32
aS'00761960627fa_sunafgdqbclkwfocdhg.jpg'
p33
aS'00670941121fa_sunadochqcucscehsgk.jpg'
p34
aS'00913960530fa_sunaooffzffbhcpirmm.jpg'
p35
aS'00796941205fa_sunaguchqqnrtodtezq.jpg'
p36
aS'00280940422fb_sunabohxbskznglnrhv.jpg'
p37
aS'01207940128fa_sundbixjudsgeuuehrn.jpg'
p38
asS'uncued_RT'
p39
(lp40
F0.5948259830474854
asS'cued_RT'
p41
(lp42
F1.9097909927368164
aF0.5245790481567383
aF0.46656298637390137
aF0.45299720764160156
aF0.4380040168762207
aF0.3136920928955078
aF0.4072380065917969
aF0.509545087814331
aF0.441256046295166
as.