(dp0
S'images'
p1
(lp2
S'00743941201fa.jpg'
p3
aS'00725941201fa.jpg'
p4
aS'00786941205fa.jpg'
p5
aS'sunaptrqvaooxfvktvw.jpg'
p6
aS'00972960627fa.jpg'
p7
aS'sunbbfqwjpdxniyhies.jpg'
p8
aS'00983960627fa.jpg'
p9
aS'sunahuynahneraqftyz.jpg'
p10
aS'00754941201fa.jpg'
p11
aS'sunagwswhkvnsmuszlz.jpg'
p12
aS'00292940422fb.jpg'
p13
aS'sunaayehfdqcyxggsej.jpg'
p14
aS'00770941201fa.jpg'
p15
aS'sunabizydfotqddlnjp.jpg'
p16
aS'sunacepzfrmtkiqonpy.jpg'
p17
aS'sunagtjwilqjvxohypn.jpg'
p18
aS'sunafijbgncijwykrnl.jpg'
p19
aS'00828940307fa.jpg'
p20
aS'00804960530fa.jpg'
p21
aS'sunaazezcsunmhttzxz.jpg'
p22
aS'00543940519fa.jpg'
p23
aS'sunabwfvcqqidycwypa.jpg'
p24
aS'sunadflbrkckmepztql.jpg'
p25
aS'00936960627fa.jpg'
p26
aS'00239940128fa.jpg'
p27
aS'00194940128fb.jpg'
p28
aS'sunaakmxzhuceuiryah.jpg'
p29
aS'00198940128fb.jpg'
p30
aS'sunagmwxxwymwojbvgi.jpg'
p31
aS'00787941205fa.jpg'
p32
aS'00308940422fb.jpg'
p33
aS'00262940128fa.jpg'
p34
aS'sunadnjjzohjhbohlwq.jpg'
p35
aS'sunbfyvfqiimvdaxlqn.jpg'
p36
aS'00793941205fa.jpg'
p37
aS'00638941031fa.jpg'
p38
aS'sunabctlikybqabezjv.jpg'
p39
aS'sunaqgjuuwvdcyiccjt.jpg'
p40
aS'sunagmhildamktmqjss.jpg'
p41
aS'sunaeoghzrjarigmwua.jpg'
p42
asS'ratings'
p43
(lp44
(lp45
(NF0.0
tp46
a(I1
F0.866
tp47
aa(lp48
(NF0.0
tp49
a(I1
F1.028
tp50
aa(lp51
(NF0.0
tp52
a(I1
F0.863
tp53
aa(lp54
(NF0.0
tp55
a(I1
F1.329
tp56
aa(lp57
(NF0.0
tp58
a(I1
F0.813
tp59
aa(lp60
(NF0.0
tp61
a(I2
F1.095
tp62
aa(lp63
(NF0.0
tp64
a(I1
F0.862
tp65
aa(lp66
(NF0.0
tp67
a(I1
F0.718
tp68
aa(lp69
(NF0.0
tp70
a(I2
F0.678
tp71
aa(lp72
(NF0.0
tp73
a(I2
F0.713
tp74
aa(lp75
(NF0.0
tp76
a(I2
F0.734
tp77
aa(lp78
(NF0.0
tp79
a(I1
F1.63
tp80
aa(lp81
(NF0.0
tp82
a(I4
F1.147
tp83
aa(lp84
(NF0.0
tp85
a(I2
F0.911
tp86
aa(lp87
(NF0.0
tp88
a(I4
F1.246
tp89
aa(lp90
(NF0.0
tp91
a(I3
F1.529
tp92
aa(lp93
(NF0.0
tp94
a(I2
F0.98
tp95
aa(lp96
(NF0.0
tp97
a(I2
F1.446
tp98
aa(lp99
(NF0.0
tp100
a(I2
F1.548
tp101
aa(lp102
(NF0.0
tp103
a(I1
F1.029
tp104
aa(lp105
(NF0.0
tp106
a(I4
F1.463
tp107
aa(lp108
(NF0.0
tp109
a(I3
F1.063
tp110
aa(lp111
(NF0.0
tp112
a(I2
F0.812
tp113
aa(lp114
(NF0.0
tp115
a(I4
F1.363
tp116
aa(lp117
(NF0.0
tp118
aa(lp119
(NF0.0
tp120
a(I4
F0.777
tp121
aa(lp122
(NF0.0
tp123
a(I4
F1.129
tp124
aa(lp125
(NF0.0
tp126
a(I4
F0.896
tp127
aa(lp128
(NF0.0
tp129
a(I4
F1.212
tp130
aa(lp131
(NF0.0
tp132
a(I1
F0.997
tp133
aa(lp134
(NF0.0
tp135
a(I4
F0.962
tp136
aa(lp137
(NF0.0
tp138
a(I1
F0.729
tp139
aa(lp140
(NF0.0
tp141
a(I3
F1.244
tp142
aa(lp143
(NF0.0
tp144
a(I1
F0.73
tp145
aa(lp146
(NF0.0
tp147
a(I4
F1.113
tp148
aa(lp149
(NF0.0
tp150
a(I1
F0.763
tp151
aa(lp152
(NF0.0
tp153
a(I1
F0.962
tp154
aa(lp155
(NF0.0
tp156
a(I1
F0.929
tp157
aa(lp158
(NF0.0
tp159
a(I1
F1.495
tp160
aa(lp161
(NF0.0
tp162
a(I2
F1.263
tp163
aasS'run_time'
p164
F123.01251006126404
sS'total_iters'
p165
(lp166
I0
aI1
aI2
aI3
aI4
aI5
aI6
aI7
aI8
aI9
aI10
aI11
aI12
aI13
aI14
aI15
aI16
aI17
aI18
aI19
aI20
aI21
aI22
aI23
aI24
aI25
aI26
aI27
aI28
aI29
aI30
aI31
aI32
aI33
aI34
aI35
aI36
aI37
aI38
aI39
as.