(dp0
S'cue_tuples'
p1
(lp2
(S'cue_R'
p3
S'F'
p4
I0
tp5
a(g3
g4
I0
tp6
a(g3
g4
I1
tp7
a(g3
g4
I0
tp8
a(g3
g4
I0
tp9
a(g3
g4
I0
tp10
a(g3
g4
I0
tp11
a(g3
g4
I0
tp12
a(g3
g4
I0
tp13
a(g3
g4
I0
tp14
asS'uncued'
p15
(lp16
S'00648941031fa_sunadfndyrtqqiasoig.jpg'
p17
aS'00976960627fa_sunbbhqyyzmsxhsbjmp.jpg'
p18
aS'00598941031fa_sunacxtcahkymosigud.jpg'
p19
aS'00919960620fa_sunapmfmzadmosuogaz.jpg'
p20
aS'00999960627fa_sunbvbrvgbpanfrawft.jpg'
p21
aS'01003960627fb_sunbwdrdvsweerwsdrj.jpg'
p22
aS'00785941205fa_sunaglqunwuycxydmyu.jpg'
p23
aS'00933960627fa_sunapwjkcxdaeqehfql.jpg'
p24
aS'00294940422fb_sunabrlndkruqokhury.jpg'
p25
aS'00961960627fa_sunawotxrevnqvamsfp.jpg'
p26
asS'cued'
p27
(lp28
S'00306940422fa_sunabueyoajufbkraki.jpg'
p29
aS'00730960620fa_sunaekgzpfilgjxpeyq.jpg'
p30
aS'00809960620fa_sunahbvlpavurqoxdeq.jpg'
p31
aS'00302940422fa_sunabtlfmiwtljmoues.jpg'
p32
aS'00126931230fb_sunaamdjwemxpmmtypi.jpg'
p33
aS'00911960530fa_sunaooaqzputrowwbsw.jpg'
p34
aS'00227940128fa_sunabckqabszusgcykj.jpg'
p35
aS'00101931230fb_sunaajqmsaavkmgbsth.jpg'
p36
aS'00741941201fa_sunaemcowdozyphwknd.jpg'
p37
aS'00694941121fa_sunadrmfzmstgdjdcod.jpg'
p38
asS'uncued_RT'
p39
(lp40
F0.33817100524902344
asS'cued_RT'
p41
(lp42
F0.6927030086517334
aF0.35546398162841797
aF0.4076051712036133
aF0.46785902976989746
aF0.3971590995788574
aF0.5416419506072998
aF0.3790109157562256
aF0.46430277824401855
aF0.31293797492980957
as.