(lp0
S'A little boring'
p1
aS'A little tired'
p2
accopy_reg
_reconstructor
p3
(cfuture.types.newstr
newstr
p4
c__builtin__
unicode
p5
VFaces. It was easier to compare faces to those of people I know to try and remember them.
p6
tp7
Rp8
ag3
(g4
g5
VYes. I thought that the right side was easier to attend to
p9
tp10
Rp11
ag3
(g4
g5
VI tried to tie the person to their background to remeber both images
p12
tp13
Rp14
a.