(dp0
S'cue_tuples'
p1
(lp2
(S'cue_L'
p3
S'F'
p4
I0
tp5
a(g3
g4
I0
tp6
a(g3
g4
I1
tp7
a(g3
g4
I0
tp8
a(g3
g4
I0
tp9
a(g3
g4
I1
tp10
a(g3
g4
I0
tp11
a(g3
g4
I0
tp12
a(g3
g4
I0
tp13
a(g3
g4
I1
tp14
asS'uncued'
p15
(lp16
S'00108960530fa_sunaajtnvzzpsjdzres.jpg'
p17
aS'00891960530fa_sunalkiibhqpxfamlll.jpg'
p18
aS'00960960627fa_sunawksfbacycuhbrsc.jpg'
p19
aS'00071940128fa_sunaaexpnawiehinlpy.jpg'
p20
aS'00977960627fa_sunbbxkanhzjgbwyxqs.jpg'
p21
aS'00779941205fa_sunagdzlvkqtpnfxfcg.jpg'
p22
aS'00868960307fa_sunajjxttslobudoqbv.jpg'
p23
aS'00131931230fb_sunaangbuylfvckqqoo.jpg'
p24
aS'00942960627fa_sunarfdklgdnjgeqfjg.jpg'
p25
aS'00095931230fa_sunaahzooisqkwlxwoz.jpg'
p26
asS'cued'
p27
(lp28
S'00965960627fa_sunaydywdmvlfddbxbk.jpg'
p29
aS'00101931230fb_sunaajqmsaavkmgbsth.jpg'
p30
aS'00529940519fa_sunacbeefkxpymwevpk.jpg'
p31
aS'00288940422fa_sunabppokiyglaxpcha.jpg'
p32
aS'00235940128fb_sunabclssnoeuigtawp.jpg'
p33
aS'00938960627fa_sunaqyylsngywqzwfmx.jpg'
p34
aS'00953960627fa_sunatstrpjxhvtbaczf.jpg'
p35
aS'00818940307fa_sunahpblecxtmuzkmxb.jpg'
p36
aS'00728941205fa_sunaejnvnpltdmhbcsi.jpg'
p37
aS'00305940422fa_sunabtrnbvpppgczjim.jpg'
p38
asS'uncued_RT'
p39
(lp40
NaNaNasS'cued_RT'
p41
(lp42
NaNaNaNaNaNaNas.