(lp0
S'A little boring'
p1
aS'Very tired'
p2
accopy_reg
_reconstructor
p3
(cfuture.types.newstr
newstr
p4
c__builtin__
unicode
p5
Vlandcapes with few details and faces with distinctive eyes or hair were easier
p6
tp7
Rp8
ag3
(g4
g5
VI think the left side was easier
p9
tp10
Rp11
ag3
(g4
g5
Vi tried to pinpoint a specific part of the face or landscape that was memorable
p12
tp13
Rp14
a.