(dp0
S'cued_RT'
p1
(lp2
sS'cued'
p3
(lp4
S'231_22.jpg'
p5
aS'299_124.jpg'
p6
asS'run_time'
p7
F9.494351863861084
sS'cue_tuples'
p8
(lp9
(S'cue_L'
p10
S'F'
p11
I1
tp12
a(g10
S'L'
p13
I1
tp14
a(S'cue_R'
p15
g11
I1
tp16
a(g15
g13
I1
tp17
asS'uncued'
p18
(lp19
S'309_133.jpg'
p20
aS'234_25.jpg'
p21
asS'uncued_RT'
p22
(lp23
F0.6121561527252197
aF0.7043790817260742
as.