(dp0
S'images'
p1
(lp2
S'299.jpg'
p3
aS'133.jpg'
p4
aS'234.jpg'
p5
aS'180.jpg'
p6
aS'124.jpg'
p7
aS'22.jpg'
p8
aS'309.jpg'
p9
aS'25.jpg'
p10
aS'129.jpg'
p11
aS'136.jpg'
p12
aS'184.jpg'
p13
aS'231.jpg'
p14
aS'144.jpg'
p15
aS'226.jpg'
p16
aS'321.jpg'
p17
aS'130.jpg'
p18
asS'ratings'
p19
(lp20
(lp21
(NF0.0
tp22
a(I1
F1.179
tp23
aa(lp24
(NF0.0
tp25
a(I3
F0.608
tp26
aa(lp27
(NF0.0
tp28
a(I4
F0.476
tp29
aa(lp30
(NF0.0
tp31
a(I2
F0.375
tp32
aa(lp33
(NF0.0
tp34
a(I2
F0.61
tp35
aa(lp36
(NF0.0
tp37
a(I2
F0.459
tp38
aa(lp39
(NF0.0
tp40
a(I1
F0.593
tp41
aa(lp42
(NF0.0
tp43
a(I2
F0.708
tp44
aa(lp45
(NF0.0
tp46
a(I3
F0.35
tp47
aa(lp48
(NF0.0
tp49
a(I3
F0.489
tp50
aa(lp51
(NF0.0
tp52
a(I3
F0.699
tp53
aa(lp54
(NF0.0
tp55
a(I4
F0.609
tp56
aa(lp57
(NF0.0
tp58
a(I2
F0.441
tp59
aa(lp60
(NF0.0
tp61
a(I3
F0.343
tp62
aa(lp63
(NF0.0
tp64
a(I4
F0.363
tp65
aa(lp66
(NF0.0
tp67
a(I3
F0.518
tp68
aasS'run_time'
p69
F48.662856101989746
sS'total_iters'
p70
(lp71
I0
aI1
aI2
aI3
aI4
aI5
aI6
aI7
aI8
aI9
aI10
aI11
aI12
aI13
aI14
aI15
as.