(dp0
S'cued_RT'
p1
(lp2
sS'cued'
p3
(lp4
S'227_19.jpg'
p5
aS'181_1.jpg'
p6
aS'233_24.jpg'
p7
aS'229_20.jpg'
p8
aS'301_126.jpg'
p9
aS'295_120.jpg'
p10
aS'212_127.jpg'
p11
aS'204_12.jpg'
p12
aS'261_5.jpg'
p13
aS'213_128.jpg'
p14
asS'run_time'
p15
F48.22829008102417
sS'cue_tuples'
p16
(lp17
(S'cue_L'
p18
S'F'
p19
I0
tp20
a(g18
g19
I0
tp21
a(g18
g19
I1
tp22
a(g18
g19
I0
tp23
a(g18
g19
I0
tp24
a(g18
g19
I1
tp25
a(g18
g19
I0
tp26
a(g18
g19
I1
tp27
a(g18
g19
I0
tp28
a(g18
g19
I0
tp29
asS'uncued'
p30
(lp31
S'315_139.jpg'
p32
aS'236_27.jpg'
p33
aS'310_134.jpg'
p34
aS'271_1.jpg'
p35
aS'251_40.jpg'
p36
aS'274_101.jpg'
p37
aS'341_162.jpg'
p38
aS'283_11.jpg'
p39
aS'199_115.jpg'
p40
aS'250_4.jpg'
p41
asS'uncued_RT'
p42
(lp43
F0.3836190700531006
aF0.4663710594177246
aF0.5165910720825195
aF0.4337179660797119
aF0.39817214012145996
aF0.5193459987640381
aF0.3723900318145752
aF0.41762614250183105
aF0.4686770439147949
aF0.4279611110687256
as.