(lp0
S'A little boring'
p1
aS'A little tired'
p2
accopy_reg
_reconstructor
p3
(cfuture.types.newstr
newstr
p4
c__builtin__
unicode
p5
Vplaces because the faces seemed darker
p6
tp7
Rp8
ag3
(g4
g5
Vneither
p9
tp10
Rp11
ag3
(g4
g5
Vrelated them to my previous ideas of places i had been that looked similarly
p12
tp13
Rp14
a.