(lp0
S'Very boring'
p1
aS'Very tired'
p2
accopy_reg
_reconstructor
p3
(cfuture.types.newstr
newstr
p4
c__builtin__
unicode
p5
Vplaces, the faces were harder to define in the periphery
p6
tp7
Rp8
ag3
(g4
g5
Vno
p9
tp10
Rp11
ag3
(g4
g5
Vgive the faces names and give the places names
p12
tp13
Rp14
a.