(dp0
S'cue_tuples'
p1
(lp2
(S'cue_L'
p3
S'F'
p4
I0
tp5
a(g3
g4
I0
tp6
a(g3
g4
I0
tp7
a(g3
g4
I0
tp8
a(g3
g4
I0
tp9
a(g3
g4
I0
tp10
a(g3
g4
I0
tp11
a(g3
g4
I0
tp12
a(g3
g4
I1
tp13
a(g3
g4
I0
tp14
asS'uncued'
p15
(lp16
S'22858860.thl_sunaanptmsknhirrzed.jpg'
p17
aS'22827408.thl_sunaajayojuslbbnneg.jpg'
p18
aS'26423812.thl_sunaijsqpvodplbwxkf.jpg'
p19
aS'26384637.thl_sunaffgsyyvoqdlkmnk.jpg'
p20
aS'26421070.thl_sunaguchqqnrtodtezq.jpg'
p21
aS'26372465.thl_sunacuatpqpqhyjhjqk.jpg'
p22
aS'23071000.thl_sunabxsuqbleluwczoy.jpg'
p23
aS'26374787.thl_sunadochqcucscehsgk.jpg'
p24
aS'22903568.thl_sunaaxjpzcnxligjtjq.jpg'
p25
aS'26387587.thl_sunaflojskatpeqyzqp.jpg'
p26
asS'cued'
p27
(lp28
S'26387568.thl_sunafkmnlytenlsywia.jpg'
p29
aS'22875384.thl_sunaauhozyxzeeqstxi.jpg'
p30
aS'26428682.thl_sunanainkqdvktzoxyl.jpg'
p31
aS'26423873.thl_sunainqelldeebvxtcz.jpg'
p32
aS'26427111.thl_sunakgbnzxmfohgehnu.jpg'
p33
aS'26373195.thl_sunacxeheuiigkcgquf.jpg'
p34
aS'23007415.thl_sunabjuovqvyfuzvqwt.jpg'
p35
aS'26370651.thm_sunacfdkbsrughwqwtt.jpg'
p36
aS'26383637.thl_sunafbwnojpqeyzssoe.jpg'
p37
aS'26370659.thm_sunachtuarilwyqnvjx.jpg'
p38
asS'uncued_RT'
p39
(lp40
F0.5074920654296875
asS'cued_RT'
p41
(lp42
F0.6733920574188232
aF0.5836660861968994
aF0.3789041042327881
aF0.5585849285125732
aF0.5403621196746826
aF0.5452101230621338
aF0.6547868251800537
aF0.3836088180541992
aF0.43390798568725586
as.