(dp0
S'images'
p1
(lp2
S'sunaczwgyukesaajxnx.jpg'
p3
aS'22854108.thl.jpg'
p4
aS'26423652.thl.jpg'
p5
aS'26427111.thl.jpg'
p6
aS'26465344.thl.jpg'
p7
aS'sunaanptmsknhirrzed.jpg'
p8
aS'22903568.thl.jpg'
p9
aS'23016235.thl.jpg'
p10
aS'26432607.thl.jpg'
p11
aS'sunaooaqzputrowwbsw.jpg'
p12
aS'26423812.thl.jpg'
p13
aS'26428682.thl.jpg'
p14
aS'26373195.thl.jpg'
p15
aS'sunaauhozyxzeeqstxi.jpg'
p16
aS'26437107.thl.jpg'
p17
aS'26421070.thl.jpg'
p18
aS'sunanainkqdvktzoxyl.jpg'
p19
aS'sunawotxrevnqvamsfp.jpg'
p20
aS'26387587.thl.jpg'
p21
aS'22858860.thl.jpg'
p22
aS'sunbddbivbptlrlauhy.jpg'
p23
aS'26429123.thl.jpg'
p24
aS'sunaffgsyyvoqdlkmnk.jpg'
p25
aS'sunakgbnzxmfohgehnu.jpg'
p26
aS'sunasrjlmglmjzbmqxb.jpg'
p27
aS'26373407.thl.jpg'
p28
aS'sunaavchcbptaerhcfy.jpg'
p29
aS'sunaflojskatpeqyzqp.jpg'
p30
aS'sunbxarcshsnqsefemx.jpg'
p31
aS'26423786.thl.jpg'
p32
aS'26427903.thl.jpg'
p33
aS'26423873.thl.jpg'
p34
aS'sunafbwnojpqeyzssoe.jpg'
p35
aS'sunaefgzwiramypjvtd.jpg'
p36
aS'sunabxsuqbleluwczoy.jpg'
p37
aS'sunaaheqzstzxuadglu.jpg'
p38
aS'23007415.thl.jpg'
p39
aS'sunaiycurtqsfkvcaso.jpg'
p40
aS'sunaijsqpvodplbwxkf.jpg'
p41
aS'sunachtuarilwyqnvjx.jpg'
p42
asS'ratings'
p43
(lp44
(lp45
(NF0.0
tp46
aa(lp47
(NF0.0
tp48
a(I2
F0.728
tp49
aa(lp50
(NF0.0
tp51
a(I2
F0.708
tp52
aa(lp53
(NF0.0
tp54
a(I4
F0.897
tp55
aa(lp56
(NF0.0
tp57
a(I3
F0.893
tp58
aa(lp59
(NF0.0
tp60
a(I2
F1.014
tp61
aa(lp62
(NF0.0
tp63
a(I2
F1.096
tp64
aa(lp65
(NF0.0
tp66
a(I3
F0.945
tp67
aa(lp68
(NF0.0
tp69
a(I2
F0.878
tp70
aa(lp71
(NF0.0
tp72
a(I2
F1.163
tp73
aa(lp74
(NF0.0
tp75
a(I3
F0.697
tp76
aa(lp77
(NF0.0
tp78
a(I1
F0.562
tp79
aa(lp80
(NF0.0
tp81
a(I2
F0.496
tp82
aa(lp83
(NF0.0
tp84
a(I4
F1.127
tp85
aa(lp86
(NF0.0
tp87
a(I3
F0.712
tp88
aa(lp89
(NF0.0
tp90
a(I3
F0.831
tp91
aa(lp92
(NF0.0
tp93
a(I4
F0.507
tp94
aa(lp95
(NF0.0
tp96
a(I4
F0.528
tp97
aa(lp98
(NF0.0
tp99
a(I3
F0.681
tp100
aa(lp101
(NF0.0
tp102
a(I2
F0.694
tp103
aa(lp104
(NF0.0
tp105
a(I4
F0.796
tp106
aa(lp107
(NF0.0
tp108
a(I1
F0.88
tp109
aa(lp110
(NF0.0
tp111
a(I4
F1.146
tp112
aa(lp113
(NF0.0
tp114
a(I4
F0.563
tp115
aa(lp116
(NF0.0
tp117
a(I4
F0.878
tp118
aa(lp119
(NF0.0
tp120
a(I3
F0.948
tp121
aa(lp122
(NF0.0
tp123
a(I2
F0.528
tp124
aa(lp125
(NF0.0
tp126
a(I4
F1.078
tp127
aa(lp128
(NF0.0
tp129
a(I3
F0.863
tp130
aa(lp131
(NF0.0
tp132
a(I2
F1.028
tp133
aa(lp134
(NF0.0
tp135
a(I2
F0.73
tp136
aa(lp137
(NF0.0
tp138
a(I3
F0.978
tp139
aa(lp140
(NF0.0
tp141
a(I4
F1.445
tp142
aa(lp143
(NF0.0
tp144
a(I4
F0.727
tp145
aa(lp146
(NF0.0
tp147
a(I3
F0.96
tp148
aa(lp149
(NF0.0
tp150
a(I2
F1.111
tp151
aa(lp152
(NF0.0
tp153
a(I4
F1.064
tp154
aa(lp155
(NF0.0
tp156
a(I3
F1.077
tp157
aa(lp158
(NF0.0
tp159
a(I4
F1.495
tp160
aa(lp161
(NF0.0
tp162
a(I3
F1.278
tp163
aasS'run_time'
p164
F122.41012001037598
sS'total_iters'
p165
(lp166
I0
aI1
aI2
aI3
aI4
aI5
aI6
aI7
aI8
aI9
aI10
aI11
aI12
aI13
aI14
aI15
aI16
aI17
aI18
aI19
aI20
aI21
aI22
aI23
aI24
aI25
aI26
aI27
aI28
aI29
aI30
aI31
aI32
aI33
aI34
aI35
aI36
aI37
aI38
aI39
as.