(dp0
S'images'
p1
(lp2
S'23028486.thl.jpg'
p3
aS'22921112.thl.jpg'
p4
aS'sunagvprlbprarvgdvj.jpg'
p5
aS'sunabkmdplkdbvxriff.jpg'
p6
aS'26419689.thl.jpg'
p7
aS'sunafvwfsmqkjrutjta.jpg'
p8
aS'sunaatpeezlljqaxlhj.jpg'
p9
aS'26455774.thl.jpg'
p10
aS'sunacvzhvcksnwqcqbw.jpg'
p11
aS'sunalcrtwiycqobgelp.jpg'
p12
aS'23026459.thl.jpg'
p13
aS'22910996.thl.jpg'
p14
aS'sunadpnqovzckyikrjo.jpg'
p15
aS'26431395.thl.jpg'
p16
aS'26456480.thl.jpg'
p17
aS'sunaakxjfbrrequcjmx.jpg'
p18
aS'23060574.thl.jpg'
p19
aS'sunablfqiwfqomjarht.jpg'
p20
aS'26422216.thl.jpg'
p21
aS'26373068.thl.jpg'
p22
aS'26373844.thl.jpg'
p23
aS'26437064.thl.jpg'
p24
aS'22855536.thl.jpg'
p25
aS'22869912.thl.jpg'
p26
aS'sunabbwggenhfbftyvi.jpg'
p27
aS'22856784.thl.jpg'
p28
aS'sunaaiqiqcggrskoqgy.jpg'
p29
aS'26390325.thl.jpg'
p30
aS'26372785.thl.jpg'
p31
aS'sunbmaiocftdtvnzgap.jpg'
p32
aS'sunaatpkocdkocwxpkb.jpg'
p33
aS'26421106.thl.jpg'
p34
aS'22911908.thl.jpg'
p35
aS'sunbfyvfqiimvdaxlqn.jpg'
p36
aS'sunavxokzybtomhbmvm.jpg'
p37
aS'sunagrmyoovzukhxmlo.jpg'
p38
aS'sunabanoxjtqxamkucc.jpg'
p39
aS'sunaauueuhhvklldjik.jpg'
p40
aS'sunabwmcbaxwioksdgw.jpg'
p41
aS'sunaeomlfaabhpswasy.jpg'
p42
asS'ratings'
p43
(lp44
(lp45
(NF0.0
tp46
a(I2
F1.382
tp47
aa(lp48
(NF0.0
tp49
a(I3
F0.845
tp50
aa(lp51
(NF0.0
tp52
a(I4
F0.562
tp53
aa(lp54
(NF0.0
tp55
a(I2
F0.53
tp56
aa(lp57
(NF0.0
tp58
a(I4
F0.78
tp59
aa(lp60
(NF0.0
tp61
a(I4
F1.127
tp62
aa(lp63
(NF0.0
tp64
a(I2
F0.76
tp65
aa(lp66
(NF0.0
tp67
a(I2
F1.177
tp68
aa(lp69
(NF0.0
tp70
a(I4
F0.912
tp71
aa(lp72
(NF0.0
tp73
a(I4
F0.794
tp74
aa(lp75
(NF0.0
tp76
a(I3
F1.197
tp77
aa(lp78
(NF0.0
tp79
a(I2
F0.947
tp80
aa(lp81
(NF0.0
tp82
a(I4
F0.546
tp83
aa(lp84
(NF0.0
tp85
a(I4
F0.787
tp86
aa(lp87
(NF0.0
tp88
a(I2
F0.889
tp89
aa(lp90
(NF0.0
tp91
a(I4
F0.614
tp92
aa(lp93
(NF0.0
tp94
a(I2
F0.629
tp95
aa(lp96
(NF0.0
tp97
a(I4
F0.779
tp98
aa(lp99
(NF0.0
tp100
a(I4
F0.527
tp101
aa(lp102
(NF0.0
tp103
a(I3
F0.644
tp104
aa(lp105
(NF0.0
tp106
a(I2
F0.863
tp107
aa(lp108
(NF0.0
tp109
a(I2
F0.876
tp110
aa(lp111
(NF0.0
tp112
a(I4
F0.828
tp113
aa(lp114
(NF0.0
tp115
a(I1
F1.362
tp116
aa(lp117
(NF0.0
tp118
a(I3
F0.762
tp119
aa(lp120
(NF0.0
tp121
a(I4
F1.144
tp122
aa(lp123
(NF0.0
tp124
a(I3
F1.063
tp125
aa(lp126
(NF0.0
tp127
a(I2
F0.596
tp128
aa(lp129
(NF0.0
tp130
a(I4
F0.543
tp131
aa(lp132
(NF0.0
tp133
a(I2
F0.393
tp134
aa(lp135
(NF0.0
tp136
a(I4
F0.513
tp137
aa(lp138
(NF0.0
tp139
a(I2
F0.779
tp140
aa(lp141
(NF0.0
tp142
a(I3
F0.913
tp143
aa(lp144
(NF0.0
tp145
a(I4
F0.712
tp146
aa(lp147
(NF0.0
tp148
a(I4
F0.665
tp149
aa(lp150
(NF0.0
tp151
a(I4
F0.762
tp152
aa(lp153
(NF0.0
tp154
a(I3
F0.578
tp155
aa(lp156
(NF0.0
tp157
a(I3
F0.78
tp158
aa(lp159
(NF0.0
tp160
a(I2
F0.727
tp161
aa(lp162
(NF0.0
tp163
a(I4
F0.562
tp164
aasS'run_time'
p165
F122.67597103118896
sS'total_iters'
p166
(lp167
I0
aI1
aI2
aI3
aI4
aI5
aI6
aI7
aI8
aI9
aI10
aI11
aI12
aI13
aI14
aI15
aI16
aI17
aI18
aI19
aI20
aI21
aI22
aI23
aI24
aI25
aI26
aI27
aI28
aI29
aI30
aI31
aI32
aI33
aI34
aI35
aI36
aI37
aI38
aI39
as.