(dp0
S'cue_tuples'
p1
(lp2
(S'cue_L'
p3
S'L'
p4
I0
tp5
a(g3
g4
I0
tp6
a(g3
g4
I0
tp7
a(g3
g4
I0
tp8
a(g3
g4
I0
tp9
a(g3
g4
I0
tp10
a(g3
g4
I0
tp11
a(g3
g4
I0
tp12
a(g3
g4
I0
tp13
a(g3
g4
I0
tp14
asS'uncued'
p15
(lp16
S'26392231.thl_sunagetqixeypsysbpn.jpg'
p17
aS'26437068.thl_sunavxokzybtomhbmvm.jpg'
p18
aS'26455774.thl_sunbvzmgrdvaakxusbu.jpg'
p19
aS'26379647.thl_sunaezuszgtxnmsxdbk.jpg'
p20
aS'26379612.thl_sunaeuzwggvibufclwf.jpg'
p21
aS'22887144.thl_sunaavodbcpygkggnfp.jpg'
p22
aS'26372785.thl_sunacvzhvcksnwqcqbw.jpg'
p23
aS'22921112.thl_sunabbwggenhfbftyvi.jpg'
p24
aS'26390325.thl_sunafvwfsmqkjrutjta.jpg'
p25
aS'22911908.thl_sunabanoxjtqxamkucc.jpg'
p26
asS'cued'
p27
(lp28
S'22827276.thl_sunaaiqiqcggrskoqgy.jpg'
p29
aS'23016343.thl_sunablfqiwfqomjarht.jpg'
p30
aS'23028486.thl_sunabqowuarvqqcnipn.jpg'
p31
aS'22856784.thl_sunaamsdyakblkfoydx.jpg'
p32
aS'22869912.thl_sunaatpkocdkocwxpkb.jpg'
p33
aS'26379011.thl_sunaeomlfaabhpswasy.jpg'
p34
aS'22910996.thl_sunaazzyhbvqjpmazjq.jpg'
p35
aS'26428540.thl_sunamkmeblgteyggink.jpg'
p36
aS'26419689.thl_sunagpjzsbltchlwvou.jpg'
p37
aS'26374803.thl_sunadpnqovzckyikrjo.jpg'
p38
asS'uncued_RT'
p39
(lp40
sS'cued_RT'
p41
(lp42
F0.387584924697876
aF0.422238826751709
aF0.40886402130126953
aF0.47554707527160645
aF0.3243520259857178
aF0.3617570400238037
aF0.3680541515350342
aF0.6527109146118164
aF0.5172991752624512
aF0.5312299728393555
as.