(dp0
S'cue_tuples'
p1
(lp2
(S'cue_L'
p3
S'F'
p4
I0
tp5
a(g3
g4
I0
tp6
a(g3
g4
I0
tp7
a(g3
g4
I0
tp8
a(g3
g4
I0
tp9
a(g3
g4
I0
tp10
a(g3
g4
I1
tp11
a(g3
g4
I0
tp12
a(g3
g4
I0
tp13
a(g3
g4
I0
tp14
asS'uncued'
p15
(lp16
S'26428110.thl_sunamczizlzavhzhpay.jpg'
p17
aS'26422507.thl_sunahiphsekjihkafsl.jpg'
p18
aS'26379054.thl_sunaeouogqolxvggaoq.jpg'
p19
aS'26427609.thl_sunakmnfgklupjijsgf.jpg'
p20
aS'26387436.thl_sunafijbgncijwykrnl.jpg'
p21
aS'26370681.thl_sunacjkmnpawfzbyvae.jpg'
p22
aS'26424443.thl_sunaiwduelojtwaqeyh.jpg'
p23
aS'22859796.thl_sunaapllqyqlykszopd.jpg'
p24
aS'26425323.thl_sunajbwkywmsqkldfml.jpg'
p25
aS'26433387.thl_sunarfdklgdnjgeqfjg.jpg'
p26
asS'cued'
p27
(lp28
S'26437080.thl_sunayaepykrqvenaqqy.jpg'
p29
aS'26421575.thl_sunahbvlpavurqoxdeq.jpg'
p30
aS'03015528000_sunaaacnosloariecpa.jpg'
p31
aS'26433686.thl_sunasbbntuiheekqyaq.jpg'
p32
aS'26372404.thl_sunacsdhbbsybcyxnel.jpg'
p33
aS'26418207.thl_sunaglqunwuycxydmyu.jpg'
p34
aS'22849344.thl_sunaajuzribjrizdshh.jpg'
p35
aS'23025535.thl_sunabohxbskznglnrhv.jpg'
p36
aS'26419324.thl_sunagountlxpzkytsmp.jpg'
p37
aS'26374166.thl_sunaddtdkycxbqlpfqa.jpg'
p38
asS'uncued_RT'
p39
(lp40
F0.4910428524017334
asS'cued_RT'
p41
(lp42
F0.5374729633331299
aF0.4392368793487549
aF0.4811060428619385
aF0.6408569812774658
aF0.6084887981414795
aF0.46616411209106445
aF0.5305500030517578
aF0.5193390846252441
aF0.3825349807739258
as.