(dp0
S'cue_tuples'
p1
(lp2
(S'cue_R'
p3
S'L'
p4
I0
tp5
a(g3
g4
I0
tp6
a(g3
g4
I0
tp7
a(g3
g4
I0
tp8
a(g3
g4
I1
tp9
a(g3
g4
I1
tp10
a(g3
g4
I0
tp11
a(g3
g4
I0
tp12
a(g3
g4
I0
tp13
a(g3
g4
I0
tp14
asS'uncued'
p15
(lp16
S'26428753.thl_sunanmoqeyprjjjfxjt.jpg'
p17
aS'22924880.thl_sunabctlikybqabezjv.jpg'
p18
aS'26370445.thl_sunacerqowiaeoqkmsq.jpg'
p19
aS'26423296.thl_sunahqrxievfeusiqlt.jpg'
p20
aS'26370704.thl_sunacjnahdmqfnjfwqx.jpg'
p21
aS'26389125.thl_sunafvsxtzaizojicxx.jpg'
p22
aS'26377601.thl_sunaejnvnpltdmhbcsi.jpg'
p23
aS'26437028.thl_sunavhxgmgrqsaptynb.jpg'
p24
aS'26375611.thl_sunadrmfzmstgdjdcod.jpg'
p25
aS'26388148.thl_sunafvcflzhlqloapyo.jpg'
p26
asS'cued'
p27
(lp28
S'26440261.thl_sunbbhqyyzmsxhsbjmp.jpg'
p29
aS'26384863.thl_sunaffstbkappprzxnv.jpg'
p30
aS'26427910.thl_sunaletopenvvozhpxc.jpg'
p31
aS'26373735.thl_sunacypmnujalygkunp.jpg'
p32
aS'23070748.thl_sunabxsbfwjccqxxzxq.jpg'
p33
aS'26379430.thl_sunaeutbrtswvsozxyk.jpg'
p34
aS'26390189.thl_sunafvtpfczkzopbgue.jpg'
p35
aS'26441176.thl_sunbesrwkdsffeogeqq.jpg'
p36
aS'26387690.thl_sunafpfpiiujzoesnqg.jpg'
p37
aS'26461413.thl_sunbwyuesflwdpqtgoy.jpg'
p38
asS'uncued_RT'
p39
(lp40
F0.45824408531188965
aF0.34628891944885254
asS'cued_RT'
p41
(lp42
F0.6391470432281494
aF0.5850319862365723
aF0.7095420360565186
aF0.7565481662750244
aF0.8555808067321777
aF0.5114381313323975
aF0.5419139862060547
aF0.43566107749938965
as.