(dp0
S'images'
p1
(lp2
S'26440261.thl.jpg'
p3
aS'26432760.thl.jpg'
p4
aS'22856172.thl.jpg'
p5
aS'26427983.thl.jpg'
p6
aS'sunawksfbacycuhbrsc.jpg'
p7
aS'sunabxsbfwjccqxxzxq.jpg'
p8
aS'26370445.thl.jpg'
p9
aS'26387690.thl.jpg'
p10
aS'sunaavtbadenwnzeutj.jpg'
p11
aS'sunbwaafjdebjzttuvq.jpg'
p12
aS'sunapmfmzadmosuogaz.jpg'
p13
aS'26282587.thl.jpg'
p14
aS'sunbesrwkdsffeogeqq.jpg'
p15
aS'26428753.thl.jpg'
p16
aS'sunacypmnujalygkunp.jpg'
p17
aS'sunauburywlkjszngcq.jpg'
p18
aS'26379430.thl.jpg'
p19
aS'sunbvbrvgbpanfrawft.jpg'
p20
aS'26423296.thl.jpg'
p21
aS'sunaejnvnpltdmhbcsi.jpg'
p22
aS'26428057.thl.jpg'
p23
aS'23044458.thl.jpg'
p24
aS'sunaakjaacuzulqckgl.jpg'
p25
aS'26437028.thl.jpg'
p26
aS'sunbbhqyyzmsxhsbjmp.jpg'
p27
aS'26384863.thl.jpg'
p28
aS'sunadrmfzmstgdjdcod.jpg'
p29
aS'26373735.thl.jpg'
p30
aS'26389125.thl.jpg'
p31
aS'sunacerqowiaeoqkmsq.jpg'
p32
aS'sunafvtpfczkzopbgue.jpg'
p33
aS'26378596.thl.jpg'
p34
aS'sunarpsxqkduedrrzyi.jpg'
p35
aS'23048010.thl.jpg'
p36
aS'26370116.thl.jpg'
p37
aS'sunacjnahdmqfnjfwqx.jpg'
p38
aS'sunakodkcslgqhqlgwl.jpg'
p39
aS'sunagwzdbtlixdhgolm.jpg'
p40
aS'sunahqrxievfeusiqlt.jpg'
p41
aS'22855404.thl.jpg'
p42
asS'ratings'
p43
(lp44
(lp45
(NF0.0
tp46
a(I3
F1.866
tp47
aa(lp48
(NF0.0
tp49
a(I2
F0.93
tp50
aa(lp51
(NF0.0
tp52
a(I2
F0.579
tp53
aa(lp54
(NF0.0
tp55
a(I3
F0.615
tp56
aa(lp57
(NF0.0
tp58
a(I4
F0.746
tp59
aa(lp60
(NF0.0
tp61
a(I3
F0.73
tp62
aa(lp63
(NF0.0
tp64
a(I4
F0.98
tp65
aa(lp66
(NF0.0
tp67
a(I3
F0.965
tp68
aa(lp69
(NF0.0
tp70
a(I2
F1.599
tp71
aa(lp72
(NF0.0
tp73
a(I3
F0.93
tp74
aa(lp75
(NF0.0
tp76
a(I4
F0.646
tp77
aa(lp78
(NF0.0
tp79
a(I3
F0.813
tp80
aa(lp81
(NF0.0
tp82
a(I1
F0.83
tp83
aa(lp84
(NF0.0
tp85
a(I2
F1.097
tp86
aa(lp87
(NF0.0
tp88
a(I1
F0.68
tp89
aa(lp90
(NF0.0
tp91
a(I3
F1.013
tp92
aa(lp93
(NF0.0
tp94
a(I1
F1.848
tp95
aa(lp96
(NF0.0
tp97
a(I2
F0.797
tp98
aa(lp99
(NF0.0
tp100
a(I3
F1.181
tp101
aa(lp102
(NF0.0
tp103
a(I4
F1.262
tp104
aa(lp105
(NF0.0
tp106
a(I2
F0.546
tp107
aa(lp108
(NF0.0
tp109
a(I2
F0.581
tp110
aa(lp111
(NF0.0
tp112
a(I3
F0.461
tp113
aa(lp114
(NF0.0
tp115
a(I4
F0.599
tp116
aa(lp117
(NF0.0
tp118
a(I2
F0.63
tp119
aa(lp120
(NF0.0
tp121
a(I3
F1.947
tp122
aa(lp123
(NF0.0
tp124
a(I1
F1.162
tp125
aa(lp126
(NF0.0
tp127
a(I3
F1.246
tp128
aa(lp129
(NF0.0
tp130
a(I1
F0.564
tp131
aa(lp132
(NF0.0
tp133
a(I3
F0.779
tp134
aa(lp135
(NF0.0
tp136
a(I1
F0.579
tp137
aa(lp138
(NF0.0
tp139
a(I3
F1.197
tp140
aa(lp141
(NF0.0
tp142
a(I2
F0.379
tp143
aa(lp144
(NF0.0
tp145
a(I2
F0.664
tp146
aa(lp147
(NF0.0
tp148
a(I2
F0.713
tp149
aa(lp150
(NF0.0
tp151
a(I4
F0.73
tp152
aa(lp153
(NF0.0
tp154
a(I3
F0.363
tp155
aa(lp156
(NF0.0
tp157
a(I4
F0.396
tp158
aa(lp159
(NF0.0
tp160
a(I3
F0.896
tp161
aa(lp162
(NF0.0
tp163
a(I2
F0.847
tp164
aasS'run_time'
p165
F122.29410314559937
sS'total_iters'
p166
(lp167
I0
aI1
aI2
aI3
aI4
aI5
aI6
aI7
aI8
aI9
aI10
aI11
aI12
aI13
aI14
aI15
aI16
aI17
aI18
aI19
aI20
aI21
aI22
aI23
aI24
aI25
aI26
aI27
aI28
aI29
aI30
aI31
aI32
aI33
aI34
aI35
aI36
aI37
aI38
aI39
as.