(dp0
S'images'
p1
(lp2
S'sunahuynahneraqftyz.jpg'
p3
aS'sunbbegcweqnetpdlrh.jpg'
p4
aS'sunaamvxnvouicstkjb.jpg'
p5
aS'sunatstrpjxhvtbaczf.jpg'
p6
aS'sunadflbrkckmepztql.jpg'
p7
aS'26464872.thl.jpg'
p8
aS'22869624.thl.jpg'
p9
aS'26419670.thl.jpg'
p10
aS'23063814.thl.jpg'
p11
aS'26432899.thl.jpg'
p12
aS'26374798.thl.jpg'
p13
aS'sunaaylzyqlqrsmfwif.jpg'
p14
aS'sunadikxpvqeabxrvvc.jpg'
p15
aS'26434233.thl.jpg'
p16
aS'sunaeuvjbmdpknaqqaj.jpg'
p17
aS'26426317.thl.jpg'
p18
aS'26369923.thl.jpg'
p19
aS'26393373.thl.jpg'
p20
aS'sunajrujcsdxmfbssmc.jpg'
p21
aS'23019499.thl.jpg'
p22
aS'sunaiozxhxgtfrmoagh.jpg'
p23
aS'sunahtfxgsrmkiulnwk.jpg'
p24
aS'26425370.thl.jpg'
p25
aS'sunaakxgygjfqrzpyoz.jpg'
p26
aS'sunaqyylsngywqzwfmx.jpg'
p27
aS'22923068.thl.jpg'
p28
aS'sunabyfxcxhdebvdyfd.jpg'
p29
aS'26439074.thl.jpg'
p30
aS'23057742.thl.jpg'
p31
aS'sunagpancjmxqfazssf.jpg'
p32
aS'sunaqsolmfydodnakub.jpg'
p33
aS'26421583.thl.jpg'
p34
aS'26437491.thl.jpg'
p35
aS'sunabyvpwkgsjtijdwj.jpg'
p36
aS'26374605.thl.jpg'
p37
aS'23076640.thl.jpg'
p38
aS'sunavspxmxubqaeidjt.jpg'
p39
aS'26433592.thl.jpg'
p40
aS'sunabwjvmoaddlyxfjr.jpg'
p41
aS'sunaajqmsaavkmgbsth.jpg'
p42
asS'ratings'
p43
(lp44
(lp45
(NF0.0
tp46
a(I2
F1.129
tp47
aa(lp48
(NF0.0
tp49
a(I3
F0.562
tp50
aa(lp51
(NF0.0
tp52
a(I2
F0.611
tp53
aa(lp54
(NF0.0
tp55
a(I3
F0.594
tp56
aa(lp57
(NF0.0
tp58
a(I3
F1.128
tp59
aa(lp60
(NF0.0
tp61
a(I2
F0.706
tp62
aa(lp63
(NF0.0
tp64
a(I1
F1.062
tp65
aa(lp66
(NF0.0
tp67
a(I3
F0.927
tp68
aa(lp69
(NF0.0
tp70
a(I3
F0.846
tp71
aa(lp72
(NF0.0
tp73
a(I2
F1.228
tp74
aa(lp75
(NF0.0
tp76
a(I2
F1.509
tp77
aa(lp78
(NF0.0
tp79
a(I2
F1.397
tp80
aa(lp81
(NF0.0
tp82
a(I2
F0.711
tp83
aa(lp84
(NF0.0
tp85
a(I3
F1.28
tp86
aa(lp87
(NF0.0
tp88
a(I2
F1.061
tp89
aa(lp90
(NF0.0
tp91
a(I3
F0.71
tp92
aa(lp93
(NF0.0
tp94
a(I1
F1.163
tp95
aa(lp96
(NF0.0
tp97
a(I3
F0.796
tp98
aa(lp99
(NF0.0
tp100
a(I3
F1.113
tp101
aa(lp102
(NF0.0
tp103
a(I1
F0.828
tp104
aa(lp105
(NF0.0
tp106
a(I3
F0.596
tp107
aa(lp108
(NF0.0
tp109
a(I2
F1.08
tp110
aa(lp111
(NF0.0
tp112
a(I3
F1.063
tp113
aa(lp114
(NF0.0
tp115
aa(lp116
(NF0.0
tp117
a(I2
F0.463
tp118
aa(lp119
(NF0.0
tp120
a(I3
F0.496
tp121
aa(lp122
(NF0.0
tp123
a(I2
F0.746
tp124
aa(lp125
(NF0.0
tp126
a(I3
F0.847
tp127
aa(lp128
(NF0.0
tp129
a(I1
F0.962
tp130
aa(lp131
(NF0.0
tp132
a(I4
F1.148
tp133
aa(lp134
(NF0.0
tp135
a(I2
F1.111
tp136
aa(lp137
(NF0.0
tp138
a(I2
F0.861
tp139
aa(lp140
(NF0.0
tp141
a(I2
F1.479
tp142
aa(lp143
(NF0.0
tp144
a(I3
F1.161
tp145
aa(lp146
(NF0.0
tp147
a(I2
F1.514
tp148
aa(lp149
(NF0.0
tp150
aa(lp151
(NF0.0
tp152
a(I2
F0.445
tp153
aa(lp154
(NF0.0
tp155
a(I3
F0.679
tp156
aa(lp157
(NF0.0
tp158
a(I3
F1.143
tp159
aa(lp160
(NF0.0
tp161
a(I2
F0.83
tp162
aasS'run_time'
p163
F122.42604804039001
sS'total_iters'
p164
(lp165
I0
aI1
aI2
aI3
aI4
aI5
aI6
aI7
aI8
aI9
aI10
aI11
aI12
aI13
aI14
aI15
aI16
aI17
aI18
aI19
aI20
aI21
aI22
aI23
aI24
aI25
aI26
aI27
aI28
aI29
aI30
aI31
aI32
aI33
aI34
aI35
aI36
aI37
aI38
aI39
as.