(dp0
S'cue_tuples'
p1
(lp2
(S'cue_L'
p3
S'L'
p4
I0
tp5
a(g3
g4
I0
tp6
a(g3
g4
I1
tp7
a(g3
g4
I0
tp8
a(g3
g4
I0
tp9
a(g3
g4
I1
tp10
a(g3
g4
I0
tp11
a(g3
g4
I0
tp12
a(g3
g4
I0
tp13
a(g3
g4
I0
tp14
asS'uncued'
p15
(lp16
S'26419670.thl_sunagpancjmxqfazssf.jpg'
p17
aS'22908308.thl_sunaaylzyqlqrsmfwif.jpg'
p18
aS'26439074.thl_sunbaejotfklekvpxcz.jpg'
p19
aS'26432899.thl_sunaqyylsngywqzwfmx.jpg'
p20
aS'23019499.thl_sunabllobxadqcyttej.jpg'
p21
aS'26425370.thl_sunajjxttslobudoqbv.jpg'
p22
aS'23077768.thl_sunabyvpwkgsjtijdwj.jpg'
p23
aS'26424291.thl_sunaivdylrawbmhryfp.jpg'
p24
aS'26421357.thl_sunagutjvdvnhxejerz.jpg'
p25
aS'26423477.thl_sunahuynahneraqftyz.jpg'
p26
asS'cued'
p27
(lp28
S'26374798.thl_sunadoxcchtmsxewsau.jpg'
p29
aS'22859028.thl_sunaapfaivxqoynnwwp.jpg'
p30
aS'26374605.thl_sunadflbrkckmepztql.jpg'
p31
aS'26428576.thl_sunammbnoambmhdxdwd.jpg'
p32
aS'22910936.thl_sunaazezcsunmhttzxz.jpg'
p33
aS'23076640.thl_sunabyfxcxhdebvdyfd.jpg'
p34
aS'26426317.thl_sunajrujcsdxmfbssmc.jpg'
p35
aS'26420956.thl_sunagtqhhwxjeuxdebe.jpg'
p36
aS'23063814.thl_sunabwjvmoaddlyxfjr.jpg'
p37
aS'26423905.thl_sunaiozxhxgtfrmoagh.jpg'
p38
asS'uncued_RT'
p39
(lp40
F0.5329608917236328
aF0.5412530899047852
asS'cued_RT'
p41
(lp42
F0.42938804626464844
aF0.543226957321167
aF0.3938279151916504
aF0.510789155960083
aF0.3301210403442383
aF0.35995006561279297
aF0.5737910270690918
aF0.34595799446105957
as.