(dp0
S'cue_tuples'
p1
(lp2
(S'cue_R'
p3
S'F'
p4
I0
tp5
a(g3
g4
I0
tp6
a(g3
g4
I0
tp7
a(g3
g4
I0
tp8
a(g3
g4
I0
tp9
a(g3
g4
I0
tp10
a(g3
g4
I0
tp11
a(g3
g4
I0
tp12
a(g3
g4
I0
tp13
a(g3
g4
I0
tp14
asS'uncued'
p15
(lp16
S'26424478.thl_sunaiwfobocrruqznsv.jpg'
p17
aS'26423175.thl_sunahpblecxtmuzkmxb.jpg'
p18
aS'22920212.thl_sunabbafjowbzcvbucc.jpg'
p19
aS'26372237.thl_sunacmpqqfbsvlzinzl.jpg'
p20
aS'22925228.thl_sunabcuurugvxwparpk.jpg'
p21
aS'26451219.thl_sunbprywzqxjcezkbch.jpg'
p22
aS'26384871.thl_sunafgdqbclkwfocdhg.jpg'
p23
aS'26432173.thl_sunaprnrbmgkomdbchr.jpg'
p24
aS'26425025.thl_sunaizeyhvjzknwjudw.jpg'
p25
aS'26428593.thl_sunanaacmmosxrfwmvl.jpg'
p26
asS'cued'
p27
(lp28
S'22925624.thl_sunabeyhmxodahoieyk.jpg'
p29
aS'26378986.thl_sunaeoghzrjarigmwua.jpg'
p30
aS'26432175.thl_sunaptrqvaooxfvktvw.jpg'
p31
aS'26434250.thl_sunathzzbcwjykldrem.jpg'
p32
aS'26439898.thl_sunbasypfgzjtomktmu.jpg'
p33
aS'26443034.thl_sunbloeoiozwjjsiamp.jpg'
p34
aS'26282515.thl_sunabzjxlmkwnwzimua.jpg'
p35
aS'26428545.thl_sunamlotskmmsjeogby.jpg'
p36
aS'26440026.thl_sunbbfqwjpdxniyhies.jpg'
p37
aS'26441750.thl_sunbfzchmomnvzhbxdg.jpg'
p38
asS'uncued_RT'
p39
(lp40
sS'cued_RT'
p41
(lp42
F0.5935869216918945
aF0.4785120487213135
aF0.6467099189758301
aF0.47086215019226074
aF0.6137580871582031
aF0.5592799186706543
aF0.3150608539581299
aF0.44887685775756836
aF0.44158506393432617
aF0.5952739715576172
as.