(dp0
S'cued'
p1
(lp2
S'House_277.jpg'
p3
aS'House_032.jpg'
p4
aS'House_005.jpg'
p5
aS'House_125.jpg'
p6
aS'348272697_832ce65324.jpg'
p7
aS'House_260.jpg'
p8
aS'House_038.jpg'
p9
aS'House_287.jpg'
p10
aS'18425493_bb2b2dfc21.jpg'
p11
aS'House_043.jpg'
p12
asS'uncued'
p13
(lp14
S'3222737995_12447bd73f.jpg'
p15
aS'2477748909_d4eb1d3057.jpg'
p16
aS'316259418_f617f42325.jpg'
p17
aS'2208543015_c7d1711a1f.jpg'
p18
aS'House_280.jpg'
p19
aS'1084223688_e0cf65b8dc.jpg'
p20
aS'2872797141_2a3e718c05.jpg'
p21
aS'face-profile.jpg'
p22
aS'House_241.jpg'
p23
aS'julien_closeup.jpg'
p24
asS'uncued_RT'
p25
(lp26
F0.44171905517578125
aF0.44171905517578125
aF0.44171905517578125
aF0.44171905517578125
aF0.44171905517578125
aF0.44171905517578125
aF0.44171905517578125
aF0.44171905517578125
aF0.44171905517578125
aF0.44171905517578125
aF0.44171905517578125
aF0.44171905517578125
aF0.49785900115966797
aF0.49785900115966797
aF0.49785900115966797
aF0.49785900115966797
aF0.49785900115966797
aF0.49785900115966797
aF0.49785900115966797
aF0.49785900115966797
aF0.49785900115966797
aF0.49785900115966797
aF0.49785900115966797
aF0.49785900115966797
aF0.6907331943511963
aF0.6907331943511963
aF0.6907331943511963
aF0.6907331943511963
aF0.6907331943511963
aF0.6907331943511963
aF0.6907331943511963
aF0.6907331943511963
aF0.6907331943511963
aF0.6907331943511963
aF0.6907331943511963
aF0.6907331943511963
aF0.5755929946899414
aF0.5755929946899414
aF0.5755929946899414
aF0.5755929946899414
aF0.5755929946899414
aF0.5755929946899414
aF0.5755929946899414
aF0.5755929946899414
aF0.5755929946899414
aF0.5755929946899414
aF0.5755929946899414
aF0.5755929946899414
aF0.46335911750793457
aF0.46335911750793457
aF0.46335911750793457
aF0.46335911750793457
aF0.46335911750793457
aF0.46335911750793457
aF0.46335911750793457
aF0.46335911750793457
aF0.46335911750793457
aF0.46335911750793457
aF0.46335911750793457
aF0.46335911750793457
asS'cued_RT'
p27
(lp28
F0.5060958862304688
aF0.5060958862304688
aF0.5060958862304688
aF0.5060958862304688
aF0.5060958862304688
aF0.5060958862304688
aF0.5060958862304688
aF0.5060958862304688
aF0.5060958862304688
aF0.5060958862304688
aF0.5060958862304688
aF0.5060958862304688
aF0.503626823425293
aF0.503626823425293
aF0.503626823425293
aF0.503626823425293
aF0.503626823425293
aF0.503626823425293
aF0.503626823425293
aF0.503626823425293
aF0.503626823425293
aF0.503626823425293
aF0.503626823425293
aF0.503626823425293
aF0.4870281219482422
aF0.4870281219482422
aF0.4870281219482422
aF0.4870281219482422
aF0.4870281219482422
aF0.4870281219482422
aF0.4870281219482422
aF0.4870281219482422
aF0.4870281219482422
aF0.4870281219482422
aF0.4870281219482422
aF0.4870281219482422
aF0.34092187881469727
aF0.34092187881469727
aF0.34092187881469727
aF0.34092187881469727
aF0.34092187881469727
aF0.34092187881469727
aF0.34092187881469727
aF0.34092187881469727
aF0.34092187881469727
aF0.34092187881469727
aF0.34092187881469727
aF0.34092187881469727
aF0.5400881767272949
aF0.5400881767272949
aF0.5400881767272949
aF0.5400881767272949
aF0.5400881767272949
aF0.5400881767272949
aF0.5400881767272949
aF0.5400881767272949
aF0.5400881767272949
aF0.5400881767272949
aF0.5400881767272949
aF0.5400881767272949
as.