(dp0
S'images'
p1
(lp2
S'3222737995_12447bd73f.jpg'
p3
aS'348272697_832ce65324.jpg'
p4
aS'House_005.jpg'
p5
aS'2859395616_b0e08436e3.jpg'
p6
aS'2208543015_c7d1711a1f.jpg'
p7
aS'House_068.jpg'
p8
aS'3191660086_dd34b586d6.jpg'
p9
aS'18425493_bb2b2dfc21.jpg'
p10
aS'1919628327_17792855f9.jpg'
p11
aS'House_064.jpg'
p12
asS'ratings'
p13
(lp14
(lp15
(NF0.0
tp16
a(NF1.006
tp17
aa(lp18
(NF0.0
tp19
a(I4
F0.003
tp20
a(I3
F0.704
tp21
a(I3
F1.013
tp22
aa(lp23
(NF0.0
tp24
a(I2
F0.583
tp25
a(I2
F1.012
tp26
aa(lp27
(NF0.0
tp28
a(I4
F0.383
tp29
a(I4
F1.013
tp30
aa(lp31
(NF0.0
tp32
a(I1
F0.351
tp33
a(I1
F1.013
tp34
aa(lp35
(NF0.0
tp36
a(I2
F0.566
tp37
a(I2
F1.012
tp38
aa(lp39
(NF0.0
tp40
a(I4
F0.469
tp41
a(I4
F1.013
tp42
aa(lp43
(NF0.0
tp44
a(I2
F0.552
tp45
a(I2
F1.016
tp46
aa(lp47
(NF0.0
tp48
a(I3
F0.468
tp49
a(I3
F1.014
tp50
aa(lp51
(NF0.0
tp52
a(I2
F0.667
tp53
a(I2
F1.013
tp54
aas.