(lp0
S'A little boring'
p1
aS'A little tired'
p2
accopy_reg
_reconstructor
p3
(cfuture.types.newstr
newstr
p4
c__builtin__
unicode
p5
VNot really
p6
tp7
Rp8
ag3
(g4
g5
VNo
p9
tp10
Rp11
ag3
(g4
g5
VFor faces, I would sometimes try to remember how much space was left in the picture outside of their hair or rememeber specific, unique fetures about them. I didn't really try any techniques for the non-face pictures.
p12
tp13
Rp14
a.