(lp0
S'Neutral'
p1
aS'Very tired'
p2
accopy_reg
_reconstructor
p3
(cfuture.types.newstr
newstr
p4
c__builtin__
unicode
p5
Vthe scene; I found the face very hard to focus on with the scene in the background, and couldn't focus on many aspects of the face
p6
tp7
Rp8
ag3
(g4
g5
Vthe scene, because I found more things to look at
p9
tp10
Rp11
ag3
(g4
g5
VI tried to think about what was in the scene that was in any way related to me, and anything I found different about the face than a typical face
p12
tp13
Rp14
a.