(lp0
S'A little engaging'
p1
aS'A little tired'
p2
accopy_reg
_reconstructor
p3
(cfuture.types.newstr
newstr
p4
c__builtin__
unicode
p5
VI thought the landscapes were easier to remember because they were more varied (unlike the faces that out of my peripheral view looked more similar)
p6
tp7
Rp8
ag3
(g4
g5
VNo - I thought both sides were equally difficult
p9
tp10
Rp11
ag3
(g4
g5
VWhen remembering the landscapes, I tried to focus on one key feature to which I could think back
p12
tp13
Rp14
a.