(lp0
S'Very boring'
p1
aS'Very tired'
p2
accopy_reg
_reconstructor
p3
(cfuture.types.newstr
newstr
p4
c__builtin__
unicode
p5
Vfaces, they stood out more than the landscapes
p6
tp7
Rp8
ag3
(g4
g5
VI found it much easier to attend to the left side
p9
tp10
Rp11
ag3
(g4
g5
VI would try to focus on one feature of every image to see if that would stand out to me 
p12
tp13
Rp14
a.