(lp0
S'A little boring'
p1
aS'Neutral'
p2
accopy_reg
_reconstructor
p3
(cfuture.types.newstr
newstr
p4
c__builtin__
unicode
p5
VThe scenes, because the faces tended to blur together
p6
tp7
Rp8
ag3
(g4
g5
VMaybe L was a little easier. But I don't think there was a very big difference
p9
tp10
Rp11
ag3
(g4
g5
VI would repeat characteristics about the scene/face that I noticed to myself while the image was being shown.
p12
tp13
Rp14
a.