(dp0
S'cued_RT'
p1
(lp2
sS'cued'
p3
(lp4
S'191_108.jpg'
p5
aS'219_133.jpg'
p6
asS'run_time'
p7
F9.510422945022583
sS'cue_tuples'
p8
(lp9
(S'cue_R'
p10
S'F'
p11
I1
tp12
a(g10
S'L'
p13
I1
tp14
asS'uncued'
p15
(lp16
S'347_168.jpg'
p17
aS'283_11.jpg'
p18
asS'uncued_RT'
p19
(lp20
F0.39553308486938477
aF0.9363110065460205
as.