(dp0
S'cued_RT'
p1
(lp2
sS'cued'
p3
(lp4
S'343_164.jpg'
p5
aS'253_42.jpg'
p6
asS'run_time'
p7
F9.083492994308472
sS'cue_tuples'
p8
(lp9
(S'cue_L'
p10
S'F'
p11
I1
tp12
a(g10
S'L'
p13
I1
tp14
asS'uncued'
p15
(lp16
S'300_125.jpg'
p17
aS'272_10.jpg'
p18
asS'uncued_RT'
p19
(lp20
F0.4933788776397705
aF0.3988380432128906
as.