(dp0
S'images'
p1
(lp2
S'125.jpg'
p3
aS'360.jpg'
p4
aS'10.jpg'
p5
aS'42.jpg'
p6
aS'292.jpg'
p7
aS'346.jpg'
p8
aS'272.jpg'
p9
aS'164.jpg'
p10
aS'253.jpg'
p11
aS'208.jpg'
p12
aS'300.jpg'
p13
aS'343.jpg'
p14
aS'227.jpg'
p15
aS'353.jpg'
p16
aS'176.jpg'
p17
aS'19.jpg'
p18
asS'ratings'
p19
(lp20
(lp21
(NF0.0
tp22
a(I1
F1.076
tp23
aa(lp24
(NF0.0
tp25
a(I4
F0.476
tp26
aa(lp27
(NF0.0
tp28
a(I3
F0.4
tp29
aa(lp30
(NF0.0
tp31
a(I2
F0.413
tp32
aa(lp33
(NF0.0
tp34
a(I3
F0.308
tp35
aa(lp36
(NF0.0
tp37
a(I3
F0.559
tp38
aa(lp39
(NF0.0
tp40
a(I4
F0.349
tp41
aa(lp42
(NF0.0
tp43
a(I3
F0.709
tp44
aa(lp45
(NF0.0
tp46
a(I3
F0.76
tp47
aa(lp48
(NF0.0
tp49
a(I2
F0.425
tp50
aa(lp51
(NF0.0
tp52
a(I4
F0.325
tp53
aa(lp54
(NF0.0
tp55
a(I3
F0.392
tp56
aa(lp57
(NF0.0
tp58
a(I4
F0.315
tp59
aa(lp60
(NF0.0
tp61
a(I3
F0.241
tp62
aa(lp63
(NF0.0
tp64
a(I4
F0.257
tp65
aa(lp66
(NF0.0
tp67
a(I1
F0.367
tp68
aasS'run_time'
p69
F48.712114095687866
sS'total_iters'
p70
(lp71
I0
aI1
aI2
aI3
aI4
aI5
aI6
aI7
aI8
aI9
aI10
aI11
aI12
aI13
aI14
aI15
as.