(dp0
S'cued_RT'
p1
(lp2
sS'cued'
p3
(lp4
S'351_171.jpg'
p5
aS'235_26.jpg'
p6
aS'298_123.jpg'
p7
aS'191_108.jpg'
p8
aS'335_157.jpg'
p9
aS'313_137.jpg'
p10
aS'347_168.jpg'
p11
aS'296_121.jpg'
p12
aS'357_177.jpg'
p13
aS'184_101.jpg'
p14
asS'run_time'
p15
F47.07550096511841
sS'cue_tuples'
p16
(lp17
(S'cue_L'
p18
S'F'
p19
I0
tp20
a(g18
g19
I0
tp21
a(g18
g19
I0
tp22
a(g18
g19
I1
tp23
a(g18
g19
I0
tp24
a(g18
S'L'
p25
I0
tp26
a(g18
g25
I0
tp27
a(g18
g25
I1
tp28
a(g18
g25
I0
tp29
a(g18
g25
I1
tp30
asS'uncued'
p31
(lp32
S'219_133.jpg'
p33
aS'312_136.jpg'
p34
aS'303_128.jpg'
p35
aS'234_25.jpg'
p36
aS'246_36.jpg'
p37
aS'188_105.jpg'
p38
aS'225_139.jpg'
p39
aS'333_155.jpg'
p40
aS'280_107.jpg'
p41
aS'273_100.jpg'
p42
asS'uncued_RT'
p43
(lp44
F0.6243259906768799
aF0.4311521053314209
aF0.4988408088684082
aF0.4776639938354492
aF0.35845112800598145
aF0.6364109516143799
aF0.5428509712219238
aF0.41944408416748047
aF0.3357839584350586
aF0.4319570064544678
as.