(lp0
S'Neutral'
p1
aS'A little tired'
p2
accopy_reg
_reconstructor
p3
(cfuture.types.newstr
newstr
p4
c__builtin__
unicode
p5
Vscenery 
p6
tp7
Rp8
aS''
p9
ag3
(g4
g5
Vi tired to remeber figures or shapes i could easily recognize.
p10
tp11
Rp12
a.