(dp0
S'cue_tuples'
p1
(lp2
(S'cue_R'
p3
S'L'
p4
I0
tp5
a(g3
g4
I0
tp6
a(g3
g4
I0
tp7
a(g3
g4
I0
tp8
a(g3
g4
I0
tp9
a(g3
g4
I1
tp10
a(g3
g4
I0
tp11
a(g3
g4
I0
tp12
a(g3
g4
I0
tp13
a(g3
g4
I0
tp14
asS'uncued'
p15
(lp16
S'26375896.thl_sunaduslxfzlbxlllnz.jpg'
p17
aS'22857516.thl_sunaanlwnpqndclffxt.jpg'
p18
aS'26428041.thl_sunaloffvbvysigxent.jpg'
p19
aS'22923524.thl_sunabclssnoeuigtawp.jpg'
p20
aS'26431848.thl_sunapqkyghktgtosuuk.jpg'
p21
aS'23070748.thl_sunabxsbfwjccqxxzxq.jpg'
p22
aS'26379430.thl_sunaeutbrtswvsozxyk.jpg'
p23
aS'26424075.thl_sunaipyohrqlwngaqif.jpg'
p24
aS'23026459.thl_sunabppokiyglaxpcha.jpg'
p25
aS'26387690.thl_sunafpfpiiujzoesnqg.jpg'
p26
asS'cued'
p27
(lp28
S'26420979.thl_sunagtumacdlmciqamz.jpg'
p29
aS'26372785.thl_sunacvzhvcksnwqcqbw.jpg'
p30
aS'23076640.thl_sunabyfxcxhdebvdyfd.jpg'
p31
aS'26419324.thl_sunagountlxpzkytsmp.jpg'
p32
aS'22855236.thl_sunaalcrrdbjgdztbiz.jpg'
p33
aS'26431734.thl_sunapmfmzadmosuogaz.jpg'
p34
aS'26427906.thl_sunalcrtwiycqobgelp.jpg'
p35
aS'26432760.thl_sunaqsolmfydodnakub.jpg'
p36
aS'22861656.thl_sunaapxkpvrhpjplsok.jpg'
p37
aS'22869624.thl_sunaatjesvdupctftmn.jpg'
p38
asS'uncued_RT'
p39
(lp40
F0.354403018951416
asS'cued_RT'
p41
(lp42
F0.33116698265075684
aF0.40206408500671387
aF0.45314502716064453
aF0.30254101753234863
aF0.39869117736816406
aF0.4151928424835205
aF0.5220811367034912
aF0.5288748741149902
aF0.4233551025390625
as.