(dp0
S'cue_tuples'
p1
(lp2
(S'cue_R'
p3
S'F'
p4
I0
tp5
a(g3
g4
I0
tp6
a(g3
g4
I0
tp7
a(g3
g4
I0
tp8
a(g3
g4
I0
tp9
a(g3
g4
I0
tp10
a(g3
g4
I0
tp11
a(g3
g4
I0
tp12
a(g3
g4
I0
tp13
a(g3
g4
I0
tp14
asS'uncued'
p15
(lp16
S'26423175.thl_sunahpblecxtmuzkmxb.jpg'
p17
aS'23024623.thl_sunabmbnddafmywtjjj.jpg'
p18
aS'22852560.thl_sunaakmxzhuceuiryah.jpg'
p19
aS'26384637.thl_sunaffgsyyvoqdlkmnk.jpg'
p20
aS'26423242.thl_sunahqldjibofgsfdgb.jpg'
p21
aS'26419025.thl_sunagmwxxwymwojbvgi.jpg'
p22
aS'26437064.thl_sunavspxmxubqaeidjt.jpg'
p23
aS'26429123.thl_sunanwjjyqqwzqrqagd.jpg'
p24
aS'26432607.thl_sunaqbmgkgqucajzrkp.jpg'
p25
aS'26428545.thl_sunamlotskmmsjeogby.jpg'
p26
asS'cued'
p27
(lp28
S'26455183.thl_sunbvbrvgbpanfrawft.jpg'
p29
aS'22826448.thl_sunaaheqzstzxuadglu.jpg'
p30
aS'26378596.thl_sunaenwuebvlpdmntju.jpg'
p31
aS'26394018.thl_sunagjzcrjvmxzqzljx.jpg'
p32
aS'26425788.thl_sunajrgtewnualfcerj.jpg'
p33
aS'22911500.thl_sunabaergayifsgacxt.jpg'
p34
aS'22919000.thl_sunabasphceswhwwqvv.jpg'
p35
aS'26374713.thl_sunadikxpvqeabxrvvc.jpg'
p36
aS'22854108.thl_sunaakxgygjfqrzpyoz.jpg'
p37
aS'22903148.thl_sunaawsdjisukbbginm.jpg'
p38
asS'uncued_RT'
p39
(lp40
sS'cued_RT'
p41
(lp42
F0.3580300807952881
aF0.46058106422424316
aF0.31737589836120605
aF0.4920310974121094
aF0.4048151969909668
aF0.3043808937072754
aF0.3279578685760498
aF0.3982548713684082
aF0.4574160575866699
aF0.32318592071533203
as.