(dp0
S'images'
p1
(lp2
S'22875384.thl.jpg'
p3
aS'sunaeomlfaabhpswasy.jpg'
p4
aS'sunabasphceswhwwqvv.jpg'
p5
aS'26432607.thl.jpg'
p6
aS'26423242.thl.jpg'
p7
aS'23014927.thl.jpg'
p8
aS'sunabaergayifsgacxt.jpg'
p9
aS'sunamlotskmmsjeogby.jpg'
p10
aS'26439504.thl.jpg'
p11
aS'23024623.thl.jpg'
p12
aS'26429123.thl.jpg'
p13
aS'sunagmwxxwymwojbvgi.jpg'
p14
aS'sunaakmxzhuceuiryah.jpg'
p15
aS'26374713.thl.jpg'
p16
aS'26461413.thl.jpg'
p17
aS'sunadpnqovzckyikrjo.jpg'
p18
aS'26423652.thl.jpg'
p19
aS'sunadqmjrhfjyuzyvdd.jpg'
p20
aS'sunagjzcrjvmxzqzljx.jpg'
p21
aS'26439913.thl.jpg'
p22
aS'sunahqldjibofgsfdgb.jpg'
p23
aS'sunadtlxenqqxsyjvix.jpg'
p24
aS'sunadbhmrgrrpyzglxs.jpg'
p25
aS'26441591.thl.jpg'
p26
aS'26427867.thl.jpg'
p27
aS'26425788.thl.jpg'
p28
aS'26378596.thl.jpg'
p29
aS'sunabmbnddafmywtjjj.jpg'
p30
aS'sunaawsdjisukbbginm.jpg'
p31
aS'sunadoxcchtmsxewsau.jpg'
p32
aS'sunantryfbloeaomfta.jpg'
p33
aS'26394018.thl.jpg'
p34
aS'sunaaheqzstzxuadglu.jpg'
p35
aS'26455183.thl.jpg'
p36
aS'sunacacflqoyxhsqzhe.jpg'
p37
aS'26437064.thl.jpg'
p38
aS'sunaooaqzputrowwbsw.jpg'
p39
aS'26424087.thl.jpg'
p40
aS'26421572.thl.jpg'
p41
aS'sunafhmnhsdurlvddpw.jpg'
p42
asS'ratings'
p43
(lp44
(lp45
(NF0.0
tp46
a(I1
F1.097
tp47
aa(lp48
(NF0.0
tp49
a(I1
F0.714
tp50
aa(lp51
(NF0.0
tp52
a(I1
F1.079
tp53
aa(lp54
(NF0.0
tp55
a(I1
F0.615
tp56
aa(lp57
(NF0.0
tp58
a(I1
F0.631
tp59
aa(lp60
(NF0.0
tp61
a(I1
F0.598
tp62
aa(lp63
(NF0.0
tp64
a(I1
F0.831
tp65
aa(lp66
(NF0.0
tp67
a(I1
F0.88
tp68
aa(lp69
(NF0.0
tp70
a(I1
F0.515
tp71
aa(lp72
(NF0.0
tp73
a(I1
F0.498
tp74
aa(lp75
(NF0.0
tp76
a(I4
F1.031
tp77
aa(lp78
(NF0.0
tp79
a(I1
F0.812
tp80
aa(lp81
(NF0.0
tp82
a(I1
F0.73
tp83
aa(lp84
(NF0.0
tp85
a(I1
F0.624
tp86
aa(lp87
(NF0.0
tp88
a(I1
F0.648
tp89
aa(lp90
(NF0.0
tp91
a(I1
F0.626
tp92
aa(lp93
(NF0.0
tp94
a(I1
F0.533
tp95
aa(lp96
(NF0.0
tp97
a(I4
F0.846
tp98
aa(lp99
(NF0.0
tp100
a(I1
F0.696
tp101
aa(lp102
(NF0.0
tp103
a(I1
F0.581
tp104
aa(lp105
(NF0.0
tp106
a(I1
F0.715
tp107
aa(lp108
(NF0.0
tp109
a(I1
F0.498
tp110
aa(lp111
(NF0.0
tp112
a(I1
F0.68
tp113
aa(lp114
(NF0.0
tp115
a(I1
F0.564
tp116
aa(lp117
(NF0.0
tp118
a(I1
F0.645
tp119
aa(lp120
(NF0.0
tp121
a(I1
F0.581
tp122
aa(lp123
(NF0.0
tp124
a(I1
F0.595
tp125
aa(lp126
(NF0.0
tp127
a(I1
F0.712
tp128
aa(lp129
(NF0.0
tp130
a(I1
F0.563
tp131
aa(lp132
(NF0.0
tp133
a(I1
F0.63
tp134
aa(lp135
(NF0.0
tp136
a(I1
F0.514
tp137
aa(lp138
(NF0.0
tp139
a(I2
F0.18
tp140
aa(lp141
(NF0.0
tp142
a(I1
F0.648
tp143
aa(lp144
(NF0.0
tp145
a(I4
F0.762
tp146
aa(lp147
(NF0.0
tp148
a(I1
F0.579
tp149
aa(lp150
(NF0.0
tp151
a(I1
F0.631
tp152
aa(lp153
(NF0.0
tp154
a(I1
F0.846
tp155
aa(lp156
(NF0.0
tp157
a(I1
F0.645
tp158
aa(lp159
(NF0.0
tp160
a(I4
F0.934
tp161
aa(lp162
(NF0.0
tp163
a(I1
F0.797
tp164
aasS'run_time'
p165
F122.42865991592407
sS'total_iters'
p166
(lp167
I0
aI1
aI2
aI3
aI4
aI5
aI6
aI7
aI8
aI9
aI10
aI11
aI12
aI13
aI14
aI15
aI16
aI17
aI18
aI19
aI20
aI21
aI22
aI23
aI24
aI25
aI26
aI27
aI28
aI29
aI30
aI31
aI32
aI33
aI34
aI35
aI36
aI37
aI38
aI39
as.