(dp0
S'images'
p1
(lp2
S'sunabxmguapjekttvwm.jpg'
p3
aS'sunafijbgncijwykrnl.jpg'
p4
aS'sunaefgzwiramypjvtd.jpg'
p5
aS'sunagsiwrmuixqgdimb.jpg'
p6
aS'sunaqgjuuwvdcyiccjt.jpg'
p7
aS'sunbgzjryivyczuvkvm.jpg'
p8
aS'sunaampvucecsfbdafn.jpg'
p9
aS'sunabgfhvifeijihhjw.jpg'
p10
aS'sunacbeefkxpymwevpk.jpg'
p11
aS'26384554.thl.jpg'
p12
aS'26377133.thl.jpg'
p13
aS'sunbwyuesflwdpqtgoy.jpg'
p14
aS'22854888.thl.jpg'
p15
aS'26374346.thl.jpg'
p16
aS'26455774.thl.jpg'
p17
aS'26425323.thl.jpg'
p18
aS'sunbbxkanhzjgbwyxqs.jpg'
p19
aS'sunaetydippjxikifsb.jpg'
p20
aS'22853352.thl.jpg'
p21
aS'sunbasypfgzjtomktmu.jpg'
p22
aS'22949719.thl.jpg'
p23
aS'sunathzzbcwjykldrem.jpg'
p24
aS'26424133.thl.jpg'
p25
aS'26372690.thl.jpg'
p26
aS'sunbesrwkdsffeogeqq.jpg'
p27
aS'sunapileznnbbmrwoei.jpg'
p28
aS'26388148.thl.jpg'
p29
aS'26421106.thl.jpg'
p30
aS'22826832.thl.jpg'
p31
aS'26428110.thl.jpg'
p32
aS'26442719.thl.jpg'
p33
aS'sunacfdkbsrughwqwtt.jpg'
p34
aS'26423905.thl.jpg'
p35
aS'sunablfqiwfqomjarht.jpg'
p36
aS'sunaiozxhxgtfrmoagh.jpg'
p37
aS'sunadbdqzigzwipuipr.jpg'
p38
aS'26374166.thl.jpg'
p39
aS'22853544.thl.jpg'
p40
aS'26424443.thl.jpg'
p41
aS'26369923.thl.jpg'
p42
asS'ratings'
p43
(lp44
(lp45
(NF0.0
tp46
a(I1
F1.961
tp47
aa(lp48
(NF0.0
tp49
a(I1
F0.764
tp50
aa(lp51
(NF0.0
tp52
a(I1
F0.697
tp53
aa(lp54
(NF0.0
tp55
a(I1
F0.549
tp56
aa(lp57
(NF0.0
tp58
a(I1
F0.531
tp59
aa(lp60
(NF0.0
tp61
a(I1
F0.512
tp62
aa(lp63
(NF0.0
tp64
a(I1
F0.663
tp65
aa(lp66
(NF0.0
tp67
a(I1
F0.492
tp68
aa(lp69
(NF0.0
tp70
a(I1
F0.697
tp71
aa(lp72
(NF0.0
tp73
a(I1
F1.257
tp74
aa(lp75
(NF0.0
tp76
a(I1
F0.681
tp77
aa(lp78
(NF0.0
tp79
a(I1
F1.597
tp80
aa(lp81
(NF0.0
tp82
a(I1
F0.649
tp83
aa(lp84
(NF0.0
tp85
a(I1
F0.747
tp86
aa(lp87
(NF0.0
tp88
a(I1
F0.698
tp89
aa(lp90
(NF0.0
tp91
a(I1
F0.748
tp92
aa(lp93
(NF0.0
tp94
a(I1
F0.93
tp95
aa(lp96
(NF0.0
tp97
a(I1
F0.547
tp98
aa(lp99
(NF0.0
tp100
a(I1
F0.799
tp101
aa(lp102
(NF0.0
tp103
a(I1
F0.529
tp104
aa(lp105
(NF0.0
tp106
a(I1
F0.729
tp107
aa(lp108
(NF0.0
tp109
a(I1
F0.644
tp110
aa(lp111
(NF0.0
tp112
a(I1
F0.514
tp113
aa(lp114
(NF0.0
tp115
a(I1
F0.682
tp116
aa(lp117
(NF0.0
tp118
a(I1
F0.615
tp119
aa(lp120
(NF0.0
tp121
a(I1
F0.594
tp122
aa(lp123
(NF0.0
tp124
a(I1
F0.647
tp125
aa(lp126
(NF0.0
tp127
a(I1
F1.015
tp128
aa(lp129
(NF0.0
tp130
a(I4
F0.763
tp131
aa(lp132
(NF0.0
tp133
a(I1
F0.681
tp134
aa(lp135
(NF0.0
tp136
a(I1
F0.597
tp137
aa(lp138
(NF0.0
tp139
a(I1
F0.711
tp140
aa(lp141
(NF0.0
tp142
a(I4
F0.782
tp143
aa(lp144
(NF0.0
tp145
a(I1
F0.743
tp146
aa(lp147
(NF0.0
tp148
a(I1
F0.698
tp149
aa(lp150
(NF0.0
tp151
a(I1
F0.693
tp152
aa(lp153
(NF0.0
tp154
a(I4
F0.797
tp155
aa(lp156
(NF0.0
tp157
a(I1
F0.614
tp158
aa(lp159
(NF0.0
tp160
a(I1
F0.849
tp161
aa(lp162
(NF0.0
tp163
a(I1
F0.814
tp164
aasS'run_time'
p165
F122.36251711845398
sS'total_iters'
p166
(lp167
I0
aI1
aI2
aI3
aI4
aI5
aI6
aI7
aI8
aI9
aI10
aI11
aI12
aI13
aI14
aI15
aI16
aI17
aI18
aI19
aI20
aI21
aI22
aI23
aI24
aI25
aI26
aI27
aI28
aI29
aI30
aI31
aI32
aI33
aI34
aI35
aI36
aI37
aI38
aI39
as.