(dp0
S'cue_tuples'
p1
(lp2
(S'cue_L'
p3
S'L'
p4
I0
tp5
a(g3
g4
I0
tp6
a(g3
g4
I0
tp7
a(g3
g4
I0
tp8
a(g3
g4
I0
tp9
a(g3
g4
I0
tp10
a(g3
g4
I1
tp11
a(g3
g4
I0
tp12
a(g3
g4
I0
tp13
a(g3
g4
I0
tp14
asS'uncued'
p15
(lp16
S'26432217.thl_sunapwjkcxdaeqehfql.jpg'
p17
aS'26373407.thl_sunacycdoztxoluxjyk.jpg'
p18
aS'26377777.thl_sunaemcowdozyphwknd.jpg'
p19
aS'26421070.thl_sunaguchqqnrtodtezq.jpg'
p20
aS'22875816.thl_sunaauueuhhvklldjik.jpg'
p21
aS'23041782.thl_sunabrlndkruqokhury.jpg'
p22
aS'26437491.thl_sunaygrtwrwfezqjizr.jpg'
p23
aS'26444138.thl_sunbmaiocftdtvnzgap.jpg'
p24
aS'26377631.thl_sunaekgzpfilgjxpeyq.jpg'
p25
aS'23025307.thl_sunabmytpyhsgigllxu.jpg'
p26
asS'cued'
p27
(lp28
S'26423296.thl_sunahqrxievfeusiqlt.jpg'
p29
aS'23044458.thl_sunabrwnslxalcohfre.jpg'
p30
aS'26429137.thl_sunaofikylqtxphvdem.jpg'
p31
aS'26432109.thl_sunapqwnqzxlsfvgsjm.jpg'
p32
aS'26427612.thl_sunaknlirqjqiwbbeeg.jpg'
p33
aS'22925228.thl_sunabcuurugvxwparpk.jpg'
p34
aS'22896812.thl_sunaawqdbpihmlbwyyn.jpg'
p35
aS'26370704.thl_sunacjnahdmqfnjfwqx.jpg'
p36
aS'22869912.thl_sunaatpkocdkocwxpkb.jpg'
p37
aS'26439074.thl_sunbaejotfklekvpxcz.jpg'
p38
asS'uncued_RT'
p39
(lp40
F0.3403329849243164
asS'cued_RT'
p41
(lp42
F0.30007314682006836
aF0.35934996604919434
aF0.3640730381011963
aF0.34424710273742676
aF0.4785628318786621
aF0.34176206588745117
aF0.36156415939331055
aF0.4632699489593506
aF0.3674190044403076
as.