(dp0
S'images'
p1
(lp2
S'sunbesrwkdsffeogeqq.jpg'
p3
aS'sunbasypfgzjtomktmu.jpg'
p4
aS'00990960627fa.jpg'
p5
aS'sunbpflsdaxnddnwcqi.jpg'
p6
aS'sunabqowuarvqqcnipn.jpg'
p7
aS'00783941205fa.jpg'
p8
aS'sunabxsuqbleluwczoy.jpg'
p9
aS'00864940307fa.jpg'
p10
aS'00882960530fa.jpg'
p11
aS'sunafvsxtzaizojicxx.jpg'
p12
aS'sunaavjinpnkappuonm.jpg'
p13
aS'sunagjeesomrwjsfqie.jpg'
p14
aS'00564941031fa.jpg'
p15
aS'00847940307fa.jpg'
p16
aS'00162931230fb.jpg'
p17
aS'sunacsaovnjezqwbykf.jpg'
p18
aS'00568940928fa.jpg'
p19
aS'sunahawfngukizslzsd.jpg'
p20
aS'00290940422fa.jpg'
p21
aS'00773960620fa.jpg'
p22
aS'00900960530fa.jpg'
p23
aS'sunabxmguapjekttvwm.jpg'
p24
aS'sunagpancjmxqfazssf.jpg'
p25
aS'00720960620fa.jpg'
p26
aS'00483940519fa.jpg'
p27
aS'00543940519fa.jpg'
p28
aS'sunaisiwfgppimtnmxl.jpg'
p29
aS'00123931230fb.jpg'
p30
aS'00146960620fb.jpg'
p31
aS'sunaecpkgfewqqreqwe.jpg'
p32
aS'sunabanoxjtqxamkucc.jpg'
p33
aS'00122931230fa.jpg'
p34
aS'00559940519fa.jpg'
p35
aS'sunbaejotfklekvpxcz.jpg'
p36
aS'sunakgbnzxmfohgehnu.jpg'
p37
aS'00507940519fa.jpg'
p38
aS'sunaeutbrtswvsozxyk.jpg'
p39
aS'sunaddtdkycxbqlpfqa.jpg'
p40
aS'00791941205fa.jpg'
p41
aS'sunacdnquypmsshhsbk.jpg'
p42
asS'ratings'
p43
(lp44
(lp45
(NF0.0
tp46
a(I1
F1.095
tp47
aa(lp48
(NF0.0
tp49
a(I3
F1.193
tp50
aa(lp51
(NF0.0
tp52
a(I4
F1.122
tp53
aa(lp54
(NF0.0
tp55
a(I4
F0.875
tp56
aa(lp57
(NF0.0
tp58
a(I4
F1.793
tp59
aa(lp60
(NF0.0
tp61
a(I3
F1.126
tp62
aa(lp63
(NF0.0
tp64
a(I3
F1.276
tp65
aa(lp66
(NF0.0
tp67
a(I1
F0.978
tp68
aa(lp69
(NF0.0
tp70
a(I2
F0.913
tp71
aa(lp72
(NF0.0
tp73
a(I4
F1.042
tp74
aa(lp75
(NF0.0
tp76
a(I3
F0.912
tp77
aa(lp78
(NF0.0
tp79
a(I3
F1.06
tp80
aa(lp81
(NF0.0
tp82
a(I2
F0.968
tp83
aa(lp84
(NF0.0
tp85
a(I3
F1.049
tp86
aa(lp87
(NF0.0
tp88
a(I2
F1.119
tp89
aa(lp90
(NF0.0
tp91
a(I3
F1.276
tp92
aa(lp93
(NF0.0
tp94
a(I2
F1.018
tp95
aa(lp96
(NF0.0
tp97
a(I4
F0.956
tp98
aa(lp99
(NF0.0
tp100
a(I1
F0.904
tp101
aa(lp102
(NF0.0
tp103
a(I2
F0.942
tp104
aa(lp105
(NF0.0
tp106
a(I2
F1.49
tp107
aa(lp108
(NF0.0
tp109
a(I1
F1.393
tp110
aa(lp111
(NF0.0
tp112
a(I1
F0.859
tp113
aa(lp114
(NF0.0
tp115
a(I1
F1.011
tp116
aa(lp117
(NF0.0
tp118
a(I1
F1.266
tp119
aa(lp120
(NF0.0
tp121
a(I2
F1.098
tp122
aa(lp123
(NF0.0
tp124
a(I1
F1.107
tp125
aa(lp126
(NF0.0
tp127
a(I1
F0.901
tp128
aa(lp129
(NF0.0
tp130
a(I1
F0.675
tp131
aa(lp132
(NF0.0
tp133
a(I1
F1.027
tp134
aa(lp135
(NF0.0
tp136
a(I2
F1.414
tp137
aa(lp138
(NF0.0
tp139
a(I2
F1.479
tp140
aa(lp141
(NF0.0
tp142
a(I1
F1.185
tp143
aa(lp144
(NF0.0
tp145
a(I2
F1.091
tp146
aa(lp147
(NF0.0
tp148
a(I2
F1.109
tp149
aa(lp150
(NF0.0
tp151
a(I2
F0.77
tp152
aa(lp153
(NF0.0
tp154
a(I2
F0.825
tp155
aa(lp156
(NF0.0
tp157
a(I2
F1.293
tp158
aa(lp159
(NF0.0
tp160
a(I1
F1.406
tp161
aa(lp162
(NF0.0
tp163
a(I1
F1.059
tp164
aasS'run_time'
p165
F122.2768440246582
sS'total_iters'
p166
(lp167
I0
aI1
aI2
aI3
aI4
aI5
aI6
aI7
aI8
aI9
aI10
aI11
aI12
aI13
aI14
aI15
aI16
aI17
aI18
aI19
aI20
aI21
aI22
aI23
aI24
aI25
aI26
aI27
aI28
aI29
aI30
aI31
aI32
aI33
aI34
aI35
aI36
aI37
aI38
aI39
as.