(dp0
S'cue_tuples'
p1
(lp2
(S'cue_L'
p3
S'F'
p4
I0
tp5
a(g3
g4
I0
tp6
a(g3
g4
I1
tp7
a(g3
g4
I0
tp8
a(g3
g4
I0
tp9
a(g3
g4
I0
tp10
a(g3
g4
I0
tp11
a(g3
g4
I0
tp12
a(g3
g4
I0
tp13
a(g3
g4
I0
tp14
asS'uncued'
p15
(lp16
S'00939960627fa_sunarceibpcyacbmfga.jpg'
p17
aS'00925960627fa_sunapqwnqzxlsfvgsjm.jpg'
p18
aS'00090931230fa_sunaahedjlmtqekgyvj.jpg'
p19
aS'00262940128fa_sunabizydfotqddlnjp.jpg'
p20
aS'00571940928fa_sunacuatpqpqhyjhjqk.jpg'
p21
aS'00997960627fa_sunbtpilbhhbmhmeuzq.jpg'
p22
aS'00905960530fa_sunanmoqeyprjjjfxjt.jpg'
p23
aS'00903960620fa_sunanainkqdvktzoxyl.jpg'
p24
aS'00296940422fa_sunabrwnslxalcohfre.jpg'
p25
aS'00557940519fa_sunachtuarilwyqnvjx.jpg'
p26
asS'cued'
p27
(lp28
S'00793941205fa_sunagtjwilqjvxohypn.jpg'
p29
aS'00086931230fa_sunaafynehyrzpsoaml.jpg'
p30
aS'00532960627fa_sunaccdtpgenvcbcbcf.jpg'
p31
aS'00598940928fa_sunacxeheuiigkcgquf.jpg'
p32
aS'00314940422fa_sunabwmcbaxwioksdgw.jpg'
p33
aS'01003960627fb_sunbwdrdvsweerwsdrj.jpg'
p34
aS'00294940422fb_sunabrlndkruqokhury.jpg'
p35
aS'00071941031fa_sunaaexqbtdswxrqjvz.jpg'
p36
aS'00719960620fa_sunadzuvtmtmgupotmf.jpg'
p37
aS'00308940422fb_sunabwfvcqqidycwypa.jpg'
p38
asS'uncued_RT'
p39
(lp40
F0.4173421859741211
aF0.3257160186767578
aF0.4683198928833008
aF0.2974281311035156
aF0.29258203506469727
aF0.3773500919342041
aF0.34978413581848145
aF0.23543906211853027
aF0.28258395195007324
aF0.38507509231567383
asS'cued_RT'
p41
(lp42
s.