(dp0
S'cue_tuples'
p1
(lp2
(S'cue_R'
p3
S'L'
p4
I1
tp5
a(g3
g4
I0
tp6
a(g3
g4
I0
tp7
a(g3
g4
I0
tp8
a(g3
g4
I0
tp9
a(g3
g4
I0
tp10
a(g3
g4
I0
tp11
a(g3
g4
I1
tp12
a(g3
g4
I0
tp13
a(g3
g4
I0
tp14
asS'uncued'
p15
(lp16
S'00938960627fa_sunaqyylsngywqzwfmx.jpg'
p17
aS'00869940307fa_sunajoveqhiprwqgoco.jpg'
p18
aS'00919960620fa_sunapmfmzadmosuogaz.jpg'
p19
aS'00835940307fa_sunaijsqpvodplbwxkf.jpg'
p20
aS'00871940307_sunajrujcsdxmfbssmc.jpg'
p21
aS'00834940307fa_sunaibnpvhkdpdnzcnz.jpg'
p22
aS'00819940307fa_sunahqldjibofgsfdgb.jpg'
p23
aS'00548940519fa_sunacerqowiaeoqkmsq.jpg'
p24
aS'00902960530fa_sunanaacmmosxrfwmvl.jpg'
p25
aS'00638941031fa_sunadfktsqjthoglcsm.jpg'
p26
asS'cued'
p27
(lp28
S'00700941121fa_sunadsgmtznewzyasnk.jpg'
p29
aS'00136931230fb_sunaanptmsknhirrzed.jpg'
p30
aS'00670941121fa_sunadochqcucscehsgk.jpg'
p31
aS'00796941205fa_sunaguchqqnrtodtezq.jpg'
p32
aS'00935960627fa_sunaqbmgkgqucajzrkp.jpg'
p33
aS'00101931230fb_sunaajqmsaavkmgbsth.jpg'
p34
aS'00097931230fa_sunaajayojuslbbnneg.jpg'
p35
aS'00785941205fa_sunaglqunwuycxydmyu.jpg'
p36
aS'00120931230fa_sunaakxgygjfqrzpyoz.jpg'
p37
aS'00828940307fa_sunahuynahneraqftyz.jpg'
p38
asS'uncued_RT'
p39
(lp40
F0.540869951248169
aF0.42554783821105957
asS'cued_RT'
p41
(lp42
F0.34897708892822266
aF0.44596409797668457
aF0.44094300270080566
aF0.48451995849609375
aF0.37183189392089844
aF0.4518270492553711
aF0.36581897735595703
aF0.38531017303466797
as.