(dp0
S'cue_tuples'
p1
(lp2
(S'cue_R'
p3
S'F'
p4
I0
tp5
a(g3
g4
I0
tp6
a(g3
g4
I0
tp7
a(g3
g4
I0
tp8
a(g3
g4
I1
tp9
a(g3
g4
I0
tp10
a(g3
g4
I0
tp11
a(g3
g4
I0
tp12
a(g3
g4
I0
tp13
a(g3
g4
I0
tp14
asS'uncued'
p15
(lp16
S'00943960627fa_sunarpsxqkduedrrzyi.jpg'
p17
aS'00115931230fa_sunaakmxzhuceuiryah.jpg'
p18
aS'00609940928fa_sunacycdoztxoluxjyk.jpg'
p19
aS'00719941201fa_sunadvithllcgmfxsrn.jpg'
p20
aS'00581940928fa_sunacvzhvcksnwqcqbw.jpg'
p21
aS'00937960627fa_sunaqsolmfydodnakub.jpg'
p22
aS'00158931230fb_sunaavchcbptaerhcfy.jpg'
p23
aS'00854940307fa_sunaiwduelojtwaqeyh.jpg'
p24
aS'01007960627fa_sunbxarcshsnqsefemx.jpg'
p25
aS'00860940307fa_sunaizeyhvjzknwjudw.jpg'
p26
asS'cued'
p27
(lp28
S'00762941201fa_sunafgzgbisbopcyslr.jpg'
p29
aS'00999960627fa_sunbvbrvgbpanfrawft.jpg'
p30
aS'00061931230fb_sunaaekxzjzrfgtkwjf.jpg'
p31
aS'00280940422fb_sunabohxbskznglnrhv.jpg'
p32
aS'00130931230fa_sunaamvxnvouicstkjb.jpg'
p33
aS'00147931230fb_sunaatpkocdkocwxpkb.jpg'
p34
aS'00960960627fa_sunawksfbacycuhbrsc.jpg'
p35
aS'00870940307fa_sunajrgtewnualfcerj.jpg'
p36
aS'00931960627fa_sunaptrqvaooxfvktvw.jpg'
p37
aS'00145931230fb_sunaatjesvdupctftmn.jpg'
p38
asS'uncued_RT'
p39
(lp40
F0.490231990814209
asS'cued_RT'
p41
(lp42
F0.32063889503479004
aF0.41875219345092773
aF0.43476200103759766
aF0.4333038330078125
aF0.4071669578552246
aF0.40939879417419434
aF0.606295108795166
aF0.513178825378418
aF0.4183769226074219
as.