(dp0
S'images'
p1
(lp2
S'00889960530fa.jpg'
p3
aS'00221940128fa.jpg'
p4
aS'00892960530fa.jpg'
p5
aS'00634940928fa.jpg'
p6
aS'00971960627fa.jpg'
p7
aS'00775941205fa.jpg'
p8
aS'sunbwtlihsuptkrckid.jpg'
p9
aS'sunafvwfsmqkjrutjta.jpg'
p10
aS'00694941121fa.jpg'
p11
aS'00787960620fa.jpg'
p12
aS'sunaakvmbftkrgqhjun.jpg'
p13
aS'00133931230fa.jpg'
p14
aS'00675941121fa.jpg'
p15
aS'sunahctntqrunhdxhtb.jpg'
p16
aS'sunahtfxgsrmkiulnwk.jpg'
p17
aS'sunbwyuesflwdpqtgoy.jpg'
p18
aS'sunabcfpwlpolnutyju.jpg'
p19
aS'sunagoufulkpsxrmklt.jpg'
p20
aS'00119931230fb.jpg'
p21
aS'sunadoxcchtmsxewsau.jpg'
p22
aS'sunaletopenvvozhpxc.jpg'
p23
aS'00804960530fa.jpg'
p24
aS'sunabgfhvifeijihhjw.jpg'
p25
aS'sunagjzcrjvmxzqzljx.jpg'
p26
aS'sunafbwnojpqeyzssoe.jpg'
p27
aS'sunapileznnbbmrwoei.jpg'
p28
aS'sunbvzmgrdvaakxusbu.jpg'
p29
aS'sunbbegcweqnetpdlrh.jpg'
p30
aS'00194940128fb.jpg'
p31
aS'sunadkazmlajmohnwfl.jpg'
p32
aS'sunabctlikybqabezjv.jpg'
p33
aS'sunafgdqbclkwfocdhg.jpg'
p34
aS'00092931230fa.jpg'
p35
aS'sunatstrpjxhvtbaczf.jpg'
p36
aS'sunaivflshbyfrfzhqb.jpg'
p37
aS'00771941205fa.jpg'
p38
aS'00705960530fa.jpg'
p39
aS'sunbgklxeqjhdbyfhhy.jpg'
p40
aS'00810941205fa.jpg'
p41
aS'sunaekgzpfilgjxpeyq.jpg'
p42
asS'ratings'
p43
(lp44
(lp45
(NF0.0
tp46
a(I3
F1.718
tp47
aa(lp48
(NF0.0
tp49
a(I2
F1.046
tp50
aa(lp51
(NF0.0
tp52
a(I1
F0.753
tp53
aa(lp54
(NF0.0
tp55
a(I2
F0.831
tp56
aa(lp57
(NF0.0
tp58
a(I2
F0.899
tp59
aa(lp60
(NF0.0
tp61
a(I1
F0.82
tp62
aa(lp63
(NF0.0
tp64
a(I3
F1.259
tp65
aa(lp66
(NF0.0
tp67
a(I1
F1.41
tp68
aa(lp69
(NF0.0
tp70
a(I1
F1.115
tp71
aa(lp72
(NF0.0
tp73
a(I1
F1.029
tp74
aa(lp75
(NF0.0
tp76
a(I2
F0.868
tp77
aa(lp78
(NF0.0
tp79
a(I2
F1.07
tp80
aa(lp81
(NF0.0
tp82
a(I3
F0.967
tp83
aa(lp84
(NF0.0
tp85
aa(lp86
(NF0.0
tp87
a(I2
F1.091
tp88
aa(lp89
(NF0.0
tp90
a(I3
F1.327
tp91
aa(lp92
(NF0.0
tp93
a(I2
F0.885
tp94
aa(lp95
(NF0.0
tp96
a(I1
F0.927
tp97
aa(lp98
(NF0.0
tp99
a(I1
F0.882
tp100
aa(lp101
(NF0.0
tp102
a(I4
F1.158
tp103
aa(lp104
(NF0.0
tp105
a(I2
F0.927
tp106
aa(lp107
(NF0.0
tp108
a(I1
F0.716
tp109
aa(lp110
(NF0.0
tp111
a(I1
F0.91
tp112
aa(lp113
(NF0.0
tp114
a(I1
F1.026
tp115
aa(lp116
(NF0.0
tp117
a(I1
F0.859
tp118
aa(lp119
(NF0.0
tp120
a(I1
F1.009
tp121
aa(lp122
(NF0.0
tp123
a(I2
F1.276
tp124
aa(lp125
(NF0.0
tp126
a(I1
F0.91
tp127
aa(lp128
(NF0.0
tp129
a(I1
F0.55
tp130
aa(lp131
(NF0.0
tp132
a(I1
F0.69
tp133
aa(lp134
(NF0.0
tp135
a(I1
F0.843
tp136
aa(lp137
(NF0.0
tp138
a(I1
F0.727
tp139
aa(lp140
(NF0.0
tp141
a(I1
F0.738
tp142
aa(lp143
(NF0.0
tp144
a(I1
F0.726
tp145
aa(lp146
(NF0.0
tp147
a(I2
F1.276
tp148
aa(lp149
(NF0.0
tp150
a(I3
F0.875
tp151
aa(lp152
(NF0.0
tp153
a(I3
F0.936
tp154
aa(lp155
(NF0.0
tp156
a(I2
F0.826
tp157
aa(lp158
(NF0.0
tp159
a(I1
F0.799
tp160
aa(lp161
(NF0.0
tp162
a(I2
F1.043
tp163
aasS'run_time'
p164
F122.06012988090515
sS'total_iters'
p165
(lp166
I0
aI1
aI2
aI3
aI4
aI5
aI6
aI7
aI8
aI9
aI10
aI11
aI12
aI13
aI14
aI15
aI16
aI17
aI18
aI19
aI20
aI21
aI22
aI23
aI24
aI25
aI26
aI27
aI28
aI29
aI30
aI31
aI32
aI33
aI34
aI35
aI36
aI37
aI38
aI39
as.