(dp0
S'images'
p1
(lp2
S'00984960627fa.jpg'
p3
aS'sunapmfmzadmosuogaz.jpg'
p4
aS'00819940307fa.jpg'
p5
aS'sunadfktsqjthoglcsm.jpg'
p6
aS'00835940307fa.jpg'
p7
aS'00630940928fa.jpg'
p8
aS'sunanaacmmosxrfwmvl.jpg'
p9
aS'sunadsgmtznewzyasnk.jpg'
p10
aS'00838940307fa.jpg'
p11
aS'sunaglqunwuycxydmyu.jpg'
p12
aS'00871940307.jpg'
p13
aS'00935960627fa.jpg'
p14
aS'00548940519fa.jpg'
p15
aS'00938960627fa.jpg'
p16
aS'sunaajspcoepticvplv.jpg'
p17
aS'sunaguchqqnrtodtezq.jpg'
p18
aS'sunaajayojuslbbnneg.jpg'
p19
aS'00136931230fb.jpg'
p20
aS'sunadnjjzohjhbohlwq.jpg'
p21
aS'00564940928fa.jpg'
p22
aS'sunaddsaeicthrfbkhe.jpg'
p23
aS'sunahqldjibofgsfdgb.jpg'
p24
aS'sunaqyylsngywqzwfmx.jpg'
p25
aS'00797960620fa.jpg'
p26
aS'00958960627fa.jpg'
p27
aS'00101931230fb.jpg'
p28
aS'sunadochqcucscehsgk.jpg'
p29
aS'00796941205fa.jpg'
p30
aS'00120931230fa.jpg'
p31
aS'sunabtrnbvpppgczjim.jpg'
p32
aS'sunafpfpiiujzoesnqg.jpg'
p33
aS'00906960530fa.jpg'
p34
aS'01000960627fa.jpg'
p35
aS'sunajjxttslobudoqbv.jpg'
p36
aS'00260940128fa.jpg'
p37
aS'sunabwjvmoaddlyxfjr.jpg'
p38
aS'sunaathajvxrgptwhoj.jpg'
p39
aS'sunbmaiocftdtvnzgap.jpg'
p40
aS'sunbdycacjfaujxitbw.jpg'
p41
aS'00070940307fa.jpg'
p42
asS'ratings'
p43
(lp44
(lp45
(NF0.0
tp46
a(I1
F0.855
tp47
aa(lp48
(NF0.0
tp49
a(I1
F1.11
tp50
aa(lp51
(NF0.0
tp52
a(I1
F0.819
tp53
aa(lp54
(NF0.0
tp55
a(I2
F0.927
tp56
aa(lp57
(NF0.0
tp58
a(I2
F1.135
tp59
aa(lp60
(NF0.0
tp61
a(I2
F1.53
tp62
aa(lp63
(NF0.0
tp64
a(I2
F0.539
tp65
aa(lp66
(NF0.0
tp67
a(I2
F0.775
tp68
aa(lp69
(NF0.0
tp70
aa(lp71
(NF0.0
tp72
a(I2
F0.941
tp73
aa(lp74
(NF0.0
tp75
a(I3
F0.854
tp76
aa(lp77
(NF0.0
tp78
a(I2
F0.681
tp79
aa(lp80
(NF0.0
tp81
a(I1
F0.916
tp82
aa(lp83
(NF0.0
tp84
a(I2
F0.661
tp85
aa(lp86
(NF0.0
tp87
a(I3
F1.033
tp88
aa(lp89
(NF0.0
tp90
a(I2
F0.876
tp91
aa(lp92
(NF0.0
tp93
a(I3
F0.926
tp94
aa(lp95
(NF0.0
tp96
a(I2
F0.936
tp97
aa(lp98
(NF0.0
tp99
a(I2
F1.327
tp100
aa(lp101
(NF0.0
tp102
a(I1
F1.304
tp103
aa(lp104
(NF0.0
tp105
a(I2
F1.092
tp106
aa(lp107
(NF0.0
tp108
a(I3
F1.075
tp109
aa(lp110
(NF0.0
tp111
a(I2
F1.46
tp112
aa(lp113
(NF0.0
tp114
a(I2
F0.665
tp115
aa(lp116
(NF0.0
tp117
a(I2
F0.659
tp118
aa(lp119
(NF0.0
tp120
a(I2
F0.596
tp121
aa(lp122
(NF0.0
tp123
a(I1
F0.593
tp124
aa(lp125
(NF0.0
tp126
a(I1
F0.575
tp127
aa(lp128
(NF0.0
tp129
a(I1
F0.465
tp130
aa(lp131
(NF0.0
tp132
a(I2
F0.976
tp133
aa(lp134
(NF0.0
tp135
a(I2
F0.793
tp136
aa(lp137
(NF0.0
tp138
a(I2
F0.587
tp139
aa(lp140
(NF0.0
tp141
a(I1
F0.682
tp142
aa(lp143
(NF0.0
tp144
a(I1
F0.959
tp145
aa(lp146
(NF0.0
tp147
a(I1
F0.622
tp148
aa(lp149
(NF0.0
tp150
a(I3
F0.725
tp151
aa(lp152
(NF0.0
tp153
a(I2
F1.351
tp154
aa(lp155
(NF0.0
tp156
a(I1
F0.943
tp157
aa(lp158
(NF0.0
tp159
a(I1
F0.875
tp160
aa(lp161
(NF0.0
tp162
a(I3
F1.269
tp163
aasS'run_time'
p164
F122.51031398773193
sS'total_iters'
p165
(lp166
I0
aI1
aI2
aI3
aI4
aI5
aI6
aI7
aI8
aI9
aI10
aI11
aI12
aI13
aI14
aI15
aI16
aI17
aI18
aI19
aI20
aI21
aI22
aI23
aI24
aI25
aI26
aI27
aI28
aI29
aI30
aI31
aI32
aI33
aI34
aI35
aI36
aI37
aI38
aI39
as.