(dp0
S'images'
p1
(lp2
S'00960960627fa.jpg'
p3
aS'00841940307fa.jpg'
p4
aS'sunabohxbskznglnrhv.jpg'
p5
aS'00854940307fa.jpg'
p6
aS'00581940928fa.jpg'
p7
aS'sunaauueuhhvklldjik.jpg'
p8
aS'sunacycdoztxoluxjyk.jpg'
p9
aS'00860940307fa.jpg'
p10
aS'00145931230fb.jpg'
p11
aS'sunabppokiyglaxpcha.jpg'
p12
aS'00280940422fb.jpg'
p13
aS'00999960627fa.jpg'
p14
aS'00147931230fb.jpg'
p15
aS'sunabllobxadqcyttej.jpg'
p16
aS'00967960627fa.jpg'
p17
aS'sunabjzyxcjnmztdonj.jpg'
p18
aS'00158931230fb.jpg'
p19
aS'sunaatpkocdkocwxpkb.jpg'
p20
aS'sunaatjesvdupctftmn.jpg'
p21
aS'sunbvbrvgbpanfrawft.jpg'
p22
aS'sunacvzhvcksnwqcqbw.jpg'
p23
aS'sunafgzgbisbopcyslr.jpg'
p24
aS'00609940928fa.jpg'
p25
aS'sunaayehfdqcyxggsej.jpg'
p26
aS'sunaakmxzhuceuiryah.jpg'
p27
aS'sunarpsxqkduedrrzyi.jpg'
p28
aS'sunaizeyhvjzknwjudw.jpg'
p29
aS'00878960530fa.jpg'
p30
aS'00963960627fa.jpg'
p31
aS'sunaiozxhxgtfrmoagh.jpg'
p32
aS'00063931230fa.jpg'
p33
aS'sunahmhrncocyhsjpxk.jpg'
p34
aS'sunbddbivbptlrlauhy.jpg'
p35
aS'00127931230fa.jpg'
p36
aS'01002960627fb.jpg'
p37
aS'00185940422fb.jpg'
p38
aS'sunagfvluwixdsozaql.jpg'
p39
aS'sunbprywzqxjcezkbch.jpg'
p40
aS'00777941205fa.jpg'
p41
aS'sunacmpqqfbsvlzinzl.jpg'
p42
asS'ratings'
p43
(lp44
(lp45
(NF0.0
tp46
a(I2
F0.906
tp47
aa(lp48
(NF0.0
tp49
a(I3
F1.003
tp50
aa(lp51
(NF0.0
tp52
a(I2
F1.276
tp53
aa(lp54
(NF0.0
tp55
a(I2
F0.862
tp56
aa(lp57
(NF0.0
tp58
a(I1
F1.482
tp59
aa(lp60
(NF0.0
tp61
a(I1
F1.046
tp62
aa(lp63
(NF0.0
tp64
a(I2
F1.542
tp65
aa(lp66
(NF0.0
tp67
a(I3
F0.921
tp68
aa(lp69
(NF0.0
tp70
a(I3
F1.191
tp71
aa(lp72
(NF0.0
tp73
a(I3
F0.726
tp74
aa(lp75
(NF0.0
tp76
a(I1
F1.094
tp77
aa(lp78
(NF0.0
tp79
a(I1
F1.151
tp80
aa(lp81
(NF0.0
tp82
a(I2
F0.96
tp83
aa(lp84
(NF0.0
tp85
a(I1
F0.91
tp86
aa(lp87
(NF0.0
tp88
a(I1
F0.436
tp89
aa(lp90
(NF0.0
tp91
a(I1
F0.608
tp92
aa(lp93
(NF0.0
tp94
a(I2
F0.836
tp95
aa(lp96
(NF0.0
tp97
a(I1
F1.478
tp98
aa(lp99
(NF0.0
tp100
a(I1
F0.775
tp101
aa(lp102
(NF0.0
tp103
a(I1
F1.125
tp104
aa(lp105
(NF0.0
tp106
a(I1
F1.659
tp107
aa(lp108
(NF0.0
tp109
a(I1
F1.076
tp110
aa(lp111
(NF0.0
tp112
a(I1
F0.681
tp113
aa(lp114
(NF0.0
tp115
a(I1
F1.334
tp116
aa(lp117
(NF0.0
tp118
aa(lp119
(NF0.0
tp120
aa(lp121
(NF0.0
tp122
a(I2
F1.075
tp123
aa(lp124
(NF0.0
tp125
a(I2
F0.788
tp126
aa(lp127
(NF0.0
tp128
a(I3
F0.959
tp129
aa(lp130
(NF0.0
tp131
a(I2
F0.843
tp132
aa(lp133
(NF0.0
tp134
a(I3
F0.898
tp135
aa(lp136
(NF0.0
tp137
a(I3
F1.042
tp138
aa(lp139
(NF0.0
tp140
a(I1
F1.009
tp141
aa(lp142
(NF0.0
tp143
a(I1
F1.045
tp144
aa(lp145
(NF0.0
tp146
a(I1
F0.903
tp147
aa(lp148
(NF0.0
tp149
a(I1
F0.97
tp150
aa(lp151
(NF0.0
tp152
a(I1
F0.542
tp153
aa(lp154
(NF0.0
tp155
a(I2
F0.794
tp156
aa(lp157
(NF0.0
tp158
a(I2
F0.75
tp159
aa(lp160
(NF0.0
tp161
a(I3
F0.694
tp162
aasS'run_time'
p163
F122.47696995735168
sS'total_iters'
p164
(lp165
I0
aI1
aI2
aI3
aI4
aI5
aI6
aI7
aI8
aI9
aI10
aI11
aI12
aI13
aI14
aI15
aI16
aI17
aI18
aI19
aI20
aI21
aI22
aI23
aI24
aI25
aI26
aI27
aI28
aI29
aI30
aI31
aI32
aI33
aI34
aI35
aI36
aI37
aI38
aI39
as.