(lp0
S'Very boring'
p1
aS'A little tired'
p2
accopy_reg
_reconstructor
p3
(cfuture.types.newstr
newstr
p4
c__builtin__
unicode
p5
Vscenes; I could usually pick out one identifying feature in the scene to remember whereas to recognize the faces I felt like I had to have focused on the whole face
p6
tp7
Rp8
ag3
(g4
g5
Vneither side was easier to attend to
p9
tp10
Rp11
ag3
(g4
g5
Vtrying to pick out one distinguishing feature about the face or scene to remember
p12
tp13
Rp14
a.