(dp0
S'cue_tuples'
p1
(lp2
(S'cue_R'
p3
S'L'
p4
I0
tp5
a(g3
g4
I0
tp6
a(g3
g4
I0
tp7
a(g3
g4
I0
tp8
a(g3
g4
I0
tp9
a(g3
g4
I0
tp10
a(g3
g4
I0
tp11
a(g3
g4
I0
tp12
a(g3
g4
I0
tp13
a(g3
g4
I1
tp14
asS'uncued'
p15
(lp16
S'00915960620fa_sunapileznnbbmrwoei.jpg'
p17
aS'00914960620fa_sunaozisvwfbmlkfhzv.jpg'
p18
aS'00743941201fa_sunaeoghzrjarigmwua.jpg'
p19
aS'00984960627fa_sunbfzchmomnvzhbxdg.jpg'
p20
aS'00822940307fa_sunahqrxievfeusiqlt.jpg'
p21
aS'00262940128fa_sunabizydfotqddlnjp.jpg'
p22
aS'01004960627fa_sunbwtlihsuptkrckid.jpg'
p23
aS'00112931230fa_sunaakjaacuzulqckgl.jpg'
p24
aS'00742941201fa_sunaenwuebvlpdmntju.jpg'
p25
aS'00958960627fa_sunavspxmxubqaeidjt.jpg'
p26
asS'cued'
p27
(lp28
S'00728941205fa_sunaejnvnpltdmhbcsi.jpg'
p29
aS'00979960627fa_sunbdycacjfaujxitbw.jpg'
p30
aS'00235940128fb_sunabclssnoeuigtawp.jpg'
p31
aS'00720960620fa_sunaecpkgfewqqreqwe.jpg'
p32
aS'00568940928fa_sunacsdhbbsybcyxnel.jpg'
p33
aS'00772941201fa_sunafpfpiiujzoesnqg.jpg'
p34
aS'00648941031fa_sunadfndyrtqqiasoig.jpg'
p35
aS'00264940128fb_sunabjzyxcjnmztdonj.jpg'
p36
aS'00276940422fa_sunabmytpyhsgigllxu.jpg'
p37
aS'00768941205fa_sunafkmnlytenlsywia.jpg'
p38
asS'uncued_RT'
p39
(lp40
F0.5508768558502197
asS'cued_RT'
p41
(lp42
F0.6882359981536865
aF0.3077688217163086
aF0.34518909454345703
aF0.35145020484924316
aF0.2973439693450928
aF0.46650004386901855
aF0.28052401542663574
aF0.36743998527526855
aF0.36907291412353516
as.