(dp0
S'cue_tuples'
p1
(lp2
(S'cue_R'
p3
S'L'
p4
I0
tp5
a(g3
g4
I0
tp6
a(g3
g4
I0
tp7
a(g3
g4
I0
tp8
a(g3
g4
I0
tp9
a(g3
g4
I0
tp10
a(g3
g4
I0
tp11
a(g3
g4
I0
tp12
a(g3
g4
I0
tp13
a(g3
g4
I0
tp14
asS'uncued'
p15
(lp16
S'00581940928fa_sunacvzhvcksnwqcqbw.jpg'
p17
aS'00070940307fa_sunaaeplwsfslcbtojr.jpg'
p18
aS'00809960620fa_sunahbvlpavurqoxdeq.jpg'
p19
aS'00900960530fa_sunamlotskmmsjeogby.jpg'
p20
aS'00092931230fa_sunaaheqzstzxuadglu.jpg'
p21
aS'00102931230fa_sunaajspcoepticvplv.jpg'
p22
aS'00805941205fa_sunagwzdbtlixdhgolm.jpg'
p23
aS'00885960530fa_sunakwlvxjpddialozd.jpg'
p24
aS'00925960627fa_sunapqwnqzxlsfvgsjm.jpg'
p25
aS'00902960530fa_sunanaacmmosxrfwmvl.jpg'
p26
asS'cued'
p27
(lp28
S'00719960620fa_sunadzuvtmtmgupotmf.jpg'
p29
aS'00895960530fa_sunamczizlzavhzhpay.jpg'
p30
aS'00063931230fa_sunaaelyvurpntclgau.jpg'
p31
aS'00913960530fa_sunaooffzffbhcpirmm.jpg'
p32
aS'00993960627fa_sunbprywzqxjcezkbch.jpg'
p33
aS'00146960620fb_sunaatpeezlljqaxlhj.jpg'
p34
aS'00791941205fa_sunagrmyoovzukhxmlo.jpg'
p35
aS'00868960307fa_sunajjxttslobudoqbv.jpg'
p36
aS'00795941205fa_sunagtumacdlmciqamz.jpg'
p37
aS'00892960530fa_sunalntxqqadigcletd.jpg'
p38
asS'uncued_RT'
p39
(lp40
sS'cued_RT'
p41
(lp42
F0.5395939350128174
aF0.35901904106140137
aF0.34944701194763184
aF0.42833685874938965
aF0.2770519256591797
aF0.29186010360717773
aF0.38645482063293457
aF0.3901350498199463
aF0.5409858226776123
aF0.4513230323791504
as.