(dp0
S'cue_tuples'
p1
(lp2
(S'cue_R'
p3
S'F'
p4
I0
tp5
a(g3
g4
I0
tp6
a(g3
g4
I0
tp7
a(g3
g4
I0
tp8
a(g3
g4
I0
tp9
a(g3
g4
I0
tp10
a(g3
g4
I1
tp11
a(g3
g4
I0
tp12
a(g3
g4
I1
tp13
a(g3
g4
I0
tp14
asS'uncued'
p15
(lp16
S'00670941121fa_sunadochqcucscehsgk.jpg'
p17
aS'00090931230fa_sunaahedjlmtqekgyvj.jpg'
p18
aS'00967960627fa_sunbaejotfklekvpxcz.jpg'
p19
aS'00961960627fa_sunawotxrevnqvamsfp.jpg'
p20
aS'00939960627fa_sunarceibpcyacbmfga.jpg'
p21
aS'00776941205fa_sunafxokyavhgptyfye.jpg'
p22
aS'00858940307fa_sunaixpqndlwhwjtjek.jpg'
p23
aS'00847940307fa_sunaivdjruhkrfywfed.jpg'
p24
aS'00827940307fa_sunahtfxgsrmkiulnwk.jpg'
p25
aS'00554940519fa_sunacfdkbsrughwqwtt.jpg'
p26
asS'cued'
p27
(lp28
S'00784941205fb_sunagjzcrjvmxzqzljx.jpg'
p29
aS'00988960627fa_sunbmaiocftdtvnzgap.jpg'
p30
aS'00131931230fb_sunaangbuylfvckqqoo.jpg'
p31
aS'00905960530fa_sunanmoqeyprjjjfxjt.jpg'
p32
aS'00908960530fa_sunanwjjyqqwzqrqagd.jpg'
p33
aS'00265940128fb_sunabkmdplkdbvxriff.jpg'
p34
aS'00871940307_sunajrujcsdxmfbssmc.jpg'
p35
aS'00101931230fb_sunaajqmsaavkmgbsth.jpg'
p36
aS'00794960620fa_sunagtqhhwxjeuxdebe.jpg'
p37
aS'00125931230fa_sunaalltyvjhbzhkmvg.jpg'
p38
asS'uncued_RT'
p39
(lp40
F0.26706600189208984
aF0.5904698371887207
asS'cued_RT'
p41
(lp42
F0.6032209396362305
aF0.30908703804016113
aF0.3925149440765381
aF0.34851694107055664
aF0.32483601570129395
aF0.28701114654541016
aF0.4301109313964844
aF0.27101802825927734
as.