(dp0
S'images'
p1
(lp2
S'sunagmhildamktmqjss.jpg'
p3
aS'00725941201fa.jpg'
p4
aS'sunaauueuhhvklldjik.jpg'
p5
aS'00749941201fa.jpg'
p6
aS'00950960627fa.jpg'
p7
aS'sunabaergayifsgacxt.jpg'
p8
aS'sunasrjlmglmjzbmqxb.jpg'
p9
aS'sunafvtpfczkzopbgue.jpg'
p10
aS'00790941205fa.jpg'
p11
aS'00111931230fb.jpg'
p12
aS'00133931230fa.jpg'
p13
aS'00788941205fa.jpg'
p14
aS'00815941205fa.jpg'
p15
aS'00752960620fa.jpg'
p16
aS'sunabqowuarvqqcnipn.jpg'
p17
aS'sunacwggadqsfpovdjv.jpg'
p18
aS'sunagufzbeteqdjxais.jpg'
p19
aS'00751960620fa.jpg'
p20
aS'sunaezuszgtxnmsxdbk.jpg'
p21
aS'sunaddtdkycxbqlpfqa.jpg'
p22
aS'00529940519fa.jpg'
p23
aS'sunavhxgmgrqsaptynb.jpg'
p24
aS'00065931230fb.jpg'
p25
aS'00647941031fa.jpg'
p26
aS'sunaofikylqtxphvdem.jpg'
p27
aS'sunaatjesvdupctftmn.jpg'
p28
aS'sunaglqunwuycxydmyu.jpg'
p29
aS'00123931230fb.jpg'
p30
aS'00145931230fb.jpg'
p31
aS'00681941121fa.jpg'
p32
aS'sunacxeheuiigkcgquf.jpg'
p33
aS'00957960627fa.jpg'
p34
aS'00124931230fa.jpg'
p35
aS'00785941205fa.jpg'
p36
aS'sunbpflsdaxnddnwcqi.jpg'
p37
aS'00115931230fa.jpg'
p38
aS'00296940422fa.jpg'
p39
aS'sunaafynehyrzpsoaml.jpg'
p40
aS'00968960627fa.jpg'
p41
aS'sunaprnrbmgkomdbchr.jpg'
p42
asS'ratings'
p43
(lp44
(lp45
(NF0.0
tp46
a(I1
F1.538
tp47
aa(lp48
(NF0.0
tp49
a(I1
F1.362
tp50
aa(lp51
(NF0.0
tp52
a(I2
F1.595
tp53
aa(lp54
(NF0.0
tp55
a(I2
F1.593
tp56
aa(lp57
(NF0.0
tp58
a(I1
F1.834
tp59
aa(lp60
(NF0.0
tp61
a(I4
F1.492
tp62
aa(lp63
(NF0.0
tp64
a(I3
F1.422
tp65
aa(lp66
(NF0.0
tp67
a(I3
F1.393
tp68
aa(lp69
(NF0.0
tp70
a(I1
F1.463
tp71
aa(lp72
(NF0.0
tp73
a(I1
F1.626
tp74
aa(lp75
(NF0.0
tp76
a(I1
F1.74
tp77
aa(lp78
(NF0.0
tp79
aa(lp80
(NF0.0
tp81
a(I2
F1.705
tp82
aa(lp83
(NF0.0
tp84
a(I1
F1.541
tp85
aa(lp86
(NF0.0
tp87
a(I3
F1.361
tp88
aa(lp89
(NF0.0
tp90
a(I3
F1.365
tp91
aa(lp92
(NF0.0
tp93
a(I4
F1.073
tp94
aa(lp95
(NF0.0
tp96
a(I2
F1.452
tp97
aa(lp98
(NF0.0
tp99
a(I1
F1.727
tp100
aa(lp101
(NF0.0
tp102
a(I1
F1.973
tp103
aa(lp104
(NF0.0
tp105
a(I1
F1.54
tp106
aa(lp107
(NF0.0
tp108
a(I1
F1.821
tp109
aa(lp110
(NF0.0
tp111
a(I2
F1.968
tp112
aa(lp113
(NF0.0
tp114
aa(lp115
(NF0.0
tp116
a(I3
F1.584
tp117
aa(lp118
(NF0.0
tp119
a(I2
F1.79
tp120
aa(lp121
(NF0.0
tp122
a(I3
F1.309
tp123
aa(lp124
(NF0.0
tp125
a(I1
F1.709
tp126
aa(lp127
(NF0.0
tp128
a(I1
F1.425
tp129
aa(lp130
(NF0.0
tp131
a(I1
F0.875
tp132
aa(lp133
(NF0.0
tp134
a(I2
F1.612
tp135
aa(lp136
(NF0.0
tp137
a(I2
F1.155
tp138
aa(lp139
(NF0.0
tp140
a(I1
F1.542
tp141
aa(lp142
(NF0.0
tp143
a(I1
F1.457
tp144
aa(lp145
(NF0.0
tp146
aa(lp147
(NF0.0
tp148
a(I1
F1.22
tp149
aa(lp150
(NF0.0
tp151
a(I2
F1.68
tp152
aa(lp153
(NF0.0
tp154
a(I2
F1.582
tp155
aa(lp156
(NF0.0
tp157
a(I1
F1.991
tp158
aa(lp159
(NF0.0
tp160
a(I1
F1.556
tp161
aasS'run_time'
p162
F123.21008586883545
sS'total_iters'
p163
(lp164
I0
aI1
aI2
aI3
aI4
aI5
aI6
aI7
aI8
aI9
aI10
aI11
aI12
aI13
aI14
aI15
aI16
aI17
aI18
aI19
aI20
aI21
aI22
aI23
aI24
aI25
aI26
aI27
aI28
aI29
aI30
aI31
aI32
aI33
aI34
aI35
aI36
aI37
aI38
aI39
as.