(dp0
S'cue_tuples'
p1
(lp2
(S'cue_R'
p3
S'F'
p4
I0
tp5
a(g3
g4
I0
tp6
a(g3
g4
I0
tp7
a(g3
g4
I0
tp8
a(g3
g4
I0
tp9
a(g3
g4
I1
tp10
a(g3
g4
I0
tp11
a(g3
g4
I0
tp12
a(g3
g4
I0
tp13
a(g3
g4
I0
tp14
asS'uncued'
p15
(lp16
S'00960960627fa_sunawksfbacycuhbrsc.jpg'
p17
aS'00635941031fa_sunaddsaeicthrfbkhe.jpg'
p18
aS'00966960627fa_sunaygrtwrwfezqjizr.jpg'
p19
aS'00266940128fb_sunabkngeblodihjvbk.jpg'
p20
aS'00245940128fa_sunabeyhmxodahoieyk.jpg'
p21
aS'00973960627fa_sunbbgtoeuzierkkajt.jpg'
p22
aS'00306940422fa_sunabueyoajufbkraki.jpg'
p23
aS'00780960530fa_sunagetqixeypsysbpn.jpg'
p24
aS'00969960627fa_sunbaoizrfijvhpnnjn.jpg'
p25
aS'00770941201fa_sunaflojskatpeqyzqp.jpg'
p26
asS'cued'
p27
(lp28
S'00705941205fa_sunadtlxenqqxsyjvix.jpg'
p29
aS'00787960620fa_sunagoufulkpsxrmklt.jpg'
p30
aS'01010960627fa_suncnkvbhypnivcohyx.jpg'
p31
aS'00071941031fa_sunaaexqbtdswxrqjvz.jpg'
p32
aS'00982960627fa_sunbesrwkdsffeogeqq.jpg'
p33
aS'00633940928fa_sunadbhmrgrrpyzglxs.jpg'
p34
aS'00136931230fb_sunaanptmsknhirrzed.jpg'
p35
aS'00997960627fa_sunbtpilbhhbmhmeuzq.jpg'
p36
aS'00999960627fa_sunbvbrvgbpanfrawft.jpg'
p37
aS'00221940128fa_sunabcfpwlpolnutyju.jpg'
p38
asS'uncued_RT'
p39
(lp40
F0.46249985694885254
asS'cued_RT'
p41
(lp42
F0.5965020656585693
aF0.5463910102844238
aF0.4544551372528076
aF0.4921269416809082
aF0.3342258930206299
aF0.4373040199279785
aF0.342972993850708
aF0.4850611686706543
aF0.37192296981811523
as.