(dp0
S'images'
p1
(lp2
S'00193940928fa.jpg'
p3
aS'00235940128fb.jpg'
p4
aS'00915960620fa.jpg'
p5
aS'00112931230fa.jpg'
p6
aS'00742941201fa.jpg'
p7
aS'sunaeoghzrjarigmwua.jpg'
p8
aS'sunafkmnlytenlsywia.jpg'
p9
aS'sunbfzchmomnvzhbxdg.jpg'
p10
aS'sunabclssnoeuigtawp.jpg'
p11
aS'sunbloeoiozwjjsiamp.jpg'
p12
aS'00768941205fa.jpg'
p13
aS'00822940307fa.jpg'
p14
aS'sunaenwuebvlpdmntju.jpg'
p15
aS'00866940307fa.jpg'
p16
aS'sunaetydippjxikifsb.jpg'
p17
aS'00239940128fa.jpg'
p18
aS'00568940928fa.jpg'
p19
aS'00829940307fa.jpg'
p20
aS'sunaivdylrawbmhryfp.jpg'
p21
aS'sunabmytpyhsgigllxu.jpg'
p22
aS'00720960620fa.jpg'
p23
aS'sunbwtlihsuptkrckid.jpg'
p24
aS'sunavspxmxubqaeidjt.jpg'
p25
aS'sunabjzyxcjnmztdonj.jpg'
p26
aS'00743941201fa.jpg'
p27
aS'sunacsdhbbsybcyxnel.jpg'
p28
aS'00648941031fa.jpg'
p29
aS'00598940928fa.jpg'
p30
aS'00675941121fa.jpg'
p31
aS'00288940422fa.jpg'
p32
aS'sunadcphrizvfpljiqt.jpg'
p33
aS'sunaefgzwiramypjvtd.jpg'
p34
aS'sunaafvitpexrpvumsa.jpg'
p35
aS'00242940128fa.jpg'
p36
aS'sunagfvluwixdsozaql.jpg'
p37
aS'sunajwqkfsykceonyig.jpg'
p38
aS'sundbixjudsgeuuehrn.jpg'
p39
aS'00996960627fa.jpg'
p40
aS'00976960627fa.jpg'
p41
aS'sunagutjvdvnhxejerz.jpg'
p42
asS'ratings'
p43
(lp44
(lp45
(NF0.0
tp46
a(I2
F1.305
tp47
aa(lp48
(NF0.0
tp49
a(I3
F1.468
tp50
aa(lp51
(NF0.0
tp52
a(I2
F1.089
tp53
aa(lp54
(NF0.0
tp55
a(I2
F1.047
tp56
aa(lp57
(NF0.0
tp58
a(I3
F1.6
tp59
aa(lp60
(NF0.0
tp61
a(I2
F1.248
tp62
aa(lp63
(NF0.0
tp64
a(I3
F0.909
tp65
aa(lp66
(NF0.0
tp67
a(I3
F1.702
tp68
aa(lp69
(NF0.0
tp70
a(I2
F1.072
tp71
aa(lp72
(NF0.0
tp73
a(I3
F0.941
tp74
aa(lp75
(NF0.0
tp76
a(I2
F1.105
tp77
aa(lp78
(NF0.0
tp79
a(I1
F1.675
tp80
aa(lp81
(NF0.0
tp82
a(I2
F1.076
tp83
aa(lp84
(NF0.0
tp85
a(I1
F1.491
tp86
aa(lp87
(NF0.0
tp88
a(I2
F0.958
tp89
aa(lp90
(NF0.0
tp91
a(I2
F1.174
tp92
aa(lp93
(NF0.0
tp94
a(I2
F0.896
tp95
aa(lp96
(NF0.0
tp97
a(I2
F0.707
tp98
aa(lp99
(NF0.0
tp100
a(I2
F1.904
tp101
aa(lp102
(NF0.0
tp103
a(I2
F1.757
tp104
aa(lp105
(NF0.0
tp106
a(I1
F1.542
tp107
aa(lp108
(NF0.0
tp109
a(I1
F1.526
tp110
aa(lp111
(NF0.0
tp112
a(I1
F1.288
tp113
aa(lp114
(NF0.0
tp115
a(I3
F1.609
tp116
aa(lp117
(NF0.0
tp118
a(I2
F1.339
tp119
aa(lp120
(NF0.0
tp121
a(I3
F1.342
tp122
aa(lp123
(NF0.0
tp124
aa(lp125
(NF0.0
tp126
a(I2
F1.507
tp127
aa(lp128
(NF0.0
tp129
a(I2
F1.676
tp130
aa(lp131
(NF0.0
tp132
a(I1
F1.595
tp133
aa(lp134
(NF0.0
tp135
a(I2
F1.892
tp136
aa(lp137
(NF0.0
tp138
a(I2
F1.34
tp139
aa(lp140
(NF0.0
tp141
a(I3
F1.12
tp142
aa(lp143
(NF0.0
tp144
a(I2
F1.473
tp145
aa(lp146
(NF0.0
tp147
a(I3
F1.405
tp148
aa(lp149
(NF0.0
tp150
a(I2
F1.188
tp151
aa(lp152
(NF0.0
tp153
a(I2
F1.559
tp154
aa(lp155
(NF0.0
tp156
a(I3
F1.557
tp157
aa(lp158
(NF0.0
tp159
aa(lp160
(NF0.0
tp161
a(I2
F1.343
tp162
aasS'run_time'
p163
F123.34416079521179
sS'total_iters'
p164
(lp165
I0
aI1
aI2
aI3
aI4
aI5
aI6
aI7
aI8
aI9
aI10
aI11
aI12
aI13
aI14
aI15
aI16
aI17
aI18
aI19
aI20
aI21
aI22
aI23
aI24
aI25
aI26
aI27
aI28
aI29
aI30
aI31
aI32
aI33
aI34
aI35
aI36
aI37
aI38
aI39
as.