(dp0
S'images'
p1
(lp2
S'sunbesrwkdsffeogeqq.jpg'
p3
aS'sunabcfpwlpolnutyju.jpg'
p4
aS'00313940422fa.jpg'
p5
aS'sunaalhlvzmjmitybdn.jpg'
p6
aS'sunacdnquypmsshhsbk.jpg'
p7
aS'sunaanptmsknhirrzed.jpg'
p8
aS'00770941201fa.jpg'
p9
aS'sunbtpilbhhbmhmeuzq.jpg'
p10
aS'00127931230fa.jpg'
p11
aS'sunabueyoajufbkraki.jpg'
p12
aS'00136931230fb.jpg'
p13
aS'sunagoufulkpsxrmklt.jpg'
p14
aS'00959960627fa.jpg'
p15
aS'sunabeyhmxodahoieyk.jpg'
p16
aS'00801941205fa.jpg'
p17
aS'sunaygrtwrwfezqjizr.jpg'
p18
aS'00960960627fa.jpg'
p19
aS'00787960620fa.jpg'
p20
aS'00973960627fa.jpg'
p21
aS'sunbbgtoeuzierkkajt.jpg'
p22
aS'sunabkngeblodihjvbk.jpg'
p23
aS'sunaiwduelojtwaqeyh.jpg'
p24
aS'00997960627fa.jpg'
p25
aS'00966960627fa.jpg'
p26
aS'00633940928fa.jpg'
p27
aS'00221940128fa.jpg'
p28
aS'00990960627fa.jpg'
p29
aS'00245940128fa.jpg'
p30
aS'00874940307fa.jpg'
p31
aS'01000960627fa.jpg'
p32
aS'sunayaepykrqvenaqqy.jpg'
p33
aS'01005960627fa.jpg'
p34
aS'00812941205fa.jpg'
p35
aS'00138931230fa.jpg'
p36
aS'00120931230fa.jpg'
p37
aS'00783941205fa.jpg'
p38
aS'00727941205fa.jpg'
p39
aS'sunagpancjmxqfazssf.jpg'
p40
aS'sunadpnqovzckyikrjo.jpg'
p41
aS'00947960627fa.jpg'
p42
asS'ratings'
p43
(lp44
(lp45
(NF0.0
tp46
a(I2
F1.662
tp47
aa(lp48
(NF0.0
tp49
a(I3
F1.272
tp50
aa(lp51
(NF0.0
tp52
a(I2
F1.493
tp53
aa(lp54
(NF0.0
tp55
a(I3
F1.358
tp56
aa(lp57
(NF0.0
tp58
a(I2
F1.342
tp59
aa(lp60
(NF0.0
tp61
a(I3
F1.309
tp62
aa(lp63
(NF0.0
tp64
a(I2
F1.956
tp65
aa(lp66
(NF0.0
tp67
a(I1
F1.643
tp68
aa(lp69
(NF0.0
tp70
a(I2
F1.472
tp71
aa(lp72
(NF0.0
tp73
a(I1
F1.759
tp74
aa(lp75
(NF0.0
tp76
a(I3
F1.607
tp77
aa(lp78
(NF0.0
tp79
a(I1
F1.61
tp80
aa(lp81
(NF0.0
tp82
a(I3
F1.623
tp83
aa(lp84
(NF0.0
tp85
a(I1
F1.74
tp86
aa(lp87
(NF0.0
tp88
a(I2
F1.925
tp89
aa(lp90
(NF0.0
tp91
a(I2
F1.979
tp92
aa(lp93
(NF0.0
tp94
a(I3
F1.775
tp95
aa(lp96
(NF0.0
tp97
a(I3
F1.227
tp98
aa(lp99
(NF0.0
tp100
a(I4
F1.593
tp101
aa(lp102
(NF0.0
tp103
a(I2
F1.709
tp104
aa(lp105
(NF0.0
tp106
a(I1
F1.325
tp107
aa(lp108
(NF0.0
tp109
a(I1
F1.532
tp110
aa(lp111
(NF0.0
tp112
a(I2
F1.442
tp113
aa(lp114
(NF0.0
tp115
a(I1
F1.525
tp116
aa(lp117
(NF0.0
tp118
a(I1
F1.743
tp119
aa(lp120
(NF0.0
tp121
a(I2
F1.108
tp122
aa(lp123
(NF0.0
tp124
a(I3
F1.657
tp125
aa(lp126
(NF0.0
tp127
a(I2
F1.142
tp128
aa(lp129
(NF0.0
tp130
a(I3
F1.525
tp131
aa(lp132
(NF0.0
tp133
a(I1
F1.525
tp134
aa(lp135
(NF0.0
tp136
a(I2
F1.594
tp137
aa(lp138
(NF0.0
tp139
a(I3
F1.275
tp140
aa(lp141
(NF0.0
tp142
a(I1
F1.942
tp143
aa(lp144
(NF0.0
tp145
a(I2
F1.623
tp146
aa(lp147
(NF0.0
tp148
a(I1
F1.283
tp149
aa(lp150
(NF0.0
tp151
a(I2
F1.643
tp152
aa(lp153
(NF0.0
tp154
a(I1
F1.721
tp155
aa(lp156
(NF0.0
tp157
aa(lp158
(NF0.0
tp159
a(I2
F0.892
tp160
aa(lp161
(NF0.0
tp162
a(I1
F1.692
tp163
aasS'run_time'
p164
F123.22630214691162
sS'total_iters'
p165
(lp166
I0
aI1
aI2
aI3
aI4
aI5
aI6
aI7
aI8
aI9
aI10
aI11
aI12
aI13
aI14
aI15
aI16
aI17
aI18
aI19
aI20
aI21
aI22
aI23
aI24
aI25
aI26
aI27
aI28
aI29
aI30
aI31
aI32
aI33
aI34
aI35
aI36
aI37
aI38
aI39
as.