(dp0
S'images'
p1
(lp2
S'00630941031fa.jpg'
p3
aS'sunakgbnzxmfohgehnu.jpg'
p4
aS'00761960627fa.jpg'
p5
aS'00483940519fa.jpg'
p6
aS'00705960530fa.jpg'
p7
aS'sunbxarcshsnqsefemx.jpg'
p8
aS'00878960530fa.jpg'
p9
aS'sunafvsxtzaizojicxx.jpg'
p10
aS'sunadikxpvqeabxrvvc.jpg'
p11
aS'00576941031fa.jpg'
p12
aS'00787941205fa.jpg'
p13
aS'sunajoveqhiprwqgoco.jpg'
p14
aS'sunaduslxfzlbxlllnz.jpg'
p15
aS'sunadakkdovnuzlycvp.jpg'
p16
aS'00859940307fa.jpg'
p17
aS'00796941205fa.jpg'
p18
aS'sunaakxgygjfqrzpyoz.jpg'
p19
aS'sunaijsqpvodplbwxkf.jpg'
p20
aS'00081941031fa.jpg'
p21
aS'00750941201fa.jpg'
p22
aS'00793941205fa.jpg'
p23
aS'sunaccdtpgenvcbcbcf.jpg'
p24
aS'sunaaelotvjgibjtjhs.jpg'
p25
aS'sunagtjwilqjvxohypn.jpg'
p26
aS'sunaajpqmulidejvjsr.jpg'
p27
aS'sunaaftlyfudyzuhqzf.jpg'
p28
aS'00093931230fa.jpg'
p29
aS'sunabyvpwkgsjtijdwj.jpg'
p30
aS'sunaydywdmvlfddbxbk.jpg'
p31
aS'sunadfktsqjthoglcsm.jpg'
p32
aS'sunahctntqrunhdxhtb.jpg'
p33
aS'sunaavchcbptaerhcfy.jpg'
p34
aS'00763941205fa.jpg'
p35
aS'sunabbwggenhfbftyvi.jpg'
p36
aS'sunaekgzpfilgjxpeyq.jpg'
p37
aS'00197940128fa.jpg'
p38
aS'00909960530.jpg'
p39
aS'sunadflbrkckmepztql.jpg'
p40
aS'sunbxzweleltykebgan.jpg'
p41
aS'00638941031fa.jpg'
p42
asS'ratings'
p43
(lp44
(lp45
(NF0.0
tp46
a(I3
F1.381
tp47
aa(lp48
(NF0.0
tp49
a(I2
F1.226
tp50
aa(lp51
(NF0.0
tp52
a(I2
F1.325
tp53
aa(lp54
(NF0.0
tp55
a(I2
F1.575
tp56
aa(lp57
(NF0.0
tp58
a(I2
F1.192
tp59
aa(lp60
(NF0.0
tp61
a(I1
F1.161
tp62
aa(lp63
(NF0.0
tp64
a(I3
F1.072
tp65
aa(lp66
(NF0.0
tp67
a(I1
F1.243
tp68
aa(lp69
(NF0.0
tp70
a(I2
F1.209
tp71
aa(lp72
(NF0.0
tp73
a(I2
F1.759
tp74
aa(lp75
(NF0.0
tp76
a(I3
F1.192
tp77
aa(lp78
(NF0.0
tp79
a(I1
F1.03
tp80
aa(lp81
(NF0.0
tp82
a(I1
F1.1
tp83
aa(lp84
(NF0.0
tp85
a(I1
F1.446
tp86
aa(lp87
(NF0.0
tp88
a(I4
F1.259
tp89
aa(lp90
(NF0.0
tp91
a(I2
F1.223
tp92
aa(lp93
(NF0.0
tp94
a(I1
F1.355
tp95
aa(lp96
(NF0.0
tp97
a(I2
F1.305
tp98
aa(lp99
(NF0.0
tp100
a(I2
F1.464
tp101
aa(lp102
(NF0.0
tp103
a(I3
F0.91
tp104
aa(lp105
(NF0.0
tp106
a(I2
F1.375
tp107
aa(lp108
(NF0.0
tp109
a(I1
F0.937
tp110
aa(lp111
(NF0.0
tp112
a(I1
F1.568
tp113
aa(lp114
(NF0.0
tp115
a(I1
F0.922
tp116
aa(lp117
(NF0.0
tp118
a(I1
F0.674
tp119
aa(lp120
(NF0.0
tp121
a(I1
F0.741
tp122
aa(lp123
(NF0.0
tp124
a(I2
F1.094
tp125
aa(lp126
(NF0.0
tp127
a(I1
F1.44
tp128
aa(lp129
(NF0.0
tp130
a(I2
F1.089
tp131
aa(lp132
(NF0.0
tp133
a(I1
F1.744
tp134
aa(lp135
(NF0.0
tp136
a(I1
F0.788
tp137
aa(lp138
(NF0.0
tp139
a(I2
F1.157
tp140
aa(lp141
(NF0.0
tp142
a(I3
F1.573
tp143
aa(lp144
(NF0.0
tp145
a(I1
F1.392
tp146
aa(lp147
(NF0.0
tp148
a(I1
F1.786
tp149
aa(lp150
(NF0.0
tp151
a(I3
F1.439
tp152
aa(lp153
(NF0.0
tp154
a(I2
F1.125
tp155
aa(lp156
(NF0.0
tp157
a(I1
F1.073
tp158
aa(lp159
(NF0.0
tp160
a(I1
F1.345
tp161
aa(lp162
(NF0.0
tp163
a(I2
F1.154
tp164
aasS'run_time'
p165
F123.10946106910706
sS'total_iters'
p166
(lp167
I0
aI1
aI2
aI3
aI4
aI5
aI6
aI7
aI8
aI9
aI10
aI11
aI12
aI13
aI14
aI15
aI16
aI17
aI18
aI19
aI20
aI21
aI22
aI23
aI24
aI25
aI26
aI27
aI28
aI29
aI30
aI31
aI32
aI33
aI34
aI35
aI36
aI37
aI38
aI39
as.