(lp0
S'A little engaging'
p1
aS'A little tired'
p2
accopy_reg
_reconstructor
p3
(cfuture.types.newstr
newstr
p4
c__builtin__
unicode
p5
Vscenes were easier to remember due to higher contrast/easier ability to focus on
p6
tp7
Rp8
ag3
(g4
g5
Vpotentially left side but seemed like more trials for that side
p9
tp10
Rp11
ag3
(g4
g5
Vin later trials would think of a summary word for each landscape but hard to stick to strategy due to speed
p12
tp13
Rp14
a.