(dp0
S'cue_tuples'
p1
(lp2
(S'cue_L'
p3
S'L'
p4
I0
tp5
a(g3
g4
I0
tp6
a(g3
g4
I0
tp7
a(g3
g4
I0
tp8
a(g3
g4
I0
tp9
a(g3
g4
I0
tp10
a(g3
g4
I0
tp11
a(g3
g4
I0
tp12
a(g3
g4
I0
tp13
a(g3
g4
I0
tp14
asS'uncued'
p15
(lp16
S'26433387.thl_sunarfdklgdnjgeqfjg.jpg'
p17
aS'26374767.thl_sunadnjjzohjhbohlwq.jpg'
p18
aS'26427983.thl_sunalntxqqadigcletd.jpg'
p19
aS'26374135.thl_sunadbhmrgrrpyzglxs.jpg'
p20
aS'22883664.thl_sunaavchcbptaerhcfy.jpg'
p21
aS'23070064.thl_sunabxmguapjekttvwm.jpg'
p22
aS'26427612.thl_sunaknlirqjqiwbbeeg.jpg'
p23
aS'22848828.thl_sunaajqmsaavkmgbsth.jpg'
p24
aS'22849260.thl_sunaajspcoepticvplv.jpg'
p25
aS'26428057.thl_sunalqmfgeadpqsyzpd.jpg'
p26
asS'cued'
p27
(lp28
S'26427910.thl_sunaletopenvvozhpxc.jpg'
p29
aS'26375702.thl_sunadtlxenqqxsyjvix.jpg'
p30
aS'26427609.thl_sunakmnfgklupjijsgf.jpg'
p31
aS'23019499.thl_sunabllobxadqcyttej.jpg'
p32
aS'26387690.thl_sunafpfpiiujzoesnqg.jpg'
p33
aS'26433942.thl_sunasnqkkyhilqkxiqm.jpg'
p34
aS'26384871.thl_sunafgdqbclkwfocdhg.jpg'
p35
aS'26440756.thl_sunbdycacjfaujxitbw.jpg'
p36
aS'23063814.thl_sunabwjvmoaddlyxfjr.jpg'
p37
aS'26423905.thl_sunaiozxhxgtfrmoagh.jpg'
p38
asS'uncued_RT'
p39
(lp40
sS'cued_RT'
p41
(lp42
F0.3708159923553467
aF0.47929883003234863
aF0.3662419319152832
aF0.3059399127960205
aF0.31379103660583496
aF0.32065391540527344
aF0.301224946975708
aF0.3157820701599121
aF0.29083800315856934
aF0.28337812423706055
as.