(dp0
S'cue_tuples'
p1
(lp2
(S'cue_R'
p3
S'F'
p4
I0
tp5
a(g3
g4
I0
tp6
a(g3
g4
I0
tp7
a(g3
g4
I0
tp8
a(g3
g4
I0
tp9
a(g3
g4
I0
tp10
a(g3
g4
I0
tp11
a(g3
g4
I0
tp12
a(g3
g4
I1
tp13
a(g3
g4
I0
tp14
asS'uncued'
p15
(lp16
S'26425370.thl_sunajjxttslobudoqbv.jpg'
p17
aS'26421575.thl_sunahbvlpavurqoxdeq.jpg'
p18
aS'26374055.thl_sunadakkdovnuzlycvp.jpg'
p19
aS'26421357.thl_sunagutjvdvnhxejerz.jpg'
p20
aS'26370445.thl_sunacerqowiaeoqkmsq.jpg'
p21
aS'22855536.thl_sunaalltyvjhbzhkmvg.jpg'
p22
aS'26431395.thl_sunaooffzffbhcpirmm.jpg'
p23
aS'22856172.thl_sunaamdjwemxpmmtypi.jpg'
p24
aS'26440629.thl_sunbddbivbptlrlauhy.jpg'
p25
aS'23077768.thl_sunabyvpwkgsjtijdwj.jpg'
p26
asS'cued'
p27
(lp28
S'26431848.thl_sunapqkyghktgtosuuk.jpg'
p29
aS'26373735.thl_sunacypmnujalygkunp.jpg'
p30
aS'22857516.thl_sunaanlwnpqndclffxt.jpg'
p31
aS'26428041.thl_sunaloffvbvysigxent.jpg'
p32
aS'26432217.thl_sunapwjkcxdaeqehfql.jpg'
p33
aS'26432760.thl_sunaqsolmfydodnakub.jpg'
p34
aS'23014831.thl_sunabjzyxcjnmztdonj.jpg'
p35
aS'26375896.thl_sunaduslxfzlbxlllnz.jpg'
p36
aS'26439504.thl_sunbaoizrfijvhpnnjn.jpg'
p37
aS'26425573.thl_sunajoveqhiprwqgoco.jpg'
p38
asS'uncued_RT'
p39
(lp40
F0.38109588623046875
asS'cued_RT'
p41
(lp42
F0.343019962310791
aF0.3158869743347168
aF0.2656259536743164
aF0.3223841190338135
aF0.29778099060058594
aF0.27167510986328125
aF0.3053269386291504
aF0.2251110076904297
aF0.3047358989715576
as.