(dp0
S'images'
p1
(lp2
S'sunabrjdpmoedcdjbpo.jpg'
p3
aS'sunavhxgmgrqsaptynb.jpg'
p4
aS'26372237.thl.jpg'
p5
aS'sunaedtgwjvvziytspa.jpg'
p6
aS'sunabmbnddafmywtjjj.jpg'
p7
aS'26431414.thl.jpg'
p8
aS'26427950.thl.jpg'
p9
aS'sunaapllqyqlykszopd.jpg'
p10
aS'22849284.thl.jpg'
p11
aS'sunaecpkgfewqqreqwe.jpg'
p12
aS'26378986.thl.jpg'
p13
aS'sunagtqhhwxjeuxdebe.jpg'
p14
aS'23029830.thl.jpg'
p15
aS'22875816.thl.jpg'
p16
aS'sunammbnoambmhdxdwd.jpg'
p17
aS'sunacsaovnjezqwbykf.jpg'
p18
aS'26433849.thl.jpg'
p19
aS'26428576.thl.jpg'
p20
aS'26426417.thl.jpg'
p21
aS'26428753.thl.jpg'
p22
aS'26419025.thl.jpg'
p23
aS'26443034.thl.jpg'
p24
aS'26431471.thl.jpg'
p25
aS'sunagvjurcwdbixvnyi.jpg'
p26
aS'sunajtrfunvzdfticna.jpg'
p27
aS'26373195.thl.jpg'
p28
aS'sunabgfhvifeijihhjw.jpg'
p29
aS'sunaiwduelojtwaqeyh.jpg'
p30
aS'sunbwtlihsuptkrckid.jpg'
p31
aS'sunadcphrizvfpljiqt.jpg'
p32
aS'23051010.thl.jpg'
p33
aS'sunawotxrevnqvamsfp.jpg'
p34
aS'26437074.thl.jpg'
p35
aS'22908308.thl.jpg'
p36
aS'sunaivflshbyfrfzhqb.jpg'
p37
aS'sunaeoghzrjarigmwua.jpg'
p38
aS'26456480.thl.jpg'
p39
aS'23014927.thl.jpg'
p40
aS'sunagpancjmxqfazssf.jpg'
p41
aS'sunacjkmnpawfzbyvae.jpg'
p42
asS'ratings'
p43
(lp44
(lp45
(NF0.0
tp46
a(I4
F1.377
tp47
aa(lp48
(NF0.0
tp49
a(I4
F1.028
tp50
aa(lp51
(NF0.0
tp52
a(I2
F1.015
tp53
aa(lp54
(NF0.0
tp55
a(I3
F0.962
tp56
aa(lp57
(NF0.0
tp58
a(I3
F0.98
tp59
aa(lp60
(NF0.0
tp61
a(I2
F0.935
tp62
aa(lp63
(NF0.0
tp64
a(I4
F0.913
tp65
aa(lp66
(NF0.0
tp67
a(I3
F1.484
tp68
aa(lp69
(NF0.0
tp70
a(I3
F1.163
tp71
aa(lp72
(NF0.0
tp73
a(I3
F1.13
tp74
aa(lp75
(NF0.0
tp76
a(I2
F0.879
tp77
aa(lp78
(NF0.0
tp79
a(I4
F0.696
tp80
aa(lp81
(NF0.0
tp82
a(I2
F1.197
tp83
aa(lp84
(NF0.0
tp85
a(I3
F1.181
tp86
aa(lp87
(NF0.0
tp88
a(I4
F0.911
tp89
aa(lp90
(NF0.0
tp91
a(I4
F0.797
tp92
aa(lp93
(NF0.0
tp94
a(I3
F0.929
tp95
aa(lp96
(NF0.0
tp97
a(I2
F1.282
tp98
aa(lp99
(NF0.0
tp100
a(I1
F0.829
tp101
aa(lp102
(NF0.0
tp103
a(I2
F0.947
tp104
aa(lp105
(NF0.0
tp106
a(I3
F1.479
tp107
aa(lp108
(NF0.0
tp109
a(I1
F0.93
tp110
aa(lp111
(NF0.0
tp112
a(I1
F1.631
tp113
aa(lp114
(NF0.0
tp115
a(I4
F0.861
tp116
aa(lp117
(NF0.0
tp118
a(I4
F1.263
tp119
aa(lp120
(NF0.0
tp121
a(I4
F1.614
tp122
aa(lp123
(NF0.0
tp124
a(I2
F1.146
tp125
aa(lp126
(NF0.0
tp127
a(I3
F1.096
tp128
aa(lp129
(NF0.0
tp130
a(I2
F1.527
tp131
aa(lp132
(NF0.0
tp133
a(I3
F1.213
tp134
aa(lp135
(NF0.0
tp136
a(I4
F1.213
tp137
aa(lp138
(NF0.0
tp139
a(I4
F1.331
tp140
aa(lp141
(NF0.0
tp142
a(I1
F1.211
tp143
aa(lp144
(NF0.0
tp145
a(I3
F1.121
tp146
aa(lp147
(NF0.0
tp148
a(I4
F0.845
tp149
aa(lp150
(NF0.0
tp151
a(I3
F1.03
tp152
aa(lp153
(NF0.0
tp154
a(I4
F0.961
tp155
aa(lp156
(NF0.0
tp157
a(I1
F0.789
tp158
aa(lp159
(NF0.0
tp160
a(I3
F0.885
tp161
aa(lp162
(NF0.0
tp163
a(I4
F0.995
tp164
aasS'run_time'
p165
F122.45910501480103
sS'total_iters'
p166
(lp167
I0
aI1
aI2
aI3
aI4
aI5
aI6
aI7
aI8
aI9
aI10
aI11
aI12
aI13
aI14
aI15
aI16
aI17
aI18
aI19
aI20
aI21
aI22
aI23
aI24
aI25
aI26
aI27
aI28
aI29
aI30
aI31
aI32
aI33
aI34
aI35
aI36
aI37
aI38
aI39
as.