(dp0
S'cue_tuples'
p1
(lp2
(S'cue_R'
p3
S'L'
p4
I0
tp5
a(g3
g4
I0
tp6
a(g3
g4
I0
tp7
a(g3
g4
I1
tp8
a(g3
g4
I0
tp9
a(g3
g4
I0
tp10
a(g3
g4
I0
tp11
a(g3
g4
I0
tp12
a(g3
g4
I0
tp13
a(g3
g4
I0
tp14
asS'uncued'
p15
(lp16
S'26384637.thl_sunaffgsyyvoqdlkmnk.jpg'
p17
aS'26370704.thl_sunacjnahdmqfnjfwqx.jpg'
p18
aS'26455183.thl_sunbvbrvgbpanfrawft.jpg'
p19
aS'26425323.thl_sunajbwkywmsqkldfml.jpg'
p20
aS'26451168.thl_sunbpflsdaxnddnwcqi.jpg'
p21
aS'26374713.thl_sunadikxpvqeabxrvvc.jpg'
p22
aS'26391173.thl_sunagcthdfirrcawoic.jpg'
p23
aS'26387641.thl_sunafowswglhxcsufpo.jpg'
p24
aS'22826448.thl_sunaaheqzstzxuadglu.jpg'
p25
aS'23048010.thl_sunabtlfmiwtljmoues.jpg'
p26
asS'cued'
p27
(lp28
S'22875384.thl_sunaauhozyxzeeqstxi.jpg'
p29
aS'26439898.thl_sunbasypfgzjtomktmu.jpg'
p30
aS'26431205.thl_sunaooaqzputrowwbsw.jpg'
p31
aS'26370659.thm_sunachtuarilwyqnvjx.jpg'
p32
aS'26428682.thl_sunanainkqdvktzoxyl.jpg'
p33
aS'26423812.thl_sunaijsqpvodplbwxkf.jpg'
p34
aS'26461413.thl_sunbwyuesflwdpqtgoy.jpg'
p35
aS'26432755.thl_sunaqgjuuwvdcyiccjt.jpg'
p36
aS'26422507.thl_sunahiphsekjihkafsl.jpg'
p37
aS'22911908.thl_sunabanoxjtqxamkucc.jpg'
p38
asS'uncued_RT'
p39
(lp40
F0.2626190185546875
asS'cued_RT'
p41
(lp42
F0.28548383712768555
aF0.28411197662353516
aF0.24492096900939941
aF0.3754448890686035
aF0.36397695541381836
aF0.30488014221191406
aF0.3686051368713379
aF0.31749486923217773
aF0.26142382621765137
as.