(dp0
S'images'
p1
(lp2
S'26374713.thl.jpg'
p3
aS'26387641.thl.jpg'
p4
aS'sunacjnahdmqfnjfwqx.jpg'
p5
aS'26392651.thl.jpg'
p6
aS'sunagcthdfirrcawoic.jpg'
p7
aS'sunaptrqvaooxfvktvw.jpg'
p8
aS'sunabanoxjtqxamkucc.jpg'
p9
aS'sunaijsqpvodplbwxkf.jpg'
p10
aS'26391173.thl.jpg'
p11
aS'sunacbeefkxpymwevpk.jpg'
p12
aS'26384637.thl.jpg'
p13
aS'sunbasypfgzjtomktmu.jpg'
p14
aS'26374803.thl.jpg'
p15
aS'26425322.thl.jpg'
p16
aS'sunbvbrvgbpanfrawft.jpg'
p17
aS'sunadpnqovzckyikrjo.jpg'
p18
aS'26422507.thl.jpg'
p19
aS'26431753.thl.jpg'
p20
aS'26465344.thl.jpg'
p21
aS'26441176.thl.jpg'
p22
aS'26428682.thl.jpg'
p23
aS'26370651.thm.jpg'
p24
aS'sunaqgjuuwvdcyiccjt.jpg'
p25
aS'22911908.thl.jpg'
p26
aS'sunabizydfotqddlnjp.jpg'
p27
aS'sunajbwkywmsqkldfml.jpg'
p28
aS'sunaekgzpfilgjxpeyq.jpg'
p29
aS'sunaddtdkycxbqlpfqa.jpg'
p30
aS'sunadikxpvqeabxrvvc.jpg'
p31
aS'sunaazzyhbvqjpmazjq.jpg'
p32
aS'26420956.thl.jpg'
p33
aS'23048010.thl.jpg'
p34
aS'sunadkazmlajmohnwfl.jpg'
p35
aS'22870356.thl.jpg'
p36
aS'26423812.thl.jpg'
p37
aS'26439898.thl.jpg'
p38
aS'sunacvjlsylseoghjup.jpg'
p39
aS'sunainqelldeebvxtcz.jpg'
p40
aS'sunbwyuesflwdpqtgoy.jpg'
p41
aS'22857084.thl.jpg'
p42
asS'ratings'
p43
(lp44
(lp45
(NF0.0
tp46
a(I1
F1.034
tp47
aa(lp48
(NF0.0
tp49
a(I2
F0.929
tp50
aa(lp51
(NF0.0
tp52
a(I4
F0.904
tp53
aa(lp54
(NF0.0
tp55
a(I3
F0.914
tp56
aa(lp57
(NF0.0
tp58
a(I3
F0.895
tp59
aa(lp60
(NF0.0
tp61
a(I2
F1.1
tp62
aa(lp63
(NF0.0
tp64
a(I2
F1.227
tp65
aa(lp66
(NF0.0
tp67
a(I4
F0.895
tp68
aa(lp69
(NF0.0
tp70
a(I2
F1.047
tp71
aa(lp72
(NF0.0
tp73
a(I3
F0.88
tp74
aa(lp75
(NF0.0
tp76
a(I1
F1.061
tp77
aa(lp78
(NF0.0
tp79
a(I4
F0.914
tp80
aa(lp81
(NF0.0
tp82
a(I2
F1.147
tp83
aa(lp84
(NF0.0
tp85
a(I3
F1.164
tp86
aa(lp87
(NF0.0
tp88
a(I4
F0.796
tp89
aa(lp90
(NF0.0
tp91
a(I3
F0.945
tp92
aa(lp93
(NF0.0
tp94
a(I4
F0.797
tp95
aa(lp96
(NF0.0
tp97
a(I2
F1.03
tp98
aa(lp99
(NF0.0
tp100
a(I3
F1.048
tp101
aa(lp102
(NF0.0
tp103
a(I1
F1.247
tp104
aa(lp105
(NF0.0
tp106
a(I2
F1.06
tp107
aa(lp108
(NF0.0
tp109
a(I3
F1.186
tp110
aa(lp111
(NF0.0
tp112
a(I3
F1.197
tp113
aa(lp114
(NF0.0
tp115
a(I3
F1.347
tp116
aa(lp117
(NF0.0
tp118
a(I4
F1.195
tp119
aa(lp120
(NF0.0
tp121
a(I3
F1.045
tp122
aa(lp123
(NF0.0
tp124
a(I4
F0.963
tp125
aa(lp126
(NF0.0
tp127
a(I3
F0.945
tp128
aa(lp129
(NF0.0
tp130
a(I2
F1.18
tp131
aa(lp132
(NF0.0
tp133
a(I3
F1.147
tp134
aa(lp135
(NF0.0
tp136
a(I3
F1.096
tp137
aa(lp138
(NF0.0
tp139
a(I4
F0.746
tp140
aa(lp141
(NF0.0
tp142
a(I4
F0.879
tp143
aa(lp144
(NF0.0
tp145
a(I1
F0.83
tp146
aa(lp147
(NF0.0
tp148
a(I2
F1.13
tp149
aa(lp150
(NF0.0
tp151
a(I2
F1.33
tp152
aa(lp153
(NF0.0
tp154
a(I2
F1.663
tp155
aa(lp156
(NF0.0
tp157
a(I3
F0.809
tp158
aa(lp159
(NF0.0
tp160
a(I3
F1.362
tp161
aa(lp162
(NF0.0
tp163
a(I1
F1.18
tp164
aasS'run_time'
p165
F122.22621393203735
sS'total_iters'
p166
(lp167
I0
aI1
aI2
aI3
aI4
aI5
aI6
aI7
aI8
aI9
aI10
aI11
aI12
aI13
aI14
aI15
aI16
aI17
aI18
aI19
aI20
aI21
aI22
aI23
aI24
aI25
aI26
aI27
aI28
aI29
aI30
aI31
aI32
aI33
aI34
aI35
aI36
aI37
aI38
aI39
as.