(dp0
S'images'
p1
(lp2
S'sunagsiwrmuixqgdimb.jpg'
p3
aS'sunadvithllcgmfxsrn.jpg'
p4
aS'sunahgtbwgsmtqeodwh.jpg'
p5
aS'22869852.thl.jpg'
p6
aS'26372785.thl.jpg'
p7
aS'sunacxtcahkymosigud.jpg'
p8
aS'26420893.thl.jpg'
p9
aS'sunabaergayifsgacxt.jpg'
p10
aS'sunaqbmgkgqucajzrkp.jpg'
p11
aS'26375611.thl.jpg'
p12
aS'23026459.thl.jpg'
p13
aS'sunawksfbacycuhbrsc.jpg'
p14
aS'22852032.thl.jpg'
p15
aS'26464872.thl.jpg'
p16
aS'sunabxsbfwjccqxxzxq.jpg'
p17
aS'23044458.thl.jpg'
p18
aS'26420830.thl.jpg'
p19
aS'sunajrujcsdxmfbssmc.jpg'
p20
aS'sunbwdrdvsweerwsdrj.jpg'
p21
aS'26420979.thl.jpg'
p22
aS'sunarceibpcyacbmfga.jpg'
p23
aS'26373844.thl.jpg'
p24
aS'26423303.thl.jpg'
p25
aS'sunapmfmzadmosuogaz.jpg'
p26
aS'sunahqrxievfeusiqlt.jpg'
p27
aS'26432148.thl.jpg'
p28
aS'26426317.thl.jpg'
p29
aS'sunbesrwkdsffeogeqq.jpg'
p30
aS'26377183.thl.jpg'
p31
aS'22896812.thl.jpg'
p32
aS'sunacacflqoyxhsqzhe.jpg'
p33
aS'sunaguchqqnrtodtezq.jpg'
p34
aS'26421070.thl.jpg'
p35
aS'sunacdnquypmsshhsbk.jpg'
p36
aS'sunabqowuarvqqcnipn.jpg'
p37
aS'sunadbdqzigzwipuipr.jpg'
p38
aS'sunaccdtpgenvcbcbcf.jpg'
p39
aS'26373362.thl.jpg'
p40
aS'26377777.thl.jpg'
p41
aS'26419231.thl.jpg'
p42
asS'ratings'
p43
(lp44
(lp45
(NF0.0
tp46
a(I3
F1.305
tp47
aa(lp48
(NF0.0
tp49
a(I2
F0.963
tp50
aa(lp51
(NF0.0
tp52
a(I4
F0.879
tp53
aa(lp54
(NF0.0
tp55
a(I2
F1.147
tp56
aa(lp57
(NF0.0
tp58
a(I2
F1.114
tp59
aa(lp60
(NF0.0
tp61
a(I3
F0.929
tp62
aa(lp63
(NF0.0
tp64
a(I1
F1.13
tp65
aa(lp66
(NF0.0
tp67
a(I3
F1.248
tp68
aa(lp69
(NF0.0
tp70
a(I2
F1.162
tp71
aa(lp72
(NF0.0
tp73
a(I3
F1.065
tp74
aa(lp75
(NF0.0
tp76
a(I3
F1.246
tp77
aa(lp78
(NF0.0
tp79
a(I4
F0.796
tp80
aa(lp81
(NF0.0
tp82
a(I1
F1.113
tp83
aa(lp84
(NF0.0
tp85
a(I4
F0.846
tp86
aa(lp87
(NF0.0
tp88
a(I3
F0.978
tp89
aa(lp90
(NF0.0
tp91
a(I4
F0.911
tp92
aa(lp93
(NF0.0
tp94
a(I2
F1.68
tp95
aa(lp96
(NF0.0
tp97
a(I3
F1.279
tp98
aa(lp99
(NF0.0
tp100
a(I4
F1.246
tp101
aa(lp102
(NF0.0
tp103
a(I3
F1.207
tp104
aa(lp105
(NF0.0
tp106
a(I4
F1.134
tp107
aa(lp108
(NF0.0
tp109
a(I2
F0.998
tp110
aa(lp111
(NF0.0
tp112
a(I3
F1.26
tp113
aa(lp114
(NF0.0
tp115
a(I3
F0.939
tp116
aa(lp117
(NF0.0
tp118
a(I3
F1.235
tp119
aa(lp120
(NF0.0
tp121
a(I3
F1.082
tp122
aa(lp123
(NF0.0
tp124
a(I2
F0.976
tp125
aa(lp126
(NF0.0
tp127
a(I3
F1.088
tp128
aa(lp129
(NF0.0
tp130
a(I3
F1.184
tp131
aa(lp132
(NF0.0
tp133
a(I2
F0.946
tp134
aa(lp135
(NF0.0
tp136
a(I3
F0.909
tp137
aa(lp138
(NF0.0
tp139
a(I3
F0.772
tp140
aa(lp141
(NF0.0
tp142
a(I3
F1.185
tp143
aa(lp144
(NF0.0
tp145
a(I3
F1.062
tp146
aa(lp147
(NF0.0
tp148
a(I2
F1.324
tp149
aa(lp150
(NF0.0
tp151
a(I2
F1.237
tp152
aa(lp153
(NF0.0
tp154
a(I2
F1.516
tp155
aa(lp156
(NF0.0
tp157
a(I1
F0.963
tp158
aa(lp159
(NF0.0
tp160
a(I4
F1.508
tp161
aa(lp162
(NF0.0
tp163
a(I3
F1.088
tp164
aasS'run_time'
p165
F122.60940909385681
sS'total_iters'
p166
(lp167
I0
aI1
aI2
aI3
aI4
aI5
aI6
aI7
aI8
aI9
aI10
aI11
aI12
aI13
aI14
aI15
aI16
aI17
aI18
aI19
aI20
aI21
aI22
aI23
aI24
aI25
aI26
aI27
aI28
aI29
aI30
aI31
aI32
aI33
aI34
aI35
aI36
aI37
aI38
aI39
as.