(dp0
S'cue_tuples'
p1
(lp2
(S'cue_L'
p3
S'F'
p4
I0
tp5
a(g3
g4
I1
tp6
a(g3
g4
I0
tp7
a(g3
g4
I0
tp8
a(g3
g4
I0
tp9
a(g3
g4
I0
tp10
a(g3
g4
I0
tp11
a(g3
g4
I0
tp12
a(g3
g4
I0
tp13
a(g3
g4
I1
tp14
asS'uncued'
p15
(lp16
S'26374798.thl_sunadoxcchtmsxewsau.jpg'
p17
aS'26428540.thl_sunamkmeblgteyggink.jpg'
p18
aS'26437080.thl_sunayaepykrqvenaqqy.jpg'
p19
aS'26379161.thl_sunaetydippjxikifsb.jpg'
p20
aS'26379054.thl_sunaeouogqolxvggaoq.jpg'
p21
aS'26434297.thl_sunatstrpjxhvtbaczf.jpg'
p22
aS'26461587.thl_sunbxarcshsnqsefemx.jpg'
p23
aS'26425112.thl_sunaizgnnplsvajzhkc.jpg'
p24
aS'26423465.thl_sunahtfxgsrmkiulnwk.jpg'
p25
aS'26372404.thl_sunacsdhbbsybcyxnel.jpg'
p26
asS'cued'
p27
(lp28
S'26374346.thl_sunadfktsqjthoglcsm.jpg'
p29
aS'22855236.thl_sunaalcrrdbjgdztbiz.jpg'
p30
aS'26428593.thl_sunanaacmmosxrfwmvl.jpg'
p31
aS'26425788.thl_sunajrgtewnualfcerj.jpg'
p32
aS'22903568.thl_sunaaxjpzcnxligjtjq.jpg'
p33
aS'26463767.thl_sunbxzweleltykebgan.jpg'
p34
aS'26434250.thl_sunathzzbcwjykldrem.jpg'
p35
aS'26374158.thl_sunaddsaeicthrfbkhe.jpg'
p36
aS'26423175.thl_sunahpblecxtmuzkmxb.jpg'
p37
aS'26393373.thl_sunagjeesomrwjsfqie.jpg'
p38
asS'uncued_RT'
p39
(lp40
F0.315654993057251
aF0.4534878730773926
asS'cued_RT'
p41
(lp42
F0.2255840301513672
aF0.2974731922149658
aF0.35301804542541504
aF0.253903865814209
aF0.27149486541748047
aF0.2721569538116455
aF0.38079309463500977
aF0.3688318729400635
as.