(dp0
S'images'
p1
(lp2
S'149.jpg'
p3
aS'147.jpg'
p4
aS'204.jpg'
p5
aS'203.jpg'
p6
aS'47.jpg'
p7
aS'119.jpg'
p8
aS'12.jpg'
p9
aS'326.jpg'
p10
aS'10.jpg'
p11
aS'324.jpg'
p12
aS'272.jpg'
p13
aS'258.jpg'
p14
aS'281.jpg'
p15
aS'121.jpg'
p16
aS'214.jpg'
p17
aS'341.jpg'
p18
asS'ratings'
p19
(lp20
(lp21
(NF0.0
tp22
a(I1
F0.901
tp23
aa(lp24
(NF0.0
tp25
a(I4
F0.744
tp26
aa(lp27
(NF0.0
tp28
a(I3
F0.526
tp29
aa(lp30
(NF0.0
tp31
a(I4
F0.566
tp32
aa(lp33
(NF0.0
tp34
a(I2
F0.54
tp35
aa(lp36
(NF0.0
tp37
a(I4
F0.426
tp38
aa(lp39
(NF0.0
tp40
a(I1
F0.409
tp41
aa(lp42
(NF0.0
tp43
a(I1
F0.592
tp44
aa(lp45
(NF0.0
tp46
a(I3
F0.457
tp47
aa(lp48
(NF0.0
tp49
a(I1
F0.572
tp50
aa(lp51
(NF0.0
tp52
a(I2
F0.459
tp53
aa(lp54
(NF0.0
tp55
a(I2
F0.409
tp56
aa(lp57
(NF0.0
tp58
a(I4
F0.458
tp59
aa(lp60
(NF0.0
tp61
a(I2
F0.292
tp62
aa(lp63
(NF0.0
tp64
a(I3
F0.192
tp65
aa(lp66
(NF0.0
tp67
a(I4
F0.493
tp68
aasS'run_time'
p69
F48.6769380569458
sS'total_iters'
p70
(lp71
I0
aI1
aI2
aI3
aI4
aI5
aI6
aI7
aI8
aI9
aI10
aI11
aI12
aI13
aI14
aI15
as.