(lp0
S'A little boring'
p1
aS'Very tired'
p2
accopy_reg
_reconstructor
p3
(cfuture.types.newstr
newstr
p4
c__builtin__
unicode
p5
Vno
p6
tp7
Rp8
ag3
(g4
g5
VRight side, because it's my dominant side. 
p9
tp10
Rp11
ag3
(g4
g5
VI couldn't really remember the images. 
p12
tp13
Rp14
a.