(dp0
S'cued'
p1
(lp2
S'3536036852_a5a711a220.jpg'
p3
aS'2847440383_e35afa4bd3.jpg'
p4
aS'House_241.jpg'
p5
aS'348272697_832ce65324.jpg'
p6
aS'House_039.jpg'
p7
aS'191460774_d659ff88e1.jpg'
p8
aS'House_054.jpg'
p9
aS'317274405_c46c161614.jpg'
p10
aS'House_064.jpg'
p11
aS'House_014.jpg'
p12
asS'uncued'
p13
(lp14
S'House_029.jpg'
p15
aS'House_060.jpg'
p16
aS'3118376245_381fbf831a.jpg'
p17
aS'House_013.jpg'
p18
aS'1630369294_d570412b5d.jpg'
p19
aS'House_207.jpg'
p20
aS'julien_closeup.jpg'
p21
aS'House_282.jpg'
p22
aS'345726721_2b5d09f1ca.jpg'
p23
aS'316259418_f617f42325.jpg'
p24
asS'uncued_RT'
p25
(lp26
F0.6350700855255127
aF0.6163129806518555
aF0.6084048748016357
aF0.5028181076049805
aF0.5156409740447998
asS'cued_RT'
p27
(lp28
F0.7316370010375977
aF0.7012088298797607
aF0.6498820781707764
aF0.59446120262146
aF0.4700131416320801
as.