(dp0
S'images'
p1
(lp2
S'3536036852_a5a711a220.jpg'
p3
aS'191460774_d659ff88e1.jpg'
p4
aS'House_277.jpg'
p5
aS'2847440383_e35afa4bd3.jpg'
p6
aS'348272697_832ce65324.jpg'
p7
aS'317274405_c46c161614.jpg'
p8
aS'House_014.jpg'
p9
aS'House_064.jpg'
p10
aS'2145272885_cb9af8a66a.jpg'
p11
aS'House_241.jpg'
p12
asS'ratings'
p13
(lp14
(lp15
(NF0.0
tp16
a(I1
F0.731
tp17
a(I1
F1.011
tp18
aa(lp19
(NF0.0
tp20
a(I3
F0.002
tp21
a(I3
F1.014
tp22
aa(lp23
(NF0.0
tp24
a(I1
F1.001
tp25
a(I1
F1.013
tp26
aa(lp27
(NF0.0
tp28
a(I1
F0.536
tp29
a(I1
F1.013
tp30
aa(lp31
(NF0.0
tp32
a(I1
F0.435
tp33
a(I1
F1.014
tp34
aa(lp35
(NF0.0
tp36
a(I1
F0.268
tp37
a(I1
F1.012
tp38
aa(lp39
(NF0.0
tp40
a(I2
F0.302
tp41
a(I2
F1.013
tp42
aa(lp43
(NF0.0
tp44
a(I3
F0.517
tp45
a(I3
F1.013
tp46
aa(lp47
(NF0.0
tp48
a(I4
F0.37
tp49
a(I4
F1.015
tp50
aa(lp51
(NF0.0
tp52
a(I3
F0.318
tp53
a(I3
F1.013
tp54
aas.