(dp0
S'cue_tuples'
p1
(lp2
(S'cue_R'
p3
S'L'
p4
I0
tp5
a(g3
g4
I0
tp6
a(g3
g4
I0
tp7
a(g3
g4
I0
tp8
a(g3
g4
I0
tp9
a(g3
g4
I0
tp10
a(g3
g4
I0
tp11
a(g3
g4
I0
tp12
a(g3
g4
I1
tp13
a(g3
g4
I0
tp14
asS'uncued'
p15
(lp16
S'00191940128fb_sunaawsdjisukbbginm.jpg'
p17
aS'00719941201fa_sunadvithllcgmfxsrn.jpg'
p18
aS'00529940519fa_sunacbeefkxpymwevpk.jpg'
p19
aS'00982960627fa_sunbesrwkdsffeogeqq.jpg'
p20
aS'00919960620fa_sunapmfmzadmosuogaz.jpg'
p21
aS'00095931230fa_sunaahzooisqkwlxwoz.jpg'
p22
aS'00111931230fb_sunaakgekhjklxmvulj.jpg'
p23
aS'00263940128fb_sunabjuovqvyfuzvqwt.jpg'
p24
aS'00835940307fa_sunaijsqpvodplbwxkf.jpg'
p25
aS'00790941205fa_sunagpjzsbltchlwvou.jpg'
p26
asS'cued'
p27
(lp28
S'00754941201fa_sunaffgsyyvoqdlkmnk.jpg'
p29
aS'00193940928fa_sunaaxjpzcnxligjtjq.jpg'
p30
aS'00198940128fb_sunaazezcsunmhttzxz.jpg'
p31
aS'00782941205fa_sunagfvluwixdsozaql.jpg'
p32
aS'00972960627fa_sunbbfqwjpdxniyhies.jpg'
p33
aS'00245940128fa_sunabeyhmxodahoieyk.jpg'
p34
aS'00505960627fa_sunabzuqsrgcsonqlkz.jpg'
p35
aS'00809960620fa_sunahbvlpavurqoxdeq.jpg'
p36
aS'00265940128fb_sunabkmdplkdbvxriff.jpg'
p37
aS'00784941205fb_sunagjzcrjvmxzqzljx.jpg'
p38
asS'uncued_RT'
p39
(lp40
F0.5136690139770508
asS'cued_RT'
p41
(lp42
F1.0539569854736328
aF0.7169301509857178
aF0.7377429008483887
aF0.6107621192932129
aF0.6021511554718018
aF0.6057980060577393
aF0.6617047786712646
aF0.6089060306549072
aF0.4804861545562744
as.