(lp0
S'Neutral'
p1
aS'A little tired'
p2
accopy_reg
_reconstructor
p3
(cfuture.types.newstr
newstr
p4
c__builtin__
unicode
p5
Vlandscapes werre much easier to recall. I think ebcuase they were more distinct in differences 
p6
tp7
Rp8
ag3
(g4
g5
Vno 
p9
tp10
Rp11
ag3
(g4
g5
Vtried whispering to myaelf a key feature 
p12
tp13
Rp14
a.