(lp0
S'Very boring'
p1
aS'Neutral'
p2
accopy_reg
_reconstructor
p3
(cfuture.types.newstr
newstr
p4
c__builtin__
unicode
p5
VPlaces, can guess based on light/dark portions of photo
p6
tp7
Rp8
ag3
(g4
g5
VNo
p9
tp10
Rp11
ag3
(g4
g5
VFaces- gave them a descriptive nickname (eg. old man, fat lady), Location- remembering general shapes and portion of light/dark in each image
p12
tp13
Rp14
a.