(lp0
S'Neutral'
p1
aS'A little tired'
p2
accopy_reg
_reconstructor
p3
(cfuture.types.newstr
newstr
p4
c__builtin__
unicode
p5
VFaces, easier to focus on
p6
tp7
Rp8
ag3
(g4
g5
V
p9
tp10
Rp11
aS''
p12
a.