(lp0
ccopy_reg
_reconstructor
p1
(cfuture.types.newstr
newstr
p2
c__builtin__
unicode
p3
V18
p4
tp5
Rp6
aS'Male'
p7
aS'No'
p8
aI01
aI00
aI00
aI00
aI00
aI00
aI00
aS'some college'
p9
ag8
aS'Yes'
p10
ag8
aS''
p11
ag1
(g2
g3
V7
p12
tp13
Rp14
ag1
(g2
g3
V0
p15
tp16
Rp17
aS'A little slugglish'
p18
a.