(lp0
S'A little boring'
p1
aS'A little tired'
p2
accopy_reg
_reconstructor
p3
(cfuture.types.newstr
newstr
p4
c__builtin__
unicode
p5
Vdefinitely the scenery, it varied more
p6
tp7
Rp8
ag3
(g4
g5
Vthe scenery was easier to attend to, it was more different
p9
tp10
Rp11
ag3
(g4
g5
Vtried to remember head/hair shape and skin tone, or used markers like beards
p12
tp13
Rp14
a.