(lp0
S'A little boring'
p1
aS'A little tired'
p2
accopy_reg
_reconstructor
p3
(cfuture.types.newstr
newstr
p4
c__builtin__
unicode
p5
VLandscape for sure, because differences were easier to notice than between faces
p6
tp7
Rp8
ag3
(g4
g5
VNo
p9
tp10
Rp11
ag3
(g4
g5
VAs the study progressed i tried to formulate what the image may look like in my mind even after it had disappeared. I tried to fill in details
p12
tp13
Rp14
a.