(dp0
S'cued_RT'
p1
(lp2
sS'cued'
p3
(lp4
S'293_119.jpg'
p5
aS'194_110.jpg'
p6
asS'run_time'
p7
F9.36282205581665
sS'cue_tuples'
p8
(lp9
(S'cue_L'
p10
S'F'
p11
I1
tp12
a(g10
g11
I1
tp13
a(g10
S'L'
p14
I1
tp15
a(g10
g14
I1
tp16
a(S'cue_R'
p17
g11
I1
tp18
a(g17
g11
I1
tp19
a(g17
g14
I1
tp20
a(g17
g14
I1
tp21
asS'uncued'
p22
(lp23
S'223_137.jpg'
p24
aS'297_122.jpg'
p25
asS'uncued_RT'
p26
(lp27
F0.44413113594055176
aF0.6645820140838623
as.