(lp0
S'Neutral'
p1
aS'A little tired'
p2
accopy_reg
_reconstructor
p3
(cfuture.types.newstr
newstr
p4
c__builtin__
unicode
p5
VI foumd it easier to remember the landscapes necause I thought they were more different from each other - all the faces seemed to look the same to me
p6
tp7
Rp8
ag3
(g4
g5
Vno
p9
tp10
Rp11
ag3
(g4
g5
VI tried to remember if photos were mostly light or dark.
p12
tp13
Rp14
a.