(lp0
S'Neutral'
p1
aS'A little tired'
p2
accopy_reg
_reconstructor
p3
(cfuture.types.newstr
newstr
p4
c__builtin__
unicode
p5
Vthe landscapes were much easier than the faces
p6
tp7
Rp8
ag3
(g4
g5
Vthe left side was easier
p9
tp10
Rp11
ag3
(g4
g5
Vhair, but faces were really hard to tell
p12
tp13
Rp14
a.