(lp0
S'Very engaging'
p1
aS'A little alert'
p2
accopy_reg
_reconstructor
p3
(cfuture.types.newstr
newstr
p4
c__builtin__
unicode
p5
Vthe background was easier, less distinct features to mkae out.
p6
tp7
Rp8
ag3
(g4
g5
Vthe right side was easier to me, im guessing because I am right side-dominant.
p9
tp10
Rp11
ag3
(g4
g5
Vi would maybe try to open the left/or right eye wider.
p12
tp13
Rp14
a.