(lp0
S'Neutral'
p1
aS'Very tired'
p2
accopy_reg
_reconstructor
p3
(cfuture.types.newstr
newstr
p4
c__builtin__
unicode
p5
Vthe scene because it had more distinct characteristics
p6
tp7
Rp8
ag3
(g4
g5
VI don't think so
p9
tp10
Rp11
ag3
(g4
g5
VI would try to pick out one distinct thing I saw in the corner of my eye and repeated it in my head
p12
tp13
Rp14
a.