(dp0
S'cue_tuples'
p1
(lp2
(S'cue_L'
p3
S'F'
p4
I0
tp5
a(g3
g4
I0
tp6
a(g3
g4
I0
tp7
a(g3
g4
I0
tp8
a(g3
g4
I0
tp9
a(g3
g4
I0
tp10
a(g3
g4
I0
tp11
a(g3
g4
I0
tp12
a(g3
g4
I0
tp13
a(g3
g4
I0
tp14
asS'uncued'
p15
(lp16
S'26379612.thl_sunaeuzwggvibufclwf.jpg'
p17
aS'26432175.thl_sunaptrqvaooxfvktvw.jpg'
p18
aS'26427950.thl_sunalkiibhqpxfamlll.jpg'
p19
aS'26375641.thl_sunadsgmtznewzyasnk.jpg'
p20
aS'26461413.thl_sunbwyuesflwdpqtgoy.jpg'
p21
aS'26432607.thl_sunaqbmgkgqucajzrkp.jpg'
p22
aS'23060574.thl_sunabwfvcqqidycwypa.jpg'
p23
aS'26440073.thl_sunbbgtoeuzierkkajt.jpg'
p24
aS'22875384.thl_sunaauhozyxzeeqstxi.jpg'
p25
aS'23026459.thl_sunabppokiyglaxpcha.jpg'
p26
asS'cued'
p27
(lp28
S'26432755.thl_sunaqgjuuwvdcyiccjt.jpg'
p29
aS'26427111.thl_sunakgbnzxmfohgehnu.jpg'
p30
aS'23007415.thl_sunabjuovqvyfuzvqwt.jpg'
p31
aS'22920212.thl_sunabbafjowbzcvbucc.jpg'
p32
aS'22991767.thl_sunabizydfotqddlnjp.jpg'
p33
aS'26369944.thl_sunaccdtpgenvcbcbcf.jpg'
p34
aS'26428540.thl_sunamkmeblgteyggink.jpg'
p35
aS'26424087.thl_sunaisiwfgppimtnmxl.jpg'
p36
aS'22887480.thl_sunaavtbadenwnzeutj.jpg'
p37
aS'22923524.thl_sunabclssnoeuigtawp.jpg'
p38
asS'uncued_RT'
p39
(lp40
sS'cued_RT'
p41
(lp42
F0.6578981876373291
aF0.5476539134979248
aF0.6021850109100342
aF0.6769280433654785
aF0.5739009380340576
aF0.410642147064209
aF0.5086140632629395
aF0.42890405654907227
aF0.4788651466369629
aF0.2465510368347168
as.