(dp0
S'images'
p1
(lp2
S'sunaccdtpgenvcbcbcf.jpg'
p3
aS'26425788.thl.jpg'
p4
aS'sunaisiwfgppimtnmxl.jpg'
p5
aS'sunbasypfgzjtomktmu.jpg'
p6
aS'sunaavtbadenwnzeutj.jpg'
p7
aS'26432175.thl.jpg'
p8
aS'26427111.thl.jpg'
p9
aS'sunalkiibhqpxfamlll.jpg'
p10
aS'sunbwyuesflwdpqtgoy.jpg'
p11
aS'sunaauhozyxzeeqstxi.jpg'
p12
aS'sunagcinxkccdtrjmlv.jpg'
p13
aS'sunawksfbacycuhbrsc.jpg'
p14
aS'sunabclssnoeuigtawp.jpg'
p15
aS'26423296.thl.jpg'
p16
aS'22923524.thl.jpg'
p17
aS'26387690.thl.jpg'
p18
aS'22910936.thl.jpg'
p19
aS'26375641.thl.jpg'
p20
aS'sunabbwggenhfbftyvi.jpg'
p21
aS'sunagvjurcwdbixvnyi.jpg'
p22
aS'26428540.thl.jpg'
p23
aS'26427612.thl.jpg'
p24
aS'sunapmfmzadmosuogaz.jpg'
p25
aS'sunagountlxpzkytsmp.jpg'
p26
aS'26432607.thl.jpg'
p27
aS'26386846.thl.jpg'
p28
aS'sunaecpkgfewqqreqwe.jpg'
p29
aS'23026459.thl.jpg'
p30
aS'26379612.thl.jpg'
p31
aS'26437074.thl.jpg'
p32
aS'sunaeuzwggvibufclwf.jpg'
p33
aS'22907432.thl.jpg'
p34
aS'23007415.thl.jpg'
p35
aS'26441750.thl.jpg'
p36
aS'sunbdycacjfaujxitbw.jpg'
p37
aS'22887480.thl.jpg'
p38
aS'sunaqgjuuwvdcyiccjt.jpg'
p39
aS'sunadsgmtznewzyasnk.jpg'
p40
aS'22908308.thl.jpg'
p41
aS'sunbaejotfklekvpxcz.jpg'
p42
asS'ratings'
p43
(lp44
(lp45
(NF0.0
tp46
aa(lp47
(NF0.0
tp48
a(I1
F0.959
tp49
aa(lp50
(NF0.0
tp51
a(I3
F0.999
tp52
aa(lp53
(NF0.0
tp54
a(I4
F1.212
tp55
aa(lp56
(NF0.0
tp57
a(I2
F1.131
tp58
aa(lp59
(NF0.0
tp60
a(I4
F1.113
tp61
aa(lp62
(NF0.0
tp63
a(I1
F1.331
tp64
aa(lp65
(NF0.0
tp66
a(I2
F1.346
tp67
aa(lp68
(NF0.0
tp69
a(I2
F1.51
tp70
aa(lp71
(NF0.0
tp72
a(I4
F1.059
tp73
aa(lp74
(NF0.0
tp75
a(I2
F1.381
tp76
aa(lp77
(NF0.0
tp78
a(I3
F1.112
tp79
aa(lp80
(NF0.0
tp81
a(I1
F1.246
tp82
aa(lp83
(NF0.0
tp84
a(I2
F1.24
tp85
aa(lp86
(NF0.0
tp87
a(I3
F1.362
tp88
aa(lp89
(NF0.0
tp90
a(I4
F0.81
tp91
aa(lp92
(NF0.0
tp93
a(I1
F1.246
tp94
aa(lp95
(NF0.0
tp96
a(I4
F0.789
tp97
aa(lp98
(NF0.0
tp99
a(I1
F1.113
tp100
aa(lp101
(NF0.0
tp102
a(I3
F1.328
tp103
aa(lp104
(NF0.0
tp105
a(I3
F1.291
tp106
aa(lp107
(NF0.0
tp108
a(I2
F1.019
tp109
aa(lp110
(NF0.0
tp111
a(I1
F0.982
tp112
aa(lp113
(NF0.0
tp114
a(I1
F1.262
tp115
aa(lp116
(NF0.0
tp117
a(I4
F0.876
tp118
aa(lp119
(NF0.0
tp120
a(I2
F1.137
tp121
aa(lp122
(NF0.0
tp123
a(I2
F1.181
tp124
aa(lp125
(NF0.0
tp126
a(I1
F1.709
tp127
aa(lp128
(NF0.0
tp129
a(I2
F1.781
tp130
aa(lp131
(NF0.0
tp132
a(I3
F0.919
tp133
aa(lp134
(NF0.0
tp135
a(I3
F1.099
tp136
aa(lp137
(NF0.0
tp138
a(I3
F1.361
tp139
aa(lp140
(NF0.0
tp141
a(I4
F1.106
tp142
aa(lp143
(NF0.0
tp144
a(I1
F0.988
tp145
aa(lp146
(NF0.0
tp147
a(I1
F1.046
tp148
aa(lp149
(NF0.0
tp150
a(I2
F1.209
tp151
aa(lp152
(NF0.0
tp153
a(I1
F1.156
tp154
aa(lp155
(NF0.0
tp156
a(I2
F1.351
tp157
aa(lp158
(NF0.0
tp159
a(I1
F1.264
tp160
aa(lp161
(NF0.0
tp162
aasS'run_time'
p163
F122.80982208251953
sS'total_iters'
p164
(lp165
I0
aI1
aI2
aI3
aI4
aI5
aI6
aI7
aI8
aI9
aI10
aI11
aI12
aI13
aI14
aI15
aI16
aI17
aI18
aI19
aI20
aI21
aI22
aI23
aI24
aI25
aI26
aI27
aI28
aI29
aI30
aI31
aI32
aI33
aI34
aI35
aI36
aI37
aI38
aI39
as.