(dp0
S'cue_tuples'
p1
(lp2
(S'cue_R'
p3
S'L'
p4
I0
tp5
a(g3
g4
I0
tp6
a(g3
g4
I0
tp7
a(g3
g4
I0
tp8
a(g3
g4
I0
tp9
a(g3
g4
I0
tp10
a(g3
g4
I0
tp11
a(g3
g4
I0
tp12
a(g3
g4
I0
tp13
a(g3
g4
I0
tp14
asS'uncued'
p15
(lp16
S'26374803.thl_sunadpnqovzckyikrjo.jpg'
p17
aS'26424440.thl_sunaivflshbyfrfzhqb.jpg'
p18
aS'26418207.thl_sunaglqunwuycxydmyu.jpg'
p19
aS'26377183.thl_sunaeisnjeetzmkbuad.jpg'
p20
aS'26374146.thl_sunadcphrizvfpljiqt.jpg'
p21
aS'26432217.thl_sunapwjkcxdaeqehfql.jpg'
p22
aS'26428682.thl_sunanainkqdvktzoxyl.jpg'
p23
aS'22855404.thl_sunaalhlvzmjmitybdn.jpg'
p24
aS'22849284.thl_sunaajtnvzzpsjdzres.jpg'
p25
aS'23044458.thl_sunabrwnslxalcohfre.jpg'
p26
asS'cued'
p27
(lp28
S'26434250.thl_sunathzzbcwjykldrem.jpg'
p29
aS'26421572.thl_sunahawfngukizslzsd.jpg'
p30
aS'26392651.thl_sunagfvluwixdsozaql.jpg'
p31
aS'22849260.thl_sunaajspcoepticvplv.jpg'
p32
aS'26378596.thl_sunaenwuebvlpdmntju.jpg'
p33
aS'26437107.thl_sunaydywdmvlfddbxbk.jpg'
p34
aS'26425573.thl_sunajoveqhiprwqgoco.jpg'
p35
aS'26372237.thl_sunacmpqqfbsvlzinzl.jpg'
p36
aS'26455183.thl_sunbvbrvgbpanfrawft.jpg'
p37
aS'26465344.thl_sundahdxwmcdluscvot.jpg'
p38
asS'uncued_RT'
p39
(lp40
sS'cued_RT'
p41
(lp42
F0.7348520755767822
aF0.3656737804412842
aF0.4903750419616699
aF0.36231088638305664
aF0.2959170341491699
aF0.3998141288757324
aF0.24269795417785645
aF0.4622678756713867
aF0.2789599895477295
aF0.4237051010131836
as.