(dp0
S'cue_tuples'
p1
(lp2
(S'cue_R'
p3
S'F'
p4
I0
tp5
a(g3
g4
I0
tp6
a(g3
g4
I0
tp7
a(g3
g4
I0
tp8
a(g3
g4
I1
tp9
a(g3
g4
I0
tp10
a(g3
g4
I0
tp11
a(g3
g4
I0
tp12
a(g3
g4
I0
tp13
a(g3
g4
I0
tp14
asS'uncued'
p15
(lp16
S'22854888.thl_sunaakxjfbrrequcjmx.jpg'
p17
aS'22826748.thl_sunaahwnmtqsrhocysw.jpg'
p18
aS'26370681.thl_sunacjkmnpawfzbyvae.jpg'
p19
aS'26420956.thl_sunagtqhhwxjeuxdebe.jpg'
p20
aS'26427910.thl_sunaletopenvvozhpxc.jpg'
p21
aS'23070748.thl_sunabxsbfwjccqxxzxq.jpg'
p22
aS'22887144.thl_sunaavodbcpygkggnfp.jpg'
p23
aS'26425370.thl_sunajjxttslobudoqbv.jpg'
p24
aS'26439297.thl_sunbagfpovqwbuexqdn.jpg'
p25
aS'22869912.thl_sunaatpkocdkocwxpkb.jpg'
p26
asS'cued'
p27
(lp28
S'26423175.thl_sunahpblecxtmuzkmxb.jpg'
p29
aS'26433849.thl_sunasmmcxdddtmtazwx.jpg'
p30
aS'26374713.thl_sunadikxpvqeabxrvvc.jpg'
p31
aS'23024623.thl_sunabmbnddafmywtjjj.jpg'
p32
aS'22911500.thl_sunabaergayifsgacxt.jpg'
p33
aS'26451168.thl_sunbpflsdaxnddnwcqi.jpg'
p34
aS'22857084.thl_sunaangbuylfvckqqoo.jpg'
p35
aS'26426803.thl_sunajxpkuhbizeveguy.jpg'
p36
aS'23016343.thl_sunablfqiwfqomjarht.jpg'
p37
aS'26377631.thl_sunaekgzpfilgjxpeyq.jpg'
p38
asS'uncued_RT'
p39
(lp40
F0.46851205825805664
asS'cued_RT'
p41
(lp42
F0.7945630550384521
aF0.46256494522094727
aF0.4131138324737549
aF0.3917849063873291
aF0.5573341846466064
aF0.3955039978027344
aF0.4469139575958252
aF0.29677295684814453
aF0.2553369998931885
as.