(dp0
S'images'
p1
(lp2
S'sunarfdklgdnjgeqfjg.jpg'
p3
aS'sunahuynahneraqftyz.jpg'
p4
aS'sunafvwfsmqkjrutjta.jpg'
p5
aS'sunapqkyghktgtosuuk.jpg'
p6
aS'sunaakxgygjfqrzpyoz.jpg'
p7
aS'26442719.thl.jpg'
p8
aS'26429123.thl.jpg'
p9
aS'26433387.thl.jpg'
p10
aS'sunaapfaivxqoynnwwp.jpg'
p11
aS'26424443.thl.jpg'
p12
aS'26419025.thl.jpg'
p13
aS'sunammbnoambmhdxdwd.jpg'
p14
aS'26378986.thl.jpg'
p15
aS'26423477.thl.jpg'
p16
aS'sunamczizlzavhzhpay.jpg'
p17
aS'26390325.thl.jpg'
p18
aS'23016235.thl.jpg'
p19
aS'sunabcuurugvxwparpk.jpg'
p20
aS'26374346.thl.jpg'
p21
aS'sunasbbntuiheekqyaq.jpg'
p22
aS'26423873.thl.jpg'
p23
aS'26383637.thl.jpg'
p24
aS'sunadfndyrtqqiasoig.jpg'
p25
aS'22852560.thl.jpg'
p26
aS'26439913.thl.jpg'
p27
aS'sunadkazmlajmohnwfl.jpg'
p28
aS'26431734.thl.jpg'
p29
aS'26375982.thl.jpg'
p30
aS'sunaavchcbptaerhcfy.jpg'
p31
aS'sunbwdrdvsweerwsdrj.jpg'
p32
aS'sunafijbgncijwykrnl.jpg'
p33
aS'26384554.thl.jpg'
p34
aS'22853544.thl.jpg'
p35
aS'sunagpancjmxqfazssf.jpg'
p36
aS'26375899.thl.jpg'
p37
aS'sunaiwduelojtwaqeyh.jpg'
p38
aS'sunacxeheuiigkcgquf.jpg'
p39
aS'26428576.thl.jpg'
p40
aS'sunanaacmmosxrfwmvl.jpg'
p41
aS'sunanwjjyqqwzqrqagd.jpg'
p42
asS'ratings'
p43
(lp44
(lp45
(NF0.0
tp46
a(I1
F1.445
tp47
aa(lp48
(NF0.0
tp49
a(I3
F1.229
tp50
aa(lp51
(NF0.0
tp52
a(I2
F1.482
tp53
aa(lp54
(NF0.0
tp55
a(I4
F1.397
tp56
aa(lp57
(NF0.0
tp58
a(I2
F1.317
tp59
aa(lp60
(NF0.0
tp61
a(I2
F1.667
tp62
aa(lp63
(NF0.0
tp64
a(I2
F1.481
tp65
aa(lp66
(NF0.0
tp67
a(I2
F1.53
tp68
aa(lp69
(NF0.0
tp70
a(I2
F1.345
tp71
aa(lp72
(NF0.0
tp73
a(I2
F1.848
tp74
aa(lp75
(NF0.0
tp76
a(I4
F0.848
tp77
aa(lp78
(NF0.0
tp79
a(I3
F1.264
tp80
aa(lp81
(NF0.0
tp82
a(I1
F1.063
tp83
aa(lp84
(NF0.0
tp85
a(I4
F0.763
tp86
aa(lp87
(NF0.0
tp88
a(I2
F1.196
tp89
aa(lp90
(NF0.0
tp91
a(I3
F1.031
tp92
aa(lp93
(NF0.0
tp94
a(I4
F0.697
tp95
aa(lp96
(NF0.0
tp97
a(I1
F1.047
tp98
aa(lp99
(NF0.0
tp100
a(I2
F0.963
tp101
aa(lp102
(NF0.0
tp103
a(I2
F1.296
tp104
aa(lp105
(NF0.0
tp106
a(I4
F1.048
tp107
aa(lp108
(NF0.0
tp109
a(I1
F1.447
tp110
aa(lp111
(NF0.0
tp112
a(I1
F1.195
tp113
aa(lp114
(NF0.0
tp115
a(I1
F1.083
tp116
aa(lp117
(NF0.0
tp118
a(I1
F1.152
tp119
aa(lp120
(NF0.0
tp121
a(I2
F0.896
tp122
aa(lp123
(NF0.0
tp124
a(I2
F0.78
tp125
aa(lp126
(NF0.0
tp127
a(I2
F1.213
tp128
aa(lp129
(NF0.0
tp130
a(I3
F1.28
tp131
aa(lp132
(NF0.0
tp133
a(I1
F1.763
tp134
aa(lp135
(NF0.0
tp136
a(I1
F1.28
tp137
aa(lp138
(NF0.0
tp139
a(I1
F1.312
tp140
aa(lp141
(NF0.0
tp142
a(I2
F1.163
tp143
aa(lp144
(NF0.0
tp145
a(I1
F1.331
tp146
aa(lp147
(NF0.0
tp148
a(I2
F1.247
tp149
aa(lp150
(NF0.0
tp151
a(I2
F1.596
tp152
aa(lp153
(NF0.0
tp154
a(I1
F1.513
tp155
aa(lp156
(NF0.0
tp157
a(I3
F1.279
tp158
aa(lp159
(NF0.0
tp160
a(I2
F1.898
tp161
aa(lp162
(NF0.0
tp163
a(I2
F1.096
tp164
aasS'run_time'
p165
F122.15927577018738
sS'total_iters'
p166
(lp167
I0
aI1
aI2
aI3
aI4
aI5
aI6
aI7
aI8
aI9
aI10
aI11
aI12
aI13
aI14
aI15
aI16
aI17
aI18
aI19
aI20
aI21
aI22
aI23
aI24
aI25
aI26
aI27
aI28
aI29
aI30
aI31
aI32
aI33
aI34
aI35
aI36
aI37
aI38
aI39
as.