(dp0
S'cue_tuples'
p1
(lp2
(S'cue_L'
p3
S'L'
p4
I0
tp5
a(g3
g4
I0
tp6
a(g3
g4
I0
tp7
a(g3
g4
I0
tp8
a(g3
g4
I0
tp9
a(g3
g4
I0
tp10
a(g3
g4
I0
tp11
a(g3
g4
I0
tp12
a(g3
g4
I0
tp13
a(g3
g4
I0
tp14
asS'uncued'
p15
(lp16
S'26372390.thl_sunacsaovnjezqwbykf.jpg'
p17
aS'26421575.thl_sunahbvlpavurqoxdeq.jpg'
p18
aS'26434546.thl_sunauburywlkjszngcq.jpg'
p19
aS'23041782.thl_sunabrlndkruqokhury.jpg'
p20
aS'22903148.thl_sunaawsdjisukbbginm.jpg'
p21
aS'26369923.thl_sunacbeefkxpymwevpk.jpg'
p22
aS'26421583.thl_sunahctntqrunhdxhtb.jpg'
p23
aS'26429130.thl_sunaobtizabegtwfwul.jpg'
p24
aS'26375702.thl_sunadtlxenqqxsyjvix.jpg'
p25
aS'26440261.thl_sunbbhqyyzmsxhsbjmp.jpg'
p26
asS'cued'
p27
(lp28
S'26420069.thl_sunagrmyoovzukhxmlo.jpg'
p29
aS'26437077.thl_sunawotxrevnqvamsfp.jpg'
p30
aS'26422507.thl_sunahiphsekjihkafsl.jpg'
p31
aS'26419689.thl_sunagpjzsbltchlwvou.jpg'
p32
aS'26451219.thl_sunbprywzqxjcezkbch.jpg'
p33
aS'26421740.thl_sunahedfrhtcwpneund.jpg'
p34
aS'26461587.thl_sunbxarcshsnqsefemx.jpg'
p35
aS'26370651.thm_sunacfdkbsrughwqwtt.jpg'
p36
aS'26424478.thl_sunaiwfobocrruqznsv.jpg'
p37
aS'26423652.thl_sunahwgbqkqcrwprgvh.jpg'
p38
asS'uncued_RT'
p39
(lp40
sS'cued_RT'
p41
(lp42
F0.6609790325164795
aF0.4058191776275635
aF0.4007890224456787
aF0.3324918746948242
aF0.25829410552978516
aF0.3879070281982422
aF0.40847110748291016
aF0.37163400650024414
aF0.40869998931884766
aF0.3398890495300293
as.