(lp0
S'Neutral'
p1
ag1
accopy_reg
_reconstructor
p2
(cfuture.types.newstr
newstr
p3
c__builtin__
unicode
p4
VThe objects because they were more concrete, andn easier to identitfy
p5
tp6
Rp7
ag2
(g3
g4
VI felt the same for both sides
p8
tp9
Rp10
ag2
(g3
g4
VI didn't use any stradegies, just tried to remeber as best I could
p11
tp12
Rp13
a.