(lp0
S'A little engaging'
p1
aS'A little tired'
p2
accopy_reg
_reconstructor
p3
(cfuture.types.newstr
newstr
p4
c__builtin__
unicode
p5
VI thought that the places were easier to remember because of the variety. (When asked to remember the faces, I found myself blending them together in my memory.)
p6
tp7
Rp8
ag3
(g4
g5
VI thought that the right side was easier to attend to. 
p9
tp10
Rp11
ag3
(g4
g5
VI tried to focus on the image as best I could, thinking of key words that could potentially help me remember (i.e. teeth, mustache, beach). 
p12
tp13
Rp14
a.