(dp0
S'images'
p1
(lp2
S'2208543015_c7d1711a1f.jpg'
p3
aS'3536036852_a5a711a220.jpg'
p4
aS'House_042.jpg'
p5
aS'House_016.jpg'
p6
aS'House_054.jpg'
p7
aS'face-profile.jpg'
p8
aS'House_040.jpg'
p9
aS'2847440383_e35afa4bd3.jpg'
p10
aS'House_029.jpg'
p11
aS'469257849_5e75df663d.jpg'
p12
asS'ratings'
p13
(lp14
(lp15
(NF0.0
tp16
a(I4
F0.901
tp17
aa(lp18
(NF0.0
tp19
a(I3
F0.452
tp20
aa(lp21
(NF0.0
tp22
a(NF1.01
tp23
aa(lp24
(NF0.0
tp25
a(NF1.014
tp26
aa(lp27
(NF0.0
tp28
a(I3
F0.003
tp29
a(I2
F0.303
tp30
a(I2
F1.013
tp31
aa(lp32
(NF0.0
tp33
a(I1
F0.699
tp34
aa(lp35
(NF0.0
tp36
a(I4
F0.65
tp37
aa(lp38
(NF0.0
tp39
a(I3
F0.436
tp40
aa(lp41
(NF0.0
tp42
a(I2
F0.271
tp43
a(I3
F0.353
tp44
a(I3
F1.015
tp45
aa(lp46
(NF0.0
tp47
a(I1
F0.335
tp48
a(I2
F0.537
tp49
aas.