(dp0
S'cued'
p1
(lp2
S'House_044.jpg'
p3
aS'House_042.jpg'
p4
aS'348272697_832ce65324.jpg'
p5
aS'House_016.jpg'
p6
aS'494603933_d1ff338bb6.jpg'
p7
aS'House_286.jpg'
p8
aS'House_061.jpg'
p9
aS'House_029.jpg'
p10
aS'House_040.jpg'
p11
aS'House_043.jpg'
p12
asS'uncued'
p13
(lp14
S'nick-stars-exclusive-january-2012-victorious-detention-clip.jpg'
p15
aS'345726721_2b5d09f1ca.jpg'
p16
aS'House_049.jpg'
p17
aS'2842065057_0373500268.jpg'
p18
aS'House_071.jpg'
p19
aS'julien_closeup.jpg'
p20
aS'2847440383_e35afa4bd3.jpg'
p21
aS'2208543015_c7d1711a1f.jpg'
p22
aS'2143602612_535eeba311.jpg'
p23
aS'face-profile.jpg'
p24
asS'uncued_RT'
p25
(lp26
F0.3202500343322754
aF0.6202380657196045
aF0.4371449947357178
aF0.40343189239501953
aF1.3492069244384766
aF0.8375930786132812
aF0.7210571765899658
asS'cued_RT'
p27
(lp28
F2.8503239154815674
aF0.3881549835205078
aF0.3373839855194092
as.