(dp0
S'images'
p1
(lp2
S'00127931230fa.jpg'
p3
aS'00811960530fa.jpg'
p4
aS'00973960627fa.jpg'
p5
aS'00773960620fa.jpg'
p6
aS'sunagwswhkvnsmuszlz.jpg'
p7
aS'sunabwfvcqqidycwypa.jpg'
p8
aS'00211940128fa.jpg'
p9
aS'sunaampvucecsfbdafn.jpg'
p10
aS'00882960530fa.jpg'
p11
aS'00982960627fa.jpg'
p12
aS'sunaaylzyqlqrsmfwif.jpg'
p13
aS'00294940422fb.jpg'
p14
aS'sunaloffvbvysigxent.jpg'
p15
aS'00785941205fa.jpg'
p16
aS'00197940128fa.jpg'
p17
aS'00804960530fa.jpg'
p18
aS'00869940307fa.jpg'
p19
aS'sunaaekxzjzrfgtkwjf.jpg'
p20
aS'00749941201fa.jpg'
p21
aS'sunaangbuylfvckqqoo.jpg'
p22
aS'00893960530Fa.jpg'
p23
aS'sunacsdhbbsybcyxnel.jpg'
p24
aS'00568940928fa.jpg'
p25
aS'sunabctlikybqabezjv.jpg'
p26
aS'sunaazzyhbvqjpmazjq.jpg'
p27
aS'sunaamvxnvouicstkjb.jpg'
p28
aS'sunagtjwilqjvxohypn.jpg'
p29
aS'00805941205fa.jpg'
p30
aS'00847940307fa.jpg'
p31
aS'sunbloeoiozwjjsiamp.jpg'
p32
aS'sunamkmeblgteyggink.jpg'
p33
aS'sunaapxkpvrhpjplsok.jpg'
p34
aS'00210940128fb.jpg'
p35
aS'sunacxeheuiigkcgquf.jpg'
p36
aS'sunabanoxjtqxamkucc.jpg'
p37
aS'sunafowswglhxcsufpo.jpg'
p38
aS'00911960530fa.jpg'
p39
aS'sunaaelyvurpntclgau.jpg'
p40
aS'sunabwmcbaxwioksdgw.jpg'
p41
aS'00111931230fb.jpg'
p42
asS'ratings'
p43
(lp44
(lp45
(NF0.0
tp46
a(I1
F1.447
tp47
aa(lp48
(NF0.0
tp49
a(I2
F1.927
tp50
aa(lp51
(NF0.0
tp52
a(I3
F1.927
tp53
aa(lp54
(NF0.0
tp55
a(I2
F1.77
tp56
aa(lp57
(NF0.0
tp58
aa(lp59
(NF0.0
tp60
a(I4
F0.993
tp61
aa(lp62
(NF0.0
tp63
a(I3
F0.892
tp64
aa(lp65
(NF0.0
tp66
a(I4
F1.082
tp67
aa(lp68
(NF0.0
tp69
a(I2
F1.273
tp70
aa(lp71
(NF0.0
tp72
a(I3
F1.158
tp73
aa(lp74
(NF0.0
tp75
a(I2
F1.515
tp76
aa(lp77
(NF0.0
tp78
a(I1
F1.521
tp79
aa(lp80
(NF0.0
tp81
a(I4
F1.377
tp82
aa(lp83
(NF0.0
tp84
a(I3
F1.041
tp85
aa(lp86
(NF0.0
tp87
a(I2
F0.927
tp88
aa(lp89
(NF0.0
tp90
a(I2
F1.077
tp91
aa(lp92
(NF0.0
tp93
a(I2
F1.141
tp94
aa(lp95
(NF0.0
tp96
a(I1
F1.809
tp97
aa(lp98
(NF0.0
tp99
a(I3
F1.294
tp100
aa(lp101
(NF0.0
tp102
a(I4
F1.009
tp103
aa(lp104
(NF0.0
tp105
a(I3
F0.859
tp106
aa(lp107
(NF0.0
tp108
a(I1
F1.491
tp109
aa(lp110
(NF0.0
tp111
a(I2
F0.84
tp112
aa(lp113
(NF0.0
tp114
a(I2
F1.373
tp115
aa(lp116
(NF0.0
tp117
a(I1
F1.523
tp118
aa(lp119
(NF0.0
tp120
a(I3
F1.592
tp121
aa(lp122
(NF0.0
tp123
a(I4
F1.125
tp124
aa(lp125
(NF0.0
tp126
a(I2
F0.775
tp127
aa(lp128
(NF0.0
tp129
a(I3
F1.009
tp130
aa(lp131
(NF0.0
tp132
aa(lp133
(NF0.0
tp134
a(I3
F0.825
tp135
aa(lp136
(NF0.0
tp137
a(I1
F1.176
tp138
aa(lp139
(NF0.0
tp140
a(I2
F0.792
tp141
aa(lp142
(NF0.0
tp143
a(I1
F1.208
tp144
aa(lp145
(NF0.0
tp146
a(I3
F1.058
tp147
aa(lp148
(NF0.0
tp149
a(I2
F0.826
tp150
aa(lp151
(NF0.0
tp152
a(I2
F0.992
tp153
aa(lp154
(NF0.0
tp155
a(I2
F1.375
tp156
aa(lp157
(NF0.0
tp158
a(I3
F1.443
tp159
aa(lp160
(NF0.0
tp161
a(I2
F0.79
tp162
aasS'run_time'
p163
F122.96045112609863
sS'total_iters'
p164
(lp165
I0
aI1
aI2
aI3
aI4
aI5
aI6
aI7
aI8
aI9
aI10
aI11
aI12
aI13
aI14
aI15
aI16
aI17
aI18
aI19
aI20
aI21
aI22
aI23
aI24
aI25
aI26
aI27
aI28
aI29
aI30
aI31
aI32
aI33
aI34
aI35
aI36
aI37
aI38
aI39
as.