(dp0
S'images'
p1
(lp2
S'00743941201fa.jpg'
p3
aS'sunaqgjuuwvdcyiccjt.jpg'
p4
aS'00864940307fa.jpg'
p5
aS'sunaakgekhjklxmvulj.jpg'
p6
aS'00936960627fa.jpg'
p7
aS'00163931230fb.jpg'
p8
aS'sunaahedjlmtqekgyvj.jpg'
p9
aS'00290940422fa.jpg'
p10
aS'00778941205fa.jpg'
p11
aS'sunadakkdovnuzlycvp.jpg'
p12
aS'sunaaeowapdkwzqpgqr.jpg'
p13
aS'sunaezuszgtxnmsxdbk.jpg'
p14
aS'00926960627Fa.jpg'
p15
aS'sunaavodbcpygkggnfp.jpg'
p16
aS'00557940519fa.jpg'
p17
aS'sunaeoghzrjarigmwua.jpg'
p18
aS'00129931230fb.jpg'
p19
aS'00828940307fa.jpg'
p20
aS'sunagcthdfirrcawoic.jpg'
p21
aS'sunagpancjmxqfazssf.jpg'
p22
aS'00574940928fa.jpg'
p23
aS'00630941031fa.jpg'
p24
aS'sunabeyhmxodahoieyk.jpg'
p25
aS'00648941031fa.jpg'
p26
aS'00770941201fa.jpg'
p27
aS'00751960620fa.jpg'
p28
aS'00970960627fa.jpg'
p29
aS'sunagetqixeypsysbpn.jpg'
p30
aS'sunadochqcucscehsgk.jpg'
p31
aS'sunafxokyavhgptyfye.jpg'
p32
aS'00728941205fa.jpg'
p33
aS'sunahmhrncocyhsjpxk.jpg'
p34
aS'sunaakvmbftkrgqhjun.jpg'
p35
aS'sunaduslxfzlbxlllnz.jpg'
p36
aS'sunaamdjwemxpmmtypi.jpg'
p37
aS'00816941205fa.jpg'
p38
aS'sunadbdqzigzwipuipr.jpg'
p39
aS'00081941031fa.jpg'
p40
aS'sunagoufulkpsxrmklt.jpg'
p41
aS'00906960530fa.jpg'
p42
asS'ratings'
p43
(lp44
(lp45
(NF0.0
tp46
a(I3
F1.546
tp47
aa(lp48
(NF0.0
tp49
a(I2
F1.126
tp50
aa(lp51
(NF0.0
tp52
a(I3
F1.218
tp53
aa(lp54
(NF0.0
tp55
a(I2
F0.948
tp56
aa(lp57
(NF0.0
tp58
a(I2
F1.167
tp59
aa(lp60
(NF0.0
tp61
a(I3
F1.014
tp62
aa(lp63
(NF0.0
tp64
a(I1
F1.334
tp65
aa(lp66
(NF0.0
tp67
a(I2
F0.917
tp68
aa(lp69
(NF0.0
tp70
a(I3
F0.996
tp71
aa(lp72
(NF0.0
tp73
a(I4
F1.994
tp74
aa(lp75
(NF0.0
tp76
a(I3
F1.095
tp77
aa(lp78
(NF0.0
tp79
a(I3
F0.743
tp80
aa(lp81
(NF0.0
tp82
a(I2
F0.73
tp83
aa(lp84
(NF0.0
tp85
a(I4
F0.851
tp86
aa(lp87
(NF0.0
tp88
a(I2
F1.269
tp89
aa(lp90
(NF0.0
tp91
a(I4
F0.943
tp92
aa(lp93
(NF0.0
tp94
a(I3
F1.013
tp95
aa(lp96
(NF0.0
tp97
a(I1
F0.835
tp98
aa(lp99
(NF0.0
tp100
a(I1
F1.024
tp101
aa(lp102
(NF0.0
tp103
a(I1
F1.109
tp104
aa(lp105
(NF0.0
tp106
a(I2
F1.146
tp107
aa(lp108
(NF0.0
tp109
a(I1
F0.955
tp110
aa(lp111
(NF0.0
tp112
a(I1
F1.136
tp113
aa(lp114
(NF0.0
tp115
a(I2
F0.847
tp116
aa(lp117
(NF0.0
tp118
a(I2
F0.887
tp119
aa(lp120
(NF0.0
tp121
a(I2
F0.978
tp122
aa(lp123
(NF0.0
tp124
a(I2
F1.2
tp125
aa(lp126
(NF0.0
tp127
a(I4
F0.783
tp128
aa(lp129
(NF0.0
tp130
a(I3
F0.884
tp131
aa(lp132
(NF0.0
tp133
a(I4
F0.918
tp134
aa(lp135
(NF0.0
tp136
a(I2
F1.216
tp137
aa(lp138
(NF0.0
tp139
a(I3
F0.953
tp140
aa(lp141
(NF0.0
tp142
a(I3
F1.287
tp143
aa(lp144
(NF0.0
tp145
a(I3
F1.37
tp146
aa(lp147
(NF0.0
tp148
a(I2
F0.903
tp149
aa(lp150
(NF0.0
tp151
a(I2
F1.018
tp152
aa(lp153
(NF0.0
tp154
a(I3
F0.91
tp155
aa(lp156
(NF0.0
tp157
a(I2
F1.064
tp158
aa(lp159
(NF0.0
tp160
a(I3
F1.163
tp161
aa(lp162
(NF0.0
tp163
a(I3
F0.842
tp164
aasS'run_time'
p165
F122.8596088886261
sS'total_iters'
p166
(lp167
I0
aI1
aI2
aI3
aI4
aI5
aI6
aI7
aI8
aI9
aI10
aI11
aI12
aI13
aI14
aI15
aI16
aI17
aI18
aI19
aI20
aI21
aI22
aI23
aI24
aI25
aI26
aI27
aI28
aI29
aI30
aI31
aI32
aI33
aI34
aI35
aI36
aI37
aI38
aI39
as.