(lp0
S'Very engaging'
p1
aS'A little tired'
p2
accopy_reg
_reconstructor
p3
(cfuture.types.newstr
newstr
p4
c__builtin__
unicode
p5
Vscenery - it was easier to remeber them by shapes or categories 
p6
tp7
Rp8
ag3
(g4
g5
Vnot neccessarily 
p9
tp10
Rp11
ag3
(g4
g5
Vafter the first couple of rounds I tried to focus more on the shapes or hair length of faces 
p12
tp13
Rp14
a.