(dp0
S'images'
p1
(lp2
S'sunaahzooisqkwlxwoz.jpg'
p3
aS'sunahiphsekjihkafsl.jpg'
p4
aS'sunacvzhvcksnwqcqbw.jpg'
p5
aS'00720960620fa.jpg'
p6
aS'00581940928fa.jpg'
p7
aS'sunahtfxgsrmkiulnwk.jpg'
p8
aS'sunadzuvtmtmgupotmf.jpg'
p9
aS'00815941205fa.jpg'
p10
aS'00123931230fb.jpg'
p11
aS'00797960620fa.jpg'
p12
aS'00884960530fa.jpg'
p13
aS'sunaipyohrqlwngaqif.jpg'
p14
aS'sunawksfbacycuhbrsc.jpg'
p15
aS'00719960620fa.jpg'
p16
aS'00763941205fa.jpg'
p17
aS'00095931230fa.jpg'
p18
aS'00077931230fb.jpg'
p19
aS'sunbxarcshsnqsefemx.jpg'
p20
aS'sunaofikylqtxphvdem.jpg'
p21
aS'sunaafvitpexrpvumsa.jpg'
p22
aS'00839940307fa.jpg'
p23
aS'sunaemcowdozyphwknd.jpg'
p24
aS'sunadnjjzohjhbohlwq.jpg'
p25
aS'00935960627fa.jpg'
p26
aS'00889960530fa.jpg'
p27
aS'sunaizeyhvjzknwjudw.jpg'
p28
aS'sunaanjcbzdvtvblsdy.jpg'
p29
aS'sunaakxjfbrrequcjmx.jpg'
p30
aS'sunaawsdjisukbbginm.jpg'
p31
aS'00775941205fa.jpg'
p32
aS'sunadoxcchtmsxewsau.jpg'
p33
aS'sunagdzlvkqtpnfxfcg.jpg'
p34
aS'00788941205fa.jpg'
p35
aS'sunbaoizrfijvhpnnjn.jpg'
p36
aS'sunarpsxqkduedrrzyi.jpg'
p37
aS'00787960620fa.jpg'
p38
aS'01010960627fa.jpg'
p39
aS'sunaivdjruhkrfywfed.jpg'
p40
aS'sunabzuqsrgcsonqlkz.jpg'
p41
aS'00288940422fa.jpg'
p42
asS'ratings'
p43
(lp44
(lp45
(NF0.0
tp46
a(I2
F1.261
tp47
aa(lp48
(NF0.0
tp49
a(I4
F1.776
tp50
aa(lp51
(NF0.0
tp52
a(I3
F1.026
tp53
aa(lp54
(NF0.0
tp55
a(I2
F1.317
tp56
aa(lp57
(NF0.0
tp58
a(I2
F0.845
tp59
aa(lp60
(NF0.0
tp61
aa(lp62
(NF0.0
tp63
a(I4
F1.041
tp64
aa(lp65
(NF0.0
tp66
a(I3
F0.644
tp67
aa(lp68
(NF0.0
tp69
a(I3
F0.99
tp70
aa(lp71
(NF0.0
tp72
a(I2
F0.848
tp73
aa(lp74
(NF0.0
tp75
a(I3
F1.185
tp76
aa(lp77
(NF0.0
tp78
a(I4
F1.192
tp79
aa(lp80
(NF0.0
tp81
a(I1
F1.243
tp82
aa(lp83
(NF0.0
tp84
a(I2
F1.446
tp85
aa(lp86
(NF0.0
tp87
a(I2
F1.159
tp88
aa(lp89
(NF0.0
tp90
a(I1
F0.8
tp91
aa(lp92
(NF0.0
tp93
a(I1
F1.01
tp94
aa(lp95
(NF0.0
tp96
a(I4
F0.908
tp97
aa(lp98
(NF0.0
tp99
a(I4
F0.909
tp100
aa(lp101
(NF0.0
tp102
a(I3
F1.127
tp103
aa(lp104
(NF0.0
tp105
a(I2
F0.95
tp106
aa(lp107
(NF0.0
tp108
a(I3
F1.359
tp109
aa(lp110
(NF0.0
tp111
a(I3
F1.46
tp112
aa(lp113
(NF0.0
tp114
a(I2
F1.138
tp115
aa(lp116
(NF0.0
tp117
a(I3
F1.051
tp118
aa(lp119
(NF0.0
tp120
a(I4
F1.026
tp121
aa(lp122
(NF0.0
tp123
a(I4
F1.079
tp124
aa(lp125
(NF0.0
tp126
a(I1
F1.23
tp127
aa(lp128
(NF0.0
tp129
a(I2
F1.137
tp130
aa(lp131
(NF0.0
tp132
a(I1
F1.301
tp133
aa(lp134
(NF0.0
tp135
a(I1
F1.092
tp136
aa(lp137
(NF0.0
tp138
a(I2
F0.892
tp139
aa(lp140
(NF0.0
tp141
a(I1
F1.091
tp142
aa(lp143
(NF0.0
tp144
a(I1
F0.893
tp145
aa(lp146
(NF0.0
tp147
a(I3
F1.109
tp148
aa(lp149
(NF0.0
tp150
a(I3
F1.162
tp151
aa(lp152
(NF0.0
tp153
a(I3
F0.892
tp154
aa(lp155
(NF0.0
tp156
a(I2
F0.976
tp157
aa(lp158
(NF0.0
tp159
a(I1
F0.892
tp160
aa(lp161
(NF0.0
tp162
a(I2
F0.996
tp163
aasS'run_time'
p164
F122.87780284881592
sS'total_iters'
p165
(lp166
I0
aI1
aI2
aI3
aI4
aI5
aI6
aI7
aI8
aI9
aI10
aI11
aI12
aI13
aI14
aI15
aI16
aI17
aI18
aI19
aI20
aI21
aI22
aI23
aI24
aI25
aI26
aI27
aI28
aI29
aI30
aI31
aI32
aI33
aI34
aI35
aI36
aI37
aI38
aI39
as.