(dp0
S'images'
p1
(lp2
S'sunbfyvfqiimvdaxlqn.jpg'
p3
aS'sunagmhildamktmqjss.jpg'
p4
aS'sunaozisvwfbmlkfhzv.jpg'
p5
aS'sunadtlxenqqxsyjvix.jpg'
p6
aS'sunajwqkfsykceonyig.jpg'
p7
aS'sunagfvluwixdsozaql.jpg'
p8
aS'00681941121fa.jpg'
p9
aS'sunaalhlvzmjmitybdn.jpg'
p10
aS'00662941121fa.jpg'
p11
aS'00921960627fa.jpg'
p12
aS'00742941201fa.jpg'
p13
aS'00242940128fa.jpg'
p14
aS'sunabjuovqvyfuzvqwt.jpg'
p15
aS'00071941031fa.jpg'
p16
aS'sunaaexqbtdswxrqjvz.jpg'
p17
aS'00919960620fa.jpg'
p18
aS'sunabcuurugvxwparpk.jpg'
p19
aS'sunabmbnddafmywtjjj.jpg'
p20
aS'00782941205fa.jpg'
p21
aS'sunaauueuhhvklldjik.jpg'
p22
aS'00705941205fa.jpg'
p23
aS'00809960620fa.jpg'
p24
aS'sunaenwuebvlpdmntju.jpg'
p25
aS'00564941031fa.jpg'
p26
aS'00147931230fb.jpg'
p27
aS'00834940307fa.jpg'
p28
aS'00271940422fa.jpg'
p29
aS'sunadfndyrtqqiasoig.jpg'
p30
aS'00961960627fa.jpg'
p31
aS'01005960627fa.jpg'
p32
aS'00479940519fa.jpg'
p33
aS'00959960627fa.jpg'
p34
aS'sunavxokzybtomhbmvm.jpg'
p35
aS'sundahdxwmcdluscvot.jpg'
p36
aS'sunaavtbadenwnzeutj.jpg'
p37
aS'00803941205fa.jpg'
p38
aS'sunaiwfobocrruqznsv.jpg'
p39
aS'00779941205fa.jpg'
p40
aS'00796941205fa.jpg'
p41
aS'00162931230fb.jpg'
p42
asS'ratings'
p43
(lp44
(lp45
(NF0.0
tp46
aa(lp47
(NF0.0
tp48
a(I4
F1.942
tp49
aa(lp50
(NF0.0
tp51
a(I4
F0.959
tp52
aa(lp53
(NF0.0
tp54
a(I3
F0.976
tp55
aa(lp56
(NF0.0
tp57
a(I3
F1.376
tp58
aa(lp59
(NF0.0
tp60
a(I2
F0.876
tp61
aa(lp62
(NF0.0
tp63
a(I2
F0.934
tp64
aa(lp65
(NF0.0
tp66
a(I4
F1.021
tp67
aa(lp68
(NF0.0
tp69
a(I2
F0.569
tp70
aa(lp71
(NF0.0
tp72
a(I3
F0.583
tp73
aa(lp74
(NF0.0
tp75
a(I2
F0.901
tp76
aa(lp77
(NF0.0
tp78
a(I1
F1.25
tp79
aa(lp80
(NF0.0
tp81
a(I4
F0.809
tp82
aa(lp83
(NF0.0
tp84
a(I2
F0.733
tp85
aa(lp86
(NF0.0
tp87
a(I3
F0.992
tp88
aa(lp89
(NF0.0
tp90
a(I2
F1.403
tp91
aa(lp92
(NF0.0
tp93
a(I4
F0.909
tp94
aa(lp95
(NF0.0
tp96
a(I4
F0.69
tp97
aa(lp98
(NF0.0
tp99
a(I2
F1.053
tp100
aa(lp101
(NF0.0
tp102
a(I3
F0.724
tp103
aa(lp104
(NF0.0
tp105
a(I3
F1.182
tp106
aa(lp107
(NF0.0
tp108
a(I3
F0.72
tp109
aa(lp110
(NF0.0
tp111
a(I2
F1.158
tp112
aa(lp113
(NF0.0
tp114
a(I1
F0.966
tp115
aa(lp116
(NF0.0
tp117
a(I1
F1.005
tp118
aa(lp119
(NF0.0
tp120
a(I2
F0.952
tp121
aa(lp122
(NF0.0
tp123
a(I2
F0.713
tp124
aa(lp125
(NF0.0
tp126
a(I2
F1.31
tp127
aa(lp128
(NF0.0
tp129
a(I2
F1.199
tp130
aa(lp131
(NF0.0
tp132
a(I3
F1.046
tp133
aa(lp134
(NF0.0
tp135
a(I2
F1.349
tp136
aa(lp137
(NF0.0
tp138
a(I2
F1.118
tp139
aa(lp140
(NF0.0
tp141
a(I4
F1.309
tp142
aa(lp143
(NF0.0
tp144
a(I3
F1.008
tp145
aa(lp146
(NF0.0
tp147
a(I2
F1.197
tp148
aa(lp149
(NF0.0
tp150
a(I3
F0.967
tp151
aa(lp152
(NF0.0
tp153
a(I4
F1.226
tp154
aa(lp155
(NF0.0
tp156
a(I3
F1.063
tp157
aa(lp158
(NF0.0
tp159
a(I2
F0.803
tp160
aa(lp161
(NF0.0
tp162
a(I2
F0.684
tp163
aasS'run_time'
p164
F123.02743005752563
sS'total_iters'
p165
(lp166
I0
aI1
aI2
aI3
aI4
aI5
aI6
aI7
aI8
aI9
aI10
aI11
aI12
aI13
aI14
aI15
aI16
aI17
aI18
aI19
aI20
aI21
aI22
aI23
aI24
aI25
aI26
aI27
aI28
aI29
aI30
aI31
aI32
aI33
aI34
aI35
aI36
aI37
aI38
aI39
as.