(dp0
S'cue_tuples'
p1
(lp2
(S'cue_L'
p3
S'L'
p4
I0
tp5
a(g3
g4
I0
tp6
a(g3
g4
I0
tp7
a(g3
g4
I0
tp8
a(g3
g4
I1
tp9
a(g3
g4
I0
tp10
a(g3
g4
I0
tp11
a(g3
g4
I0
tp12
a(g3
g4
I0
tp13
a(g3
g4
I0
tp14
asS'uncued'
p15
(lp16
S'00793941205fa_sunagtjwilqjvxohypn.jpg'
p17
aS'00568940928fa_sunacsdhbbsybcyxnel.jpg'
p18
aS'00197940128fa_sunaaylzyqlqrsmfwif.jpg'
p19
aS'00996960627fa_sunbpvgllfdejxcpjqp.jpg'
p20
aS'00819940307fa_sunahqldjibofgsfdgb.jpg'
p21
aS'00529940519fa_sunacbeefkxpymwevpk.jpg'
p22
aS'00869940307fa_sunajoveqhiprwqgoco.jpg'
p23
aS'00804960530fa_sunagwswhkvnsmuszlz.jpg'
p24
aS'00211940128fa_sunabasphceswhwwqvv.jpg'
p25
aS'00208940128fa_sunaazzyhbvqjpmazjq.jpg'
p26
asS'cued'
p27
(lp28
S'00773960620fa_sunafvsxtzaizojicxx.jpg'
p29
aS'00080931230fb_sunaafjszryxyavjzln.jpg'
p30
aS'00127931230fa_sunaampvucecsfbdafn.jpg'
p31
aS'00785941205fa_sunaglqunwuycxydmyu.jpg'
p32
aS'00061931230fb_sunaaekxzjzrfgtkwjf.jpg'
p33
aS'00308940422fb_sunabwfvcqqidycwypa.jpg'
p34
aS'00131931230fb_sunaangbuylfvckqqoo.jpg'
p35
aS'00905960530fa_sunanmoqeyprjjjfxjt.jpg'
p36
aS'00749941201fa_sunaeuvjbmdpknaqqaj.jpg'
p37
aS'00893960530Fa_sunaloffvbvysigxent.jpg'
p38
asS'uncued_RT'
p39
(lp40
F0.7382550239562988
aF0.523129940032959
aF0.4637792110443115
aF0.3961818218231201
aF0.29111504554748535
aF0.37560486793518066
aF0.3801541328430176
aF0.33391404151916504
aF0.4587860107421875
aF0.39357805252075195
asS'cued_RT'
p41
(lp42
s.