(lp0
ccopy_reg
_reconstructor
p1
(cfuture.types.newstr
newstr
p2
c__builtin__
unicode
p3
V18
p4
tp5
Rp6
aS'Male'
p7
aS'No'
p8
aI01
aI00
aI00
aI00
aI00
aI00
aI00
aS'some college'
p9
ag8
aS'Yes'
p10
ag10
ag1
(g2
g3
VAntibiotics
p11
tp12
Rp13
ag1
(g2
g3
V7
p14
tp15
Rp16
ag1
(g2
g3
V0
p17
tp18
Rp19
aS'A little alert'
p20
a.