(lp0
S'A little boring'
p1
aS'Very tired'
p2
accopy_reg
_reconstructor
p3
(cfuture.types.newstr
newstr
p4
c__builtin__
unicode
p5
VPlaces, I could see the general shapes better
p6
tp7
Rp8
ag3
(g4
g5
VI think the left side
p9
tp10
Rp11
ag3
(g4
g5
VFirst, I tried my best to stay awake. Second, I created a little idea of what I thought a place was in my mind.
p12
tp13
Rp14
a.