(dp0
S'images'
p1
(lp2
S'00943960627fa.jpg'
p3
aS'sunarpsxqkduedrrzyi.jpg'
p4
aS'00483940519fa.jpg'
p5
aS'00154931230fa.jpg'
p6
aS'00796941205fa.jpg'
p7
aS'sunaiozxhxgtfrmoagh.jpg'
p8
aS'sunaemcowdozyphwknd.jpg'
p9
aS'00874940307fa.jpg'
p10
aS'sunabyvpwkgsjtijdwj.jpg'
p11
aS'00859940307fa.jpg'
p12
aS'00829940307fa.jpg'
p13
aS'00129931230fb.jpg'
p14
aS'00973960627fa.jpg'
p15
aS'00194940128fb.jpg'
p16
aS'00065931230fb.jpg'
p17
aS'sunaajqmsaavkmgbsth.jpg'
p18
aS'00761960627fa.jpg'
p19
aS'sunabcfpwlpolnutyju.jpg'
p20
aS'00559940519fa.jpg'
p21
aS'00098931230fa.jpg'
p22
aS'00214940128fa.jpg'
p23
aS'00864940307fa.jpg'
p24
aS'00987960627fa.jpg'
p25
aS'sunanainkqdvktzoxyl.jpg'
p26
aS'sunabxmguapjekttvwm.jpg'
p27
aS'00221940128fa.jpg'
p28
aS'00961960627fa.jpg'
p29
aS'sunaawsdjisukbbginm.jpg'
p30
aS'sunaakqepfoeqomfgxf.jpg'
p31
aS'00949960627fb.jpg'
p32
aS'sunaqsolmfydodnakub.jpg'
p33
aS'sunahwgbqkqcrwprgvh.jpg'
p34
aS'sunafgdqbclkwfocdhg.jpg'
p35
aS'00774941201fa.jpg'
p36
aS'sunafvtpfczkzopbgue.jpg'
p37
aS'sunabxsuqbleluwczoy.jpg'
p38
aS'sunasnqkkyhilqkxiqm.jpg'
p39
aS'00191940128fb.jpg'
p40
aS'00101931230fb.jpg'
p41
aS'sunaiycurtqsfkvcaso.jpg'
p42
asS'ratings'
p43
(lp44
(lp45
(NF0.0
tp46
a(I2
F1.253
tp47
aa(lp48
(NF0.0
tp49
a(I4
F0.92
tp50
aa(lp51
(NF0.0
tp52
a(I2
F1.606
tp53
aa(lp54
(NF0.0
tp55
a(I2
F1.426
tp56
aa(lp57
(NF0.0
tp58
a(I2
F1.373
tp59
aa(lp60
(NF0.0
tp61
a(I4
F0.865
tp62
aa(lp63
(NF0.0
tp64
a(I2
F1.966
tp65
aa(lp66
(NF0.0
tp67
a(I2
F1.765
tp68
aa(lp69
(NF0.0
tp70
a(I4
F1.507
tp71
aa(lp72
(NF0.0
tp73
aa(lp74
(NF0.0
tp75
a(I4
F1.417
tp76
aa(lp77
(NF0.0
tp78
a(I1
F1.839
tp79
aa(lp80
(NF0.0
tp81
a(I1
F1.018
tp82
aa(lp83
(NF0.0
tp84
a(I2
F1.335
tp85
aa(lp86
(NF0.0
tp87
a(I3
F1.549
tp88
aa(lp89
(NF0.0
tp90
a(I4
F1.026
tp91
aa(lp92
(NF0.0
tp93
a(I3
F1.9
tp94
aa(lp95
(NF0.0
tp96
a(I4
F0.893
tp97
aa(lp98
(NF0.0
tp99
a(I2
F1.703
tp100
aa(lp101
(NF0.0
tp102
a(I1
F1.717
tp103
aa(lp104
(NF0.0
tp105
a(I1
F1.205
tp106
aa(lp107
(NF0.0
tp108
a(I2
F1.559
tp109
aa(lp110
(NF0.0
tp111
a(I1
F1.312
tp112
aa(lp113
(NF0.0
tp114
a(I4
F1.269
tp115
aa(lp116
(NF0.0
tp117
a(I4
F0.863
tp118
aa(lp119
(NF0.0
tp120
a(I2
F1.713
tp121
aa(lp122
(NF0.0
tp123
a(I1
F1.627
tp124
aa(lp125
(NF0.0
tp126
a(I4
F1.262
tp127
aa(lp128
(NF0.0
tp129
aa(lp130
(NF0.0
tp131
a(I1
F0.864
tp132
aa(lp133
(NF0.0
tp134
a(I2
F1.4
tp135
aa(lp136
(NF0.0
tp137
a(I2
F1.425
tp138
aa(lp139
(NF0.0
tp140
a(I3
F1.512
tp141
aa(lp142
(NF0.0
tp143
a(I1
F1.317
tp144
aa(lp145
(NF0.0
tp146
a(I4
F0.868
tp147
aa(lp148
(NF0.0
tp149
a(I4
F0.88
tp150
aa(lp151
(NF0.0
tp152
a(I4
F1.028
tp153
aa(lp154
(NF0.0
tp155
a(I1
F1.79
tp156
aa(lp157
(NF0.0
tp158
a(I2
F1.605
tp159
aa(lp160
(NF0.0
tp161
a(I2
F1.996
tp162
aasS'run_time'
p163
F125.28001499176025
sS'total_iters'
p164
(lp165
I0
aI1
aI2
aI3
aI4
aI5
aI6
aI7
aI8
aI9
aI10
aI11
aI12
aI13
aI14
aI15
aI16
aI17
aI18
aI19
aI20
aI21
aI22
aI23
aI24
aI25
aI26
aI27
aI28
aI29
aI30
aI31
aI32
aI33
aI34
aI35
aI36
aI37
aI38
aI39
as.