(dp0
S'cue_tuples'
p1
(lp2
(S'cue_L'
p3
S'L'
p4
I0
tp5
a(g3
g4
I0
tp6
a(g3
g4
I0
tp7
a(g3
g4
I0
tp8
a(g3
g4
I0
tp9
a(g3
g4
I0
tp10
a(g3
g4
I0
tp11
a(g3
g4
I1
tp12
a(g3
g4
I0
tp13
a(g3
g4
I0
tp14
asS'uncued'
p15
(lp16
S'00960960627fa_sunawksfbacycuhbrsc.jpg'
p17
aS'00140931230fb_sunaapllqyqlykszopd.jpg'
p18
aS'00901960530fa_sunammbnoambmhdxdwd.jpg'
p19
aS'00818940307fa_sunahpblecxtmuzkmxb.jpg'
p20
aS'00750941201fa_sunaeuzwggvibufclwf.jpg'
p21
aS'00630940928fa_sunaczwgyukesaajxnx.jpg'
p22
aS'00828940307fa_sunahuynahneraqftyz.jpg'
p23
aS'00746941201fa_sunaetydippjxikifsb.jpg'
p24
aS'00938960627fa_sunaqyylsngywqzwfmx.jpg'
p25
aS'00294940422fb_sunabrlndkruqokhury.jpg'
p26
asS'cued'
p27
(lp28
S'00133931230fa_sunaanlwnpqndclffxt.jpg'
p29
aS'00810941205fa_sunahctntqrunhdxhtb.jpg'
p30
aS'00793941205fa_sunagtjwilqjvxohypn.jpg'
p31
aS'00090931230fa_sunaahedjlmtqekgyvj.jpg'
p32
aS'00266940128fb_sunabkngeblodihjvbk.jpg'
p33
aS'00070940307fa_sunaaeplwsfslcbtojr.jpg'
p34
aS'00906960530fa_sunantryfbloeaomfta.jpg'
p35
aS'00548940519fa_sunacerqowiaeoqkmsq.jpg'
p36
aS'00571940928fa_sunacuatpqpqhyjhjqk.jpg'
p37
aS'00197940128fa_sunaaylzyqlqrsmfwif.jpg'
p38
asS'uncued_RT'
p39
(lp40
F0.6743388175964355
aF0.3924708366394043
aF0.36139512062072754
aF0.31518983840942383
aF0.26375508308410645
aF0.22554993629455566
aF0.20030689239501953
aF0.4253051280975342
aF0.41761302947998047
aF0.37838006019592285
asS'cued_RT'
p41
(lp42
s.