(dp0
S'cue_tuples'
p1
(lp2
(S'cue_L'
p3
S'F'
p4
I0
tp5
a(g3
g4
I0
tp6
a(g3
g4
I0
tp7
a(g3
g4
I0
tp8
a(g3
g4
I0
tp9
a(g3
g4
I0
tp10
a(g3
g4
I0
tp11
a(g3
g4
I0
tp12
a(g3
g4
I0
tp13
a(g3
g4
I0
tp14
asS'uncued'
p15
(lp16
S'00061931230fb_sunaaekxzjzrfgtkwjf.jpg'
p17
aS'01004960627fa_sunbwtlihsuptkrckid.jpg'
p18
aS'00902960530fa_sunanaacmmosxrfwmvl.jpg'
p19
aS'00062931230fb_sunaaelotvjgibjtjhs.jpg'
p20
aS'00162931230fb_sunaavjinpnkappuonm.jpg'
p21
aS'00955960627fb_sunauburywlkjszngcq.jpg'
p22
aS'00772941201fa_sunafpfpiiujzoesnqg.jpg'
p23
aS'00482940519fa_sunabyfxcxhdebvdyfd.jpg'
p24
aS'00783941205fa_sunagjeesomrwjsfqie.jpg'
p25
aS'00675941121fa_sunadoxcchtmsxewsau.jpg'
p26
asS'cued'
p27
(lp28
S'00210940128fb_sunabanoxjtqxamkucc.jpg'
p29
aS'00147931230fb_sunaatpkocdkocwxpkb.jpg'
p30
aS'00723941201fa_sunaedtgwjvvziytspa.jpg'
p31
aS'00719960620fa_sunadzuvtmtmgupotmf.jpg'
p32
aS'00908960530fa_sunanwjjyqqwzqrqagd.jpg'
p33
aS'00878960530fa_sunakgbnzxmfohgehnu.jpg'
p34
aS'00638941031fa_sunadfktsqjthoglcsm.jpg'
p35
aS'00184940128fa_sunaavtbadenwnzeutj.jpg'
p36
aS'00773960620fa_sunafvsxtzaizojicxx.jpg'
p37
aS'00782941205fa_sunagfvluwixdsozaql.jpg'
p38
asS'uncued_RT'
p39
(lp40
F0.3750159740447998
aF0.3926858901977539
aF0.36264610290527344
aF0.40366291999816895
aF0.3970978260040283
aF0.29374217987060547
aF0.3496589660644531
aF0.4005398750305176
aF0.31317996978759766
aF0.3898160457611084
asS'cued_RT'
p41
(lp42
s.