(dp0
S'images'
p1
(lp2
S'sunapileznnbbmrwoei.jpg'
p3
aS'sunafpfpiiujzoesnqg.jpg'
p4
aS'00162931230fb.jpg'
p5
aS'sunanwjjyqqwzqrqagd.jpg'
p6
aS'sunanaacmmosxrfwmvl.jpg'
p7
aS'sunaavtbadenwnzeutj.jpg'
p8
aS'00955960627fb.jpg'
p9
aS'sunagfvluwixdsozaql.jpg'
p10
aS'sunadzuvtmtmgupotmf.jpg'
p11
aS'00061931230fb.jpg'
p12
aS'sunaaekxzjzrfgtkwjf.jpg'
p13
aS'sunadoxcchtmsxewsau.jpg'
p14
aS'sunaatpkocdkocwxpkb.jpg'
p15
aS'sunadsgmtznewzyasnk.jpg'
p16
aS'00847940307fa.jpg'
p17
aS'00147931230fb.jpg'
p18
aS'00076931230fa.jpg'
p19
aS'sunaedtgwjvvziytspa.jpg'
p20
aS'sunagjeesomrwjsfqie.jpg'
p21
aS'00772941201fa.jpg'
p22
aS'00675941121fa.jpg'
p23
aS'sunabanoxjtqxamkucc.jpg'
p24
aS'01004960627fa.jpg'
p25
aS'00062931230fb.jpg'
p26
aS'sunafvsxtzaizojicxx.jpg'
p27
aS'00754941201fa.jpg'
p28
aS'sunadfktsqjthoglcsm.jpg'
p29
aS'00878960530fa.jpg'
p30
aS'sunadpnqovzckyikrjo.jpg'
p31
aS'00262940128fa.jpg'
p32
aS'sunabbwggenhfbftyvi.jpg'
p33
aS'sunbpvgllfdejxcpjqp.jpg'
p34
aS'sunauburywlkjszngcq.jpg'
p35
aS'00773960620fa.jpg'
p36
aS'00638941031fa.jpg'
p37
aS'00184940128fa.jpg'
p38
aS'00227940128fa.jpg'
p39
aS'00719960620fa.jpg'
p40
aS'sunabyfxcxhdebvdyfd.jpg'
p41
aS'sunbwtlihsuptkrckid.jpg'
p42
asS'ratings'
p43
(lp44
(lp45
(NF0.0
tp46
aa(lp47
(NF0.0
tp48
a(I1
F0.571
tp49
aa(lp50
(NF0.0
tp51
a(I2
F1.416
tp52
aa(lp53
(NF0.0
tp54
a(I1
F1.614
tp55
aa(lp56
(NF0.0
tp57
a(I1
F0.796
tp58
aa(lp59
(NF0.0
tp60
a(I1
F0.651
tp61
aa(lp62
(NF0.0
tp63
a(I2
F1.791
tp64
aa(lp65
(NF0.0
tp66
a(I1
F0.782
tp67
aa(lp68
(NF0.0
tp69
a(I1
F0.553
tp70
aa(lp71
(NF0.0
tp72
a(I3
F1.995
tp73
aa(lp74
(NF0.0
tp75
a(I1
F1.789
tp76
aa(lp77
(NF0.0
tp78
a(I1
F0.773
tp79
aa(lp80
(NF0.0
tp81
a(I3
F1.34
tp82
aa(lp83
(NF0.0
tp84
a(I2
F1.287
tp85
aa(lp86
(NF0.0
tp87
a(I2
F1.923
tp88
aa(lp89
(NF0.0
tp90
a(I4
F1.816
tp91
aa(lp92
(NF0.0
tp93
aa(lp94
(NF0.0
tp95
a(I1
F1.263
tp96
aa(lp97
(NF0.0
tp98
a(I1
F0.695
tp99
aa(lp100
(NF0.0
tp101
a(I1
F1.389
tp102
aa(lp103
(NF0.0
tp104
a(I3
F0.904
tp105
aa(lp106
(NF0.0
tp107
a(I1
F1.231
tp108
aa(lp109
(NF0.0
tp110
aa(lp111
(NF0.0
tp112
a(I2
F0.73
tp113
aa(lp114
(NF0.0
tp115
a(I1
F1.142
tp116
aa(lp117
(NF0.0
tp118
a(I1
F1.564
tp119
aa(lp120
(NF0.0
tp121
a(I1
F0.77
tp122
aa(lp123
(NF0.0
tp124
a(I2
F1.565
tp125
aa(lp126
(NF0.0
tp127
a(I1
F1.001
tp128
aa(lp129
(NF0.0
tp130
a(I2
F1.249
tp131
aa(lp132
(NF0.0
tp133
a(I1
F1.213
tp134
aa(lp135
(NF0.0
tp136
a(I1
F0.597
tp137
aa(lp138
(NF0.0
tp139
a(I1
F0.999
tp140
aa(lp141
(NF0.0
tp142
a(I2
F1.649
tp143
aa(lp144
(NF0.0
tp145
a(I3
F1.109
tp146
aa(lp147
(NF0.0
tp148
a(I3
F1.653
tp149
aa(lp150
(NF0.0
tp151
a(I4
F1.312
tp152
aa(lp153
(NF0.0
tp154
a(I3
F1.723
tp155
aa(lp156
(NF0.0
tp157
a(I1
F1.127
tp158
aa(lp159
(NF0.0
tp160
a(I1
F0.777
tp161
aasS'run_time'
p162
F125.72919297218323
sS'total_iters'
p163
(lp164
I0
aI1
aI2
aI3
aI4
aI5
aI6
aI7
aI8
aI9
aI10
aI11
aI12
aI13
aI14
aI15
aI16
aI17
aI18
aI19
aI20
aI21
aI22
aI23
aI24
aI25
aI26
aI27
aI28
aI29
aI30
aI31
aI32
aI33
aI34
aI35
aI36
aI37
aI38
aI39
as.