(dp0
S'cue_tuples'
p1
(lp2
(S'cue_L'
p3
S'F'
p4
I0
tp5
a(g3
g4
I0
tp6
a(g3
g4
I0
tp7
a(g3
g4
I1
tp8
a(g3
g4
I0
tp9
a(g3
g4
I0
tp10
a(g3
g4
I0
tp11
a(g3
g4
I0
tp12
a(g3
g4
I0
tp13
a(g3
g4
I0
tp14
asS'uncued'
p15
(lp16
S'00719941201fa_sunadvithllcgmfxsrn.jpg'
p17
aS'00305940422fa_sunabtrnbvpppgczjim.jpg'
p18
aS'00270940422fb_sunabllobxadqcyttej.jpg'
p19
aS'01009960627fa_sunbxzweleltykebgan.jpg'
p20
aS'00860940307fa_sunaizeyhvjzknwjudw.jpg'
p21
aS'00939960627fa_sunarceibpcyacbmfga.jpg'
p22
aS'00235940128fb_sunabclssnoeuigtawp.jpg'
p23
aS'00801941205fa_sunagvprlbprarvgdvj.jpg'
p24
aS'00952960627fa_sunathzzbcwjykldrem.jpg'
p25
aS'00957960627fa_sunavhxgmgrqsaptynb.jpg'
p26
asS'cued'
p27
(lp28
S'00093931230fa_sunaahwnmtqsrhocysw.jpg'
p29
aS'00868960307fa_sunajjxttslobudoqbv.jpg'
p30
aS'00986960627fa_sunbgzjryivyczuvkvm.jpg'
p31
aS'00816941205fa_sunahmhrncocyhsjpxk.jpg'
p32
aS'00911960530fa_sunaooaqzputrowwbsw.jpg'
p33
aS'00136931230fb_sunaanptmsknhirrzed.jpg'
p34
aS'00681941121fa_sunadqmjrhfjyuzyvdd.jpg'
p35
aS'00967960627fa_sunbaejotfklekvpxcz.jpg'
p36
aS'00787941205fa_sunagmwxxwymwojbvgi.jpg'
p37
aS'00812941205fa_sunahgtbwgsmtqeodwh.jpg'
p38
asS'uncued_RT'
p39
(lp40
F0.6174039840698242
aF0.4567680358886719
aF0.400529146194458
aF0.6334011554718018
aF0.4134349822998047
aF0.4011669158935547
aF0.3705720901489258
aF0.34917521476745605
aF0.28804492950439453
aF0.32558608055114746
asS'cued_RT'
p41
(lp42
s.