(dp0
S'cue_tuples'
p1
(lp2
(S'cue_R'
p3
S'L'
p4
I0
tp5
a(g3
g4
I0
tp6
a(g3
g4
I0
tp7
a(g3
g4
I0
tp8
a(g3
g4
I1
tp9
a(g3
g4
I1
tp10
a(g3
g4
I0
tp11
a(g3
g4
I0
tp12
a(g3
g4
I0
tp13
a(g3
g4
I1
tp14
asS'uncued'
p15
(lp16
S'00877960530fa_sunajxpkuhbizeveguy.jpg'
p17
aS'00609940928fa_sunacycdoztxoluxjyk.jpg'
p18
aS'00130931230fa_sunaamvxnvouicstkjb.jpg'
p19
aS'00898960530fa_sunamkmeblgteyggink.jpg'
p20
aS'00752960620fa_sunafbwnojpqeyzssoe.jpg'
p21
aS'00120931230fa_sunaakxgygjfqrzpyoz.jpg'
p22
aS'00633940928fa_sunadbhmrgrrpyzglxs.jpg'
p23
aS'00115931230fa_sunaakmxzhuceuiryah.jpg'
p24
aS'00568940928fa_sunacsdhbbsybcyxnel.jpg'
p25
aS'00770941201fa_sunaflojskatpeqyzqp.jpg'
p26
asS'cued'
p27
(lp28
S'00292940422fb_sunabrjdpmoedcdjbpo.jpg'
p29
aS'00776941205fa_sunafxokyavhgptyfye.jpg'
p30
aS'00077931230fb_sunaafgqutfaishsxyu.jpg'
p31
aS'00768941205fa_sunafkmnlytenlsywia.jpg'
p32
aS'00271940422fa_sunabmbnddafmywtjjj.jpg'
p33
aS'00857940307fa_sunaiwfobocrruqznsv.jpg'
p34
aS'00922960627fa_sunapqkyghktgtosuuk.jpg'
p35
aS'00071941031fa_sunaaexqbtdswxrqjvz.jpg'
p36
aS'00977960627fa_sunbbxkanhzjgbwyxqs.jpg'
p37
aS'01007960627fa_sunbxarcshsnqsefemx.jpg'
p38
asS'uncued_RT'
p39
(lp40
F0.4797050952911377
aF0.49218106269836426
aF0.37333011627197266
asS'cued_RT'
p41
(lp42
F0.3597531318664551
aF0.3596479892730713
aF0.3271970748901367
aF0.505950927734375
aF0.57781982421875
aF0.39099812507629395
aF0.3288869857788086
as.