(dp0
S'cue_tuples'
p1
(lp2
(S'cue_R'
p3
S'L'
p4
I0
tp5
a(g3
g4
I0
tp6
a(g3
g4
I0
tp7
a(g3
g4
I0
tp8
a(g3
g4
I0
tp9
a(g3
g4
I0
tp10
a(g3
g4
I0
tp11
a(g3
g4
I0
tp12
a(g3
g4
I0
tp13
a(g3
g4
I0
tp14
asS'uncued'
p15
(lp16
S'00804960530fa_sunagwswhkvnsmuszlz.jpg'
p17
aS'00111931230fb_sunaakgekhjklxmvulj.jpg'
p18
aS'00794960620fa_sunagtqhhwxjeuxdebe.jpg'
p19
aS'00209940128fb_sunabaergayifsgacxt.jpg'
p20
aS'00302940422fa_sunabtlfmiwtljmoues.jpg'
p21
aS'00635941031fa_sunaddsaeicthrfbkhe.jpg'
p22
aS'00766960620fa_sunafijbgncijwykrnl.jpg'
p23
aS'00882960530fa_sunaknlirqjqiwbbeeg.jpg'
p24
aS'00789960620fa_sunagpancjmxqfazssf.jpg'
p25
aS'00631940928fa_sunadbdqzigzwipuipr.jpg'
p26
asS'cued'
p27
(lp28
S'00650941031fa_sunadikxpvqeabxrvvc.jpg'
p29
aS'00260940128fa_sunabgfhvifeijihhjw.jpg'
p30
aS'00245940128fa_sunabeyhmxodahoieyk.jpg'
p31
aS'00893960530Fa_sunaloffvbvysigxent.jpg'
p32
aS'00163931230fb_sunaavodbcpygkggnfp.jpg'
p33
aS'01010960627fa_suncnkvbhypnivcohyx.jpg'
p34
aS'00900960530fa_sunamlotskmmsjeogby.jpg'
p35
aS'00795941205fa_sunagtumacdlmciqamz.jpg'
p36
aS'00125931230fa_sunaalltyvjhbzhkmvg.jpg'
p37
aS'00211940128fa_sunabasphceswhwwqvv.jpg'
p38
asS'uncued_RT'
p39
(lp40
sS'cued_RT'
p41
(lp42
F0.47003793716430664
aF0.36583900451660156
aF0.36958789825439453
aF0.3431689739227295
aF0.5222070217132568
aF0.31812310218811035
aF0.3066689968109131
aF0.7013309001922607
aF0.39490509033203125
aF0.38126087188720703
as.