(dp0
S'cue_tuples'
p1
(lp2
(S'cue_R'
p3
S'F'
p4
I0
tp5
a(g3
g4
I0
tp6
a(g3
g4
I1
tp7
a(g3
g4
I0
tp8
a(g3
g4
I1
tp9
a(g3
g4
I0
tp10
a(g3
g4
I0
tp11
a(g3
g4
I0
tp12
a(g3
g4
I1
tp13
a(g3
g4
I0
tp14
asS'uncued'
p15
(lp16
S'00598941031fa_sunacxtcahkymosigud.jpg'
p17
aS'00753941201fa_sunafcofuuzebuadceo.jpg'
p18
aS'00936960627fa_sunaqgjuuwvdcyiccjt.jpg'
p19
aS'00834940307fa_sunaibnpvhkdpdnzcnz.jpg'
p20
aS'00780960530fa_sunagetqixeypsysbpn.jpg'
p21
aS'00193940928fa_sunaaxjpzcnxligjtjq.jpg'
p22
aS'00694941121fa_sunadrmfzmstgdjdcod.jpg'
p23
aS'00280940422fb_sunabohxbskznglnrhv.jpg'
p24
aS'00119931230fb_sunaakvmbftkrgqhjun.jpg'
p25
aS'00557940519fa_sunachtuarilwyqnvjx.jpg'
p26
asS'cued'
p27
(lp28
S'00728941205fa_sunaejnvnpltdmhbcsi.jpg'
p29
aS'00123931230fb_sunaalcrrdbjgdztbiz.jpg'
p30
aS'00276940422fa_sunabmytpyhsgigllxu.jpg'
p31
aS'00662941121fa_sunadkazmlajmohnwfl.jpg'
p32
aS'01011960627fa_sundahdxwmcdluscvot.jpg'
p33
aS'00803941205fa_sunagvxkjokqimstxpe.jpg'
p34
aS'00970960627fa_sunbasypfgzjtomktmu.jpg'
p35
aS'00785941205fa_sunaglqunwuycxydmyu.jpg'
p36
aS'00239940128fa_sunabctlikybqabezjv.jpg'
p37
aS'00835940307fa_sunaijsqpvodplbwxkf.jpg'
p38
asS'uncued_RT'
p39
(lp40
F0.7460548877716064
aF0.33652305603027344
aF0.666295051574707
asS'cued_RT'
p41
(lp42
F0.4622941017150879
aF0.3903541564941406
aF0.3489811420440674
aF0.42766404151916504
aF0.45195579528808594
aF0.502155065536499
aF0.4807159900665283
as.