(dp0
S'cue_tuples'
p1
(lp2
(S'cue_R'
p3
S'F'
p4
I0
tp5
a(g3
g4
I0
tp6
a(g3
g4
I0
tp7
a(g3
g4
I0
tp8
a(g3
g4
I0
tp9
a(g3
g4
I0
tp10
a(g3
g4
I0
tp11
a(g3
g4
I0
tp12
a(g3
g4
I0
tp13
a(g3
g4
I0
tp14
asS'uncued'
p15
(lp16
S'00576941031fa_sunacvjlsylseoghjup.jpg'
p17
aS'00532960627fa_sunaccdtpgenvcbcbcf.jpg'
p18
aS'00144931230fb_sunaathajvxrgptwhoj.jpg'
p19
aS'00958960627fa_sunavspxmxubqaeidjt.jpg'
p20
aS'00308940422fb_sunabwfvcqqidycwypa.jpg'
p21
aS'00959960627fa_sunavxokzybtomhbmvm.jpg'
p22
aS'00866940307fa_sunajbwkywmsqkldfml.jpg'
p23
aS'00839940307fa_sunaipyohrqlwngaqif.jpg'
p24
aS'00791941205fa_sunagrmyoovzukhxmlo.jpg'
p25
aS'00153931230fa_sunaauhozyxzeeqstxi.jpg'
p26
asS'cued'
p27
(lp28
S'00942960627fa_sunarfdklgdnjgeqfjg.jpg'
p29
aS'00851940307fa_sunaivflshbyfrfzhqb.jpg'
p30
aS'00889960530fa_sunaletopenvvozhpxc.jpg'
p31
aS'00720960620fa_sunaecpkgfewqqreqwe.jpg'
p32
aS'00885960530fa_sunakwlvxjpddialozd.jpg'
p33
aS'01207940128fa_sundbixjudsgeuuehrn.jpg'
p34
aS'00822940307fa_sunahqrxievfeusiqlt.jpg'
p35
aS'00095931230fa_sunaahzooisqkwlxwoz.jpg'
p36
aS'00097931230fa_sunaajayojuslbbnneg.jpg'
p37
aS'00790941205fa_sunagpjzsbltchlwvou.jpg'
p38
asS'uncued_RT'
p39
(lp40
sS'cued_RT'
p41
(lp42
F0.7311930656433105
aF0.7198460102081299
aF0.32390403747558594
aF0.44995689392089844
aF0.37764692306518555
aF0.4077279567718506
aF0.32919812202453613
aF0.2763240337371826
aF0.4107789993286133
aF0.38768696784973145
as.