(lp0
S'A little engaging'
p1
aS'A little tired'
p2
accopy_reg
_reconstructor
p3
(cfuture.types.newstr
newstr
p4
c__builtin__
unicode
p5
VLocations, not sure why but felt more variety in images of locations made them easier to distinguish in my peripheral vision
p6
tp7
Rp8
ag3
(g4
g5
VNo
p9
tp10
Rp11
ag3
(g4
g5
Vtried to come up with a single word to describe the pictures, not super helpful though.
p12
tp13
Rp14
a.