(dp0
S'cued'
p1
(lp2
S'276_95.jpg'
p3
aS'273_92.jpg'
p4
asS'cued_RT'
p5
(lp6
F0.36637187004089355
asS'cue_Right'
p7
(lp8
I0
aI1
asS'run_time'
p9
F6.143862009048462
sS'uncued'
p10
(lp11
S'274_93.jpg'
p12
aS'272_91.jpg'
p13
asS'total_iters'
p14
I2
sS'uncued_RT'
p15
(lp16
F0.3855400085449219
as.