(dp0
S'cue_tuples'
p1
(lp2
(S'cue_L'
p3
S'F'
p4
I0
tp5
a(g3
g4
I0
tp6
a(g3
g4
I0
tp7
a(g3
g4
I0
tp8
a(g3
g4
I0
tp9
a(g3
g4
I0
tp10
a(g3
g4
I0
tp11
a(g3
g4
I0
tp12
a(g3
g4
I0
tp13
a(g3
g4
I0
tp14
asS'uncued'
p15
(lp16
S'22924880.thl_sunabctlikybqabezjv.jpg'
p17
aS'26421536.thl_sunagwswhkvnsmuszlz.jpg'
p18
aS'26433387.thl_sunarfdklgdnjgeqfjg.jpg'
p19
aS'26374767.thl_sunadnjjzohjhbohlwq.jpg'
p20
aS'26373362.thl_sunacxtcahkymosigud.jpg'
p21
aS'23063814.thl_sunabwjvmoaddlyxfjr.jpg'
p22
aS'26419231.thl_sunagoufulkpsxrmklt.jpg'
p23
aS'26390189.thl_sunafvtpfczkzopbgue.jpg'
p24
aS'26427111.thl_sunakgbnzxmfohgehnu.jpg'
p25
aS'22849284.thl_sunaajtnvzzpsjdzres.jpg'
p26
asS'cued'
p27
(lp28
S'26434546.thl_sunauburywlkjszngcq.jpg'
p29
aS'26374055.thl_sunadakkdovnuzlycvp.jpg'
p30
aS'26427983.thl_sunalntxqqadigcletd.jpg'
p31
aS'22991767.thl_sunabizydfotqddlnjp.jpg'
p32
aS'26421538.thl_sunagwzdbtlixdhgolm.jpg'
p33
aS'26282515.thl_sunabzjxlmkwnwzimua.jpg'
p34
aS'26428593.thl_sunanaacmmosxrfwmvl.jpg'
p35
aS'26463767.thl_sunbxzweleltykebgan.jpg'
p36
aS'26425025.thl_sunaizeyhvjzknwjudw.jpg'
p37
aS'26423477.thl_sunahuynahneraqftyz.jpg'
p38
asS'uncued_RT'
p39
(lp40
sS'cued_RT'
p41
(lp42
F0.3929331302642822
aF0.5890219211578369
aF0.4088740348815918
aF0.38837409019470215
aF0.448559045791626
aF0.4411289691925049
aF0.4130091667175293
aF0.4230680465698242
aF0.3539090156555176
aF0.41546082496643066
as.