(dp0
S'images'
p1
(lp2
S'sunahuynahneraqftyz.jpg'
p3
aS'sunaflojskatpeqyzqp.jpg'
p4
aS'26425025.thl.jpg'
p5
aS'26427983.thl.jpg'
p6
aS'26385058.thl.jpg'
p7
aS'sunabizydfotqddlnjp.jpg'
p8
aS'sunbbhqyyzmsxhsbjmp.jpg'
p9
aS'26375702.thl.jpg'
p10
aS'26431471.thl.jpg'
p11
aS'sunakgbnzxmfohgehnu.jpg'
p12
aS'26419231.thl.jpg'
p13
aS'26421536.thl.jpg'
p14
aS'sunarfdklgdnjgeqfjg.jpg'
p15
aS'sunaajtnvzzpsjdzres.jpg'
p16
aS'26372390.thl.jpg'
p17
aS'sunaavchcbptaerhcfy.jpg'
p18
aS'sunabckqabszusgcykj.jpg'
p19
aS'sunaezuszgtxnmsxdbk.jpg'
p20
aS'26427111.thl.jpg'
p21
aS'sunaauhozyxzeeqstxi.jpg'
p22
aS'sunbtpilbhhbmhmeuzq.jpg'
p23
aS'sunagoufulkpsxrmklt.jpg'
p24
aS'26463767.thl.jpg'
p25
aS'26373362.thl.jpg'
p26
aS'26282515.thl.jpg'
p27
aS'sunaavtbadenwnzeutj.jpg'
p28
aS'26374767.thl.jpg'
p29
aS'26432755.thl.jpg'
p30
aS'sunaanjcbzdvtvblsdy.jpg'
p31
aS'sunauburywlkjszngcq.jpg'
p32
aS'sunaeisnjeetzmkbuad.jpg'
p33
aS'26451318.thl.jpg'
p34
aS'22859796.thl.jpg'
p35
aS'26424291.thl.jpg'
p36
aS'sunanaacmmosxrfwmvl.jpg'
p37
aS'26421538.thl.jpg'
p38
aS'sunadnjjzohjhbohlwq.jpg'
p39
aS'26426575.thl.jpg'
p40
aS'23028486.thl.jpg'
p41
aS'sunalntxqqadigcletd.jpg'
p42
asS'ratings'
p43
(lp44
(lp45
(NF0.0
tp46
aa(lp47
(NF0.0
tp48
a(I1
F1.163
tp49
aa(lp50
(NF0.0
tp51
a(I2
F1.397
tp52
aa(lp53
(NF0.0
tp54
a(I4
F0.882
tp55
aa(lp56
(NF0.0
tp57
a(I1
F1.148
tp58
aa(lp59
(NF0.0
tp60
a(I1
F1.094
tp61
aa(lp62
(NF0.0
tp63
a(I1
F0.78
tp64
aa(lp65
(NF0.0
tp66
a(I1
F0.914
tp67
aa(lp68
(NF0.0
tp69
a(I2
F1.348
tp70
aa(lp71
(NF0.0
tp72
a(I1
F0.831
tp73
aa(lp74
(NF0.0
tp75
a(I3
F1.081
tp76
aa(lp77
(NF0.0
tp78
a(I1
F0.997
tp79
aa(lp80
(NF0.0
tp81
a(I1
F0.947
tp82
aa(lp83
(NF0.0
tp84
a(I1
F1.08
tp85
aa(lp86
(NF0.0
tp87
a(I1
F0.946
tp88
aa(lp89
(NF0.0
tp90
a(I2
F1.062
tp91
aa(lp92
(NF0.0
tp93
a(I2
F1.08
tp94
aa(lp95
(NF0.0
tp96
a(I1
F1.064
tp97
aa(lp98
(NF0.0
tp99
a(I1
F0.797
tp100
aa(lp101
(NF0.0
tp102
a(I1
F0.73
tp103
aa(lp104
(NF0.0
tp105
a(I1
F0.982
tp106
aa(lp107
(NF0.0
tp108
a(I1
F0.962
tp109
aa(lp110
(NF0.0
tp111
a(I4
F1.315
tp112
aa(lp113
(NF0.0
tp114
a(I3
F1.214
tp115
aa(lp116
(NF0.0
tp117
a(I1
F1.164
tp118
aa(lp119
(NF0.0
tp120
a(I1
F0.73
tp121
aa(lp122
(NF0.0
tp123
a(I1
F0.764
tp124
aa(lp125
(NF0.0
tp126
a(I1
F0.798
tp127
aa(lp128
(NF0.0
tp129
a(I1
F0.764
tp130
aa(lp131
(NF0.0
tp132
a(I1
F0.731
tp133
aa(lp134
(NF0.0
tp135
a(I1
F1.397
tp136
aa(lp137
(NF0.0
tp138
a(I2
F1.465
tp139
aa(lp140
(NF0.0
tp141
a(I1
F0.83
tp142
aa(lp143
(NF0.0
tp144
a(I1
F1.214
tp145
aa(lp146
(NF0.0
tp147
a(I1
F0.797
tp148
aa(lp149
(NF0.0
tp150
a(I1
F0.782
tp151
aa(lp152
(NF0.0
tp153
a(I1
F0.764
tp154
aa(lp155
(NF0.0
tp156
a(I1
F0.815
tp157
aa(lp158
(NF0.0
tp159
a(I1
F0.665
tp160
aa(lp161
(NF0.0
tp162
a(I1
F0.665
tp163
aasS'run_time'
p164
F122.17815113067627
sS'total_iters'
p165
(lp166
I0
aI1
aI2
aI3
aI4
aI5
aI6
aI7
aI8
aI9
aI10
aI11
aI12
aI13
aI14
aI15
aI16
aI17
aI18
aI19
aI20
aI21
aI22
aI23
aI24
aI25
aI26
aI27
aI28
aI29
aI30
aI31
aI32
aI33
aI34
aI35
aI36
aI37
aI38
aI39
as.