(dp0
S'images'
p1
(lp2
S'26427906.thl.jpg'
p3
aS'sunaamdjwemxpmmtypi.jpg'
p4
aS'sunaivflshbyfrfzhqb.jpg'
p5
aS'sunaprnrbmgkomdbchr.jpg'
p6
aS'sunaanlwnpqndclffxt.jpg'
p7
aS'sunaduslxfzlbxlllnz.jpg'
p8
aS'22855236.thl.jpg'
p9
aS'22923524.thl.jpg'
p10
aS'26372785.thl.jpg'
p11
aS'26433686.thl.jpg'
p12
aS'sunagountlxpzkytsmp.jpg'
p13
aS'26387690.thl.jpg'
p14
aS'sunaqsolmfydodnakub.jpg'
p15
aS'sunaajspcoepticvplv.jpg'
p16
aS'sunabyfxcxhdebvdyfd.jpg'
p17
aS'26384863.thl.jpg'
p18
aS'26374146.thl.jpg'
p19
aS'sunahawfngukizslzsd.jpg'
p20
aS'26379011.thl.jpg'
p21
aS'sunaeouogqolxvggaoq.jpg'
p22
aS'26375896.thl.jpg'
p23
aS'26387587.thl.jpg'
p24
aS'sunabppokiyglaxpcha.jpg'
p25
aS'26418207.thl.jpg'
p26
aS'sunacvzhvcksnwqcqbw.jpg'
p27
aS'sunafxokyavhgptyfye.jpg'
p28
aS'26425112.thl.jpg'
p29
aS'26428041.thl.jpg'
p30
aS'26392231.thl.jpg'
p31
aS'22869624.thl.jpg'
p32
aS'sunapmfmzadmosuogaz.jpg'
p33
aS'sunabxsbfwjccqxxzxq.jpg'
p34
aS'sunaffstbkappprzxnv.jpg'
p35
aS'sunagpancjmxqfazssf.jpg'
p36
aS'26465824.thl.jpg'
p37
aS'26437107.thl.jpg'
p38
aS'sunapqkyghktgtosuuk.jpg'
p39
aS'sunagcinxkccdtrjmlv.jpg'
p40
aS'22861656.thl.jpg'
p41
aS'23070748.thl.jpg'
p42
asS'ratings'
p43
(lp44
(lp45
(NF0.0
tp46
a(I1
F1.295
tp47
aa(lp48
(NF0.0
tp49
a(I1
F0.746
tp50
aa(lp51
(NF0.0
tp52
a(I1
F0.642
tp53
aa(lp54
(NF0.0
tp55
a(I2
F1.414
tp56
aa(lp57
(NF0.0
tp58
a(I3
F1.131
tp59
aa(lp60
(NF0.0
tp61
a(I3
F1.43
tp62
aa(lp63
(NF0.0
tp64
a(I3
F1.615
tp65
aa(lp66
(NF0.0
tp67
a(I1
F0.664
tp68
aa(lp69
(NF0.0
tp70
a(I1
F0.627
tp71
aa(lp72
(NF0.0
tp73
a(I1
F0.547
tp74
aa(lp75
(NF0.0
tp76
a(I4
F0.881
tp77
aa(lp78
(NF0.0
tp79
a(I1
F0.631
tp80
aa(lp81
(NF0.0
tp82
a(I4
F1.079
tp83
aa(lp84
(NF0.0
tp85
a(I1
F1.23
tp86
aa(lp87
(NF0.0
tp88
a(I1
F0.865
tp89
aa(lp90
(NF0.0
tp91
a(I1
F0.614
tp92
aa(lp93
(NF0.0
tp94
a(I1
F0.614
tp95
aa(lp96
(NF0.0
tp97
a(I4
F0.914
tp98
aa(lp99
(NF0.0
tp100
a(I1
F0.63
tp101
aa(lp102
(NF0.0
tp103
a(I3
F1.397
tp104
aa(lp105
(NF0.0
tp106
a(I1
F0.514
tp107
aa(lp108
(NF0.0
tp109
a(I1
F0.515
tp110
aa(lp111
(NF0.0
tp112
a(I1
F0.593
tp113
aa(lp114
(NF0.0
tp115
a(I1
F0.53
tp116
aa(lp117
(NF0.0
tp118
a(I4
F1.265
tp119
aa(lp120
(NF0.0
tp121
a(I4
F1.347
tp122
aa(lp123
(NF0.0
tp124
a(I1
F0.581
tp125
aa(lp126
(NF0.0
tp127
a(I1
F0.564
tp128
aa(lp129
(NF0.0
tp130
a(I1
F0.613
tp131
aa(lp132
(NF0.0
tp133
a(I1
F0.647
tp134
aa(lp135
(NF0.0
tp136
a(I3
F1.612
tp137
aa(lp138
(NF0.0
tp139
a(I1
F1.047
tp140
aa(lp141
(NF0.0
tp142
a(I1
F0.715
tp143
aa(lp144
(NF0.0
tp145
a(I1
F0.713
tp146
aa(lp147
(NF0.0
tp148
a(I1
F0.664
tp149
aa(lp150
(NF0.0
tp151
a(I1
F0.581
tp152
aa(lp153
(NF0.0
tp154
a(I2
F1.015
tp155
aa(lp156
(NF0.0
tp157
a(I2
F1.097
tp158
aa(lp159
(NF0.0
tp160
a(I4
F0.896
tp161
aa(lp162
(NF0.0
tp163
a(I1
F0.629
tp164
aasS'run_time'
p165
F122.3454749584198
sS'total_iters'
p166
(lp167
I0
aI1
aI2
aI3
aI4
aI5
aI6
aI7
aI8
aI9
aI10
aI11
aI12
aI13
aI14
aI15
aI16
aI17
aI18
aI19
aI20
aI21
aI22
aI23
aI24
aI25
aI26
aI27
aI28
aI29
aI30
aI31
aI32
aI33
aI34
aI35
aI36
aI37
aI38
aI39
as.