(dp0
S'cue_tuples'
p1
(lp2
(S'cue_R'
p3
S'F'
p4
I1
tp5
a(g3
g4
I0
tp6
a(g3
g4
I0
tp7
a(g3
g4
I0
tp8
a(g3
g4
I0
tp9
a(g3
g4
I0
tp10
a(g3
g4
I1
tp11
a(g3
g4
I0
tp12
a(g3
g4
I0
tp13
a(g3
g4
I0
tp14
asS'uncued'
p15
(lp16
S'26439898.thl_sunbasypfgzjtomktmu.jpg'
p17
aS'26377133.thl_sunaefgzwiramypjvtd.jpg'
p18
aS'26370651.thm_sunacfdkbsrughwqwtt.jpg'
p19
aS'26384554.thl_sunafcofuuzebuadceo.jpg'
p20
aS'26434250.thl_sunathzzbcwjykldrem.jpg'
p21
aS'26387436.thl_sunafijbgncijwykrnl.jpg'
p22
aS'22853352.thl_sunaakqepfoeqomfgxf.jpg'
p23
aS'26442719.thl_sunbgklxeqjhdbyfhhy.jpg'
p24
aS'26455774.thl_sunbvzmgrdvaakxusbu.jpg'
p25
aS'26369944.thl_sunaccdtpgenvcbcbcf.jpg'
p26
asS'cued'
p27
(lp28
S'26374166.thl_sunaddtdkycxbqlpfqa.jpg'
p29
aS'23051010.thl_sunabtrnbvpppgczjim.jpg'
p30
aS'26424133.thl_sunaivdjruhkrfywfed.jpg'
p31
aS'22826748.thl_sunaahwnmtqsrhocysw.jpg'
p32
aS'22826832.thl_sunaahzooisqkwlxwoz.jpg'
p33
aS'26369923.thl_sunacbeefkxpymwevpk.jpg'
p34
aS'22856256.thl_sunaampvucecsfbdafn.jpg'
p35
aS'26423905.thl_sunaiozxhxgtfrmoagh.jpg'
p36
aS'26379161.thl_sunaetydippjxikifsb.jpg'
p37
aS'26440422.thl_sunbbxkanhzjgbwyxqs.jpg'
p38
asS'uncued_RT'
p39
(lp40
F0.433941125869751
aF0.3769199848175049
asS'cued_RT'
p41
(lp42
F0.492048978805542
aF0.41959691047668457
aF0.40616583824157715
aF0.42623281478881836
aF0.38854503631591797
aF0.31653714179992676
aF0.38689184188842773
aF0.32704877853393555
as.