(dp0
S'cue_tuples'
p1
(lp2
(S'cue_L'
p3
S'F'
p4
I0
tp5
a(g3
g4
I0
tp6
a(g3
g4
I0
tp7
a(g3
g4
I1
tp8
a(g3
g4
I0
tp9
a(g3
g4
I0
tp10
a(g3
g4
I0
tp11
a(g3
g4
I0
tp12
a(g3
g4
I0
tp13
a(g3
g4
I0
tp14
asS'uncued'
p15
(lp16
S'26440073.thl_sunbbgtoeuzierkkajt.jpg'
p17
aS'26433592.thl_sunarpsxqkduedrrzyi.jpg'
p18
aS'26372237.thl_sunacmpqqfbsvlzinzl.jpg'
p19
aS'26374158.thl_sunaddsaeicthrfbkhe.jpg'
p20
aS'26421370.thl_sunagvprlbprarvgdvj.jpg'
p21
aS'26431753.thl_sunapqkpqdfvxlbqwyo.jpg'
p22
aS'26421382.thl_sunagvxkjokqimstxpe.jpg'
p23
aS'22866972.thl_sunaathajvxrgptwhoj.jpg'
p24
aS'26370659.thm_sunachtuarilwyqnvjx.jpg'
p25
aS'22921112.thl_sunabbwggenhfbftyvi.jpg'
p26
asS'cued'
p27
(lp28
S'26433347.thl_sunarceibpcyacbmfga.jpg'
p29
aS'26425370.thl_sunajjxttslobudoqbv.jpg'
p30
aS'26375899.thl_sunadvithllcgmfxsrn.jpg'
p31
aS'26421740.thl_sunahedfrhtcwpneund.jpg'
p32
aS'26370681.thl_sunacjkmnpawfzbyvae.jpg'
p33
aS'26437028.thl_sunavhxgmgrqsaptynb.jpg'
p34
aS'22910996.thl_sunaazzyhbvqjpmazjq.jpg'
p35
aS'23071000.thl_sunabxsuqbleluwczoy.jpg'
p36
aS'26431414.thl_sunaozisvwfbmlkfhzv.jpg'
p37
aS'22910936.thl_sunaazezcsunmhttzxz.jpg'
p38
asS'uncued_RT'
p39
(lp40
F0.5366151332855225
asS'cued_RT'
p41
(lp42
F0.38431406021118164
aF0.3331160545349121
aF0.35574889183044434
aF0.42204713821411133
aF0.3605990409851074
aF0.398604154586792
aF0.4658939838409424
aF0.29076600074768066
aF0.38750720024108887
as.