(dp0
S'images'
p1
(lp2
S'sunapqkpqdfvxlbqwyo.jpg'
p3
aS'sunajjxttslobudoqbv.jpg'
p4
aS'26372404.thl.jpg'
p5
aS'sunagrmyoovzukhxmlo.jpg'
p6
aS'22859028.thl.jpg'
p7
aS'23071000.thl.jpg'
p8
aS'sunaathajvxrgptwhoj.jpg'
p9
aS'26374158.thl.jpg'
p10
aS'26375899.thl.jpg'
p11
aS'26437028.thl.jpg'
p12
aS'26433347.thl.jpg'
p13
aS'22869852.thl.jpg'
p14
aS'sunaapfaivxqoynnwwp.jpg'
p15
aS'sunacmpqqfbsvlzinzl.jpg'
p16
aS'sunarceibpcyacbmfga.jpg'
p17
aS'sunacjkmnpawfzbyvae.jpg'
p18
aS'26421370.thl.jpg'
p19
aS'sunahwgbqkqcrwprgvh.jpg'
p20
aS'23019499.thl.jpg'
p21
aS'26377183.thl.jpg'
p22
aS'26431753.thl.jpg'
p23
aS'26465344.thl.jpg'
p24
aS'26434233.thl.jpg'
p25
aS'23077768.thl.jpg'
p26
aS'sunabqowuarvqqcnipn.jpg'
p27
aS'26460317.thl.jpg'
p28
aS'sunajoveqhiprwqgoco.jpg'
p29
aS'sunabxsuqbleluwczoy.jpg'
p30
aS'sunachtuarilwyqnvjx.jpg'
p31
aS'sunasnqkkyhilqkxiqm.jpg'
p32
aS'22921112.thl.jpg'
p33
aS'sunaanptmsknhirrzed.jpg'
p34
aS'sunaaiqiqcggrskoqgy.jpg'
p35
aS'sunagvprlbprarvgdvj.jpg'
p36
aS'26370681.thl.jpg'
p37
aS'sunaazzyhbvqjpmazjq.jpg'
p38
aS'26428682.thl.jpg'
p39
aS'sunbbegcweqnetpdlrh.jpg'
p40
aS'sunafvwfsmqkjrutjta.jpg'
p41
aS'26370659.thm.jpg'
p42
asS'ratings'
p43
(lp44
(lp45
(NF0.0
tp46
a(I4
F1.461
tp47
aa(lp48
(NF0.0
tp49
a(I1
F0.66
tp50
aa(lp51
(NF0.0
tp52
a(I1
F0.664
tp53
aa(lp54
(NF0.0
tp55
a(I1
F0.628
tp56
aa(lp57
(NF0.0
tp58
a(I1
F0.511
tp59
aa(lp60
(NF0.0
tp61
a(I1
F0.697
tp62
aa(lp63
(NF0.0
tp64
a(I1
F0.614
tp65
aa(lp66
(NF0.0
tp67
a(I1
F0.663
tp68
aa(lp69
(NF0.0
tp70
a(I4
F1.014
tp71
aa(lp72
(NF0.0
tp73
a(I4
F0.913
tp74
aa(lp75
(NF0.0
tp76
a(I4
F0.73
tp77
aa(lp78
(NF0.0
tp79
a(I3
F1.866
tp80
aa(lp81
(NF0.0
tp82
a(I1
F1.192
tp83
aa(lp84
(NF0.0
tp85
a(I1
F0.628
tp86
aa(lp87
(NF0.0
tp88
a(I1
F0.764
tp89
aa(lp90
(NF0.0
tp91
a(I1
F0.724
tp92
aa(lp93
(NF0.0
tp94
a(I4
F0.832
tp95
aa(lp96
(NF0.0
tp97
a(I1
F0.713
tp98
aa(lp99
(NF0.0
tp100
a(I1
F0.581
tp101
aa(lp102
(NF0.0
tp103
a(I2
F1.099
tp104
aa(lp105
(NF0.0
tp106
a(I1
F0.527
tp107
aa(lp108
(NF0.0
tp109
a(I1
F0.464
tp110
aa(lp111
(NF0.0
tp112
a(I1
F0.713
tp113
aa(lp114
(NF0.0
tp115
a(I2
F1.23
tp116
aa(lp117
(NF0.0
tp118
a(I1
F0.645
tp119
aa(lp120
(NF0.0
tp121
a(I1
F0.582
tp122
aa(lp123
(NF0.0
tp124
a(I1
F0.596
tp125
aa(lp126
(NF0.0
tp127
a(I2
F1.208
tp128
aa(lp129
(NF0.0
tp130
a(I1
F0.613
tp131
aa(lp132
(NF0.0
tp133
a(I1
F0.614
tp134
aa(lp135
(NF0.0
tp136
a(I1
F0.68
tp137
aa(lp138
(NF0.0
tp139
a(I1
F0.698
tp140
aa(lp141
(NF0.0
tp142
a(I1
F0.713
tp143
aa(lp144
(NF0.0
tp145
a(I1
F0.543
tp146
aa(lp147
(NF0.0
tp148
a(I4
F0.943
tp149
aa(lp150
(NF0.0
tp151
a(I1
F1.014
tp152
aa(lp153
(NF0.0
tp154
a(I1
F0.693
tp155
aa(lp156
(NF0.0
tp157
a(I1
F0.727
tp158
aa(lp159
(NF0.0
tp160
a(I1
F0.548
tp161
aa(lp162
(NF0.0
tp163
a(I1
F0.88
tp164
aasS'run_time'
p165
F122.4792709350586
sS'total_iters'
p166
(lp167
I0
aI1
aI2
aI3
aI4
aI5
aI6
aI7
aI8
aI9
aI10
aI11
aI12
aI13
aI14
aI15
aI16
aI17
aI18
aI19
aI20
aI21
aI22
aI23
aI24
aI25
aI26
aI27
aI28
aI29
aI30
aI31
aI32
aI33
aI34
aI35
aI36
aI37
aI38
aI39
as.