(dp0
S'images'
p1
(lp2
S'22920212.thl.jpg'
p3
aS'26423303.thl.jpg'
p4
aS'26373068.thl.jpg'
p5
aS'sunafvsxtzaizojicxx.jpg'
p6
aS'sunavxokzybtomhbmvm.jpg'
p7
aS'26387568.thl.jpg'
p8
aS'sunadsgmtznewzyasnk.jpg'
p9
aS'sunammbnoambmhdxdwd.jpg'
p10
aS'26373844.thl.jpg'
p11
aS'sunaalhlvzmjmitybdn.jpg'
p12
aS'22908308.thl.jpg'
p13
aS'sunahtfxgsrmkiulnwk.jpg'
p14
aS'sunawksfbacycuhbrsc.jpg'
p15
aS'sunabtlfmiwtljmoues.jpg'
p16
aS'sunbwaafjdebjzttuvq.jpg'
p17
aS'sunaangbuylfvckqqoo.jpg'
p18
aS'26422507.thl.jpg'
p19
aS'26424784.thl.jpg'
p20
aS'22857084.thl.jpg'
p21
aS'22856988.thl.jpg'
p22
aS'sunabwmcbaxwioksdgw.jpg'
p23
aS'26422598.thl.jpg'
p24
aS'sunagvjurcwdbixvnyi.jpg'
p25
aS'26375611.thl.jpg'
p26
aS'26428057.thl.jpg'
p27
aS'sunaayehfdqcyxggsej.jpg'
p28
aS'sunaeuvjbmdpknaqqaj.jpg'
p29
aS'26423812.thl.jpg'
p30
aS'sunbpflsdaxnddnwcqi.jpg'
p31
aS'26433942.thl.jpg'
p32
aS'23048010.thl.jpg'
p33
aS'sunadrmfzmstgdjdcod.jpg'
p34
aS'26391514.thl.jpg'
p35
aS'sunagdzlvkqtpnfxfcg.jpg'
p36
aS'23065398.thl.jpg'
p37
aS'26374787.thl.jpg'
p38
aS'23016343.thl.jpg'
p39
aS'sunaixpqndlwhwjtjek.jpg'
p40
aS'sunajbwkywmsqkldfml.jpg'
p41
aS'sunaalltyvjhbzhkmvg.jpg'
p42
asS'ratings'
p43
(lp44
(lp45
(NF0.0
tp46
a(I1
F1.159
tp47
aa(lp48
(NF0.0
tp49
a(I1
F0.53
tp50
aa(lp51
(NF0.0
tp52
a(I1
F0.548
tp53
aa(lp54
(NF0.0
tp55
a(I1
F0.713
tp56
aa(lp57
(NF0.0
tp58
a(I1
F0.545
tp59
aa(lp60
(NF0.0
tp61
a(I1
F0.564
tp62
aa(lp63
(NF0.0
tp64
a(I1
F0.709
tp65
aa(lp66
(NF0.0
tp67
a(I2
F1.381
tp68
aa(lp69
(NF0.0
tp70
a(I1
F0.532
tp71
aa(lp72
(NF0.0
tp73
a(I1
F0.626
tp74
aa(lp75
(NF0.0
tp76
a(I1
F0.531
tp77
aa(lp78
(NF0.0
tp79
a(I1
F0.715
tp80
aa(lp81
(NF0.0
tp82
a(I1
F0.695
tp83
aa(lp84
(NF0.0
tp85
a(I1
F0.68
tp86
aa(lp87
(NF0.0
tp88
a(I4
F1.045
tp89
aa(lp90
(NF0.0
tp91
a(I1
F1.012
tp92
aa(lp93
(NF0.0
tp94
a(I1
F0.862
tp95
aa(lp96
(NF0.0
tp97
a(I1
F0.782
tp98
aa(lp99
(NF0.0
tp100
a(I1
F0.681
tp101
aa(lp102
(NF0.0
tp103
a(I1
F0.597
tp104
aa(lp105
(NF0.0
tp106
a(I2
F0.831
tp107
aa(lp108
(NF0.0
tp109
a(I1
F0.575
tp110
aa(lp111
(NF0.0
tp112
a(I1
F1.071
tp113
aa(lp114
(NF0.0
tp115
a(I1
F0.962
tp116
aa(lp117
(NF0.0
tp118
a(I1
F0.73
tp119
aa(lp120
(NF0.0
tp121
a(I3
F0.947
tp122
aa(lp123
(NF0.0
tp124
a(I1
F0.847
tp125
aa(lp126
(NF0.0
tp127
a(I1
F0.764
tp128
aa(lp129
(NF0.0
tp130
a(I3
F1.097
tp131
aa(lp132
(NF0.0
tp133
a(I1
F0.665
tp134
aa(lp135
(NF0.0
tp136
a(I3
F1.014
tp137
aa(lp138
(NF0.0
tp139
a(I1
F1.012
tp140
aa(lp141
(NF0.0
tp142
a(I1
F0.78
tp143
aa(lp144
(NF0.0
tp145
a(I1
F0.697
tp146
aa(lp147
(NF0.0
tp148
a(I1
F0.545
tp149
aa(lp150
(NF0.0
tp151
a(I1
F0.597
tp152
aa(lp153
(NF0.0
tp154
a(I1
F0.547
tp155
aa(lp156
(NF0.0
tp157
a(I1
F0.613
tp158
aa(lp159
(NF0.0
tp160
a(I1
F0.747
tp161
aa(lp162
(NF0.0
tp163
a(I1
F0.583
tp164
aasS'run_time'
p165
F122.46188402175903
sS'total_iters'
p166
(lp167
I0
aI1
aI2
aI3
aI4
aI5
aI6
aI7
aI8
aI9
aI10
aI11
aI12
aI13
aI14
aI15
aI16
aI17
aI18
aI19
aI20
aI21
aI22
aI23
aI24
aI25
aI26
aI27
aI28
aI29
aI30
aI31
aI32
aI33
aI34
aI35
aI36
aI37
aI38
aI39
as.