(dp0
S'cue_tuples'
p1
(lp2
(S'cue_R'
p3
S'L'
p4
I1
tp5
a(g3
g4
I0
tp6
a(g3
g4
I1
tp7
a(g3
g4
I0
tp8
a(g3
g4
I0
tp9
a(g3
g4
I0
tp10
a(g3
g4
I0
tp11
a(g3
g4
I0
tp12
a(g3
g4
I0
tp13
a(g3
g4
I0
tp14
asS'uncued'
p15
(lp16
S'26379570.thl_sunaeuvjbmdpknaqqaj.jpg'
p17
aS'26391514.thl_sunagdzlvkqtpnfxfcg.jpg'
p18
aS'22851864.thl_sunaakgekhjklxmvulj.jpg'
p19
aS'26375611.thl_sunadrmfzmstgdjdcod.jpg'
p20
aS'26437077.thl_sunawotxrevnqvamsfp.jpg'
p21
aS'22857084.thl_sunaangbuylfvckqqoo.jpg'
p22
aS'26422598.thl_sunahmhrncocyhsjpxk.jpg'
p23
aS'26423303.thl_sunahrltmuwbiehihpe.jpg'
p24
aS'26426317.thl_sunajrujcsdxmfbssmc.jpg'
p25
aS'26451168.thl_sunbpflsdaxnddnwcqi.jpg'
p26
asS'cued'
p27
(lp28
S'22908308.thl_sunaaylzyqlqrsmfwif.jpg'
p29
aS'22923068.thl_sunabcfpwlpolnutyju.jpg'
p30
aS'26375982.thl_sunaecpkgfewqqreqwe.jpg'
p31
aS'26373844.thl_sunaczwgyukesaajxnx.jpg'
p32
aS'23065398.thl_sunabwmcbaxwioksdgw.jpg'
p33
aS'26428576.thl_sunammbnoambmhdxdwd.jpg'
p34
aS'26456480.thl_sunbwaafjdebjzttuvq.jpg'
p35
aS'26424784.thl_sunaixpqndlwhwjtjek.jpg'
p36
aS'23007415.thl_sunabjuovqvyfuzvqwt.jpg'
p37
aS'23048010.thl_sunabtlfmiwtljmoues.jpg'
p38
asS'uncued_RT'
p39
(lp40
F0.35451197624206543
aF0.40566396713256836
asS'cued_RT'
p41
(lp42
F0.33567309379577637
aF0.5582032203674316
aF0.35665297508239746
aF0.37850117683410645
aF0.5184838771820068
aF0.397611141204834
aF0.34607410430908203
aF0.37398505210876465
as.