(dp0
S'images'
p1
(lp2
S'26374605.thl.jpg'
p3
aS'sunadzuvtmtmgupotmf.jpg'
p4
aS'sunahctntqrunhdxhtb.jpg'
p5
aS'26419670.thl.jpg'
p6
aS'26374709.thl.jpg'
p7
aS'sunaqyylsngywqzwfmx.jpg'
p8
aS'22870356.thl.jpg'
p9
aS'26451219.thl.jpg'
p10
aS'sunaauglwmctnkxyird.jpg'
p11
aS'26426417.thl.jpg'
p12
aS'26374089.thl.jpg'
p13
aS'26443034.thl.jpg'
p14
aS'22858860.thl.jpg'
p15
aS'26426803.thl.jpg'
p16
aS'26437068.thl.jpg'
p17
aS'sunaavodbcpygkggnfp.jpg'
p18
aS'sunacsaovnjezqwbykf.jpg'
p19
aS'sunafgdqbclkwfocdhg.jpg'
p20
aS'sunafkmnlytenlsywia.jpg'
p21
aS'sunaamsdyakblkfoydx.jpg'
p22
aS'sunabkngeblodihjvbk.jpg'
p23
aS'sunaatpeezlljqaxlhj.jpg'
p24
aS'sunajtrfunvzdfticna.jpg'
p25
aS'sunacxeheuiigkcgquf.jpg'
p26
aS'sunajawzbrlrwafowen.jpg'
p27
aS'sunadochqcucscehsgk.jpg'
p28
aS'26391116.thl.jpg'
p29
aS'26374731.thl.jpg'
p30
aS'26425322.thl.jpg'
p31
aS'26378986.thl.jpg'
p32
aS'sunacerqowiaeoqkmsq.jpg'
p33
aS'22856172.thl.jpg'
p34
aS'26372465.thl.jpg'
p35
aS'sunaapllqyqlykszopd.jpg'
p36
aS'sunapqwoeotxshkukbh.jpg'
p37
aS'26418799.thl.jpg'
p38
aS'sunahbvlpavurqoxdeq.jpg'
p39
aS'26375953.thl.jpg'
p40
aS'sunaedtgwjvvziytspa.jpg'
p41
aS'26376346.thl.jpg'
p42
asS'ratings'
p43
(lp44
(lp45
(NF0.0
tp46
a(I1
F0.993
tp47
aa(lp48
(NF0.0
tp49
a(I1
F0.646
tp50
aa(lp51
(NF0.0
tp52
a(I1
F0.913
tp53
aa(lp54
(NF0.0
tp55
a(I1
F0.581
tp56
aa(lp57
(NF0.0
tp58
a(I1
F0.458
tp59
aa(lp60
(NF0.0
tp61
a(I2
F1.314
tp62
aa(lp63
(NF0.0
tp64
a(I1
F0.55
tp65
aa(lp66
(NF0.0
tp67
a(I1
F0.848
tp68
aa(lp69
(NF0.0
tp70
a(I1
F0.598
tp71
aa(lp72
(NF0.0
tp73
a(I1
F0.511
tp74
aa(lp75
(NF0.0
tp76
a(I1
F1.147
tp77
aa(lp78
(NF0.0
tp79
a(I1
F0.68
tp80
aa(lp81
(NF0.0
tp82
a(I3
F1.349
tp83
aa(lp84
(NF0.0
tp85
a(I1
F0.715
tp86
aa(lp87
(NF0.0
tp88
a(I1
F0.763
tp89
aa(lp90
(NF0.0
tp91
aa(lp92
(NF0.0
tp93
a(I3
F1.231
tp94
aa(lp95
(NF0.0
tp96
a(I4
F0.76
tp97
aa(lp98
(NF0.0
tp99
a(I2
F0.964
tp100
aa(lp101
(NF0.0
tp102
a(I1
F0.731
tp103
aa(lp104
(NF0.0
tp105
a(I1
F1.013
tp106
aa(lp107
(NF0.0
tp108
a(I1
F0.629
tp109
aa(lp110
(NF0.0
tp111
a(I1
F0.729
tp112
aa(lp113
(NF0.0
tp114
a(I3
F1.012
tp115
aa(lp116
(NF0.0
tp117
a(I1
F0.764
tp118
aa(lp119
(NF0.0
tp120
a(I1
F0.564
tp121
aa(lp122
(NF0.0
tp123
a(I1
F0.811
tp124
aa(lp125
(NF0.0
tp126
a(I1
F0.681
tp127
aa(lp128
(NF0.0
tp129
a(I1
F0.692
tp130
aa(lp131
(NF0.0
tp132
a(I1
F0.496
tp133
aa(lp134
(NF0.0
tp135
a(I1
F0.646
tp136
aa(lp137
(NF0.0
tp138
a(I1
F0.546
tp139
aa(lp140
(NF0.0
tp141
a(I1
F0.549
tp142
aa(lp143
(NF0.0
tp144
a(I1
F1.196
tp145
aa(lp146
(NF0.0
tp147
a(I1
F0.826
tp148
aa(lp149
(NF0.0
tp150
a(I1
F0.531
tp151
aa(lp152
(NF0.0
tp153
a(I2
F1.046
tp154
aa(lp155
(NF0.0
tp156
a(I1
F0.649
tp157
aa(lp158
(NF0.0
tp159
a(I1
F0.564
tp160
aa(lp161
(NF0.0
tp162
a(I1
F0.63
tp163
aasS'run_time'
p164
F122.47879099845886
sS'total_iters'
p165
(lp166
I0
aI1
aI2
aI3
aI4
aI5
aI6
aI7
aI8
aI9
aI10
aI11
aI12
aI13
aI14
aI15
aI16
aI17
aI18
aI19
aI20
aI21
aI22
aI23
aI24
aI25
aI26
aI27
aI28
aI29
aI30
aI31
aI32
aI33
aI34
aI35
aI36
aI37
aI38
aI39
as.