(dp0
S'cue_tuples'
p1
(lp2
(S'cue_L'
p3
S'L'
p4
I0
tp5
a(g3
g4
I0
tp6
a(g3
g4
I0
tp7
a(g3
g4
I0
tp8
a(g3
g4
I0
tp9
a(g3
g4
I1
tp10
a(g3
g4
I0
tp11
a(g3
g4
I0
tp12
a(g3
g4
I0
tp13
a(g3
g4
I0
tp14
asS'uncued'
p15
(lp16
S'22870356.thl_sunaauglwmctnkxyird.jpg'
p17
aS'26421583.thl_sunahctntqrunhdxhtb.jpg'
p18
aS'26425322.thl_sunajawzbrlrwafowen.jpg'
p19
aS'22911908.thl_sunabanoxjtqxamkucc.jpg'
p20
aS'26418799.thl_sunagmhildamktmqjss.jpg'
p21
aS'22848828.thl_sunaajqmsaavkmgbsth.jpg'
p22
aS'26376346.thl_sunaedtgwjvvziytspa.jpg'
p23
aS'26440629.thl_sunbddbivbptlrlauhy.jpg'
p24
aS'22887144.thl_sunaavodbcpygkggnfp.jpg'
p25
aS'26374709.thl_sunadfndyrtqqiasoig.jpg'
p26
asS'cued'
p27
(lp28
S'26439297.thl_sunbagfpovqwbuexqdn.jpg'
p29
aS'26375953.thl_sunadzuvtmtmgupotmf.jpg'
p30
aS'26379612.thl_sunaeuzwggvibufclwf.jpg'
p31
aS'26373195.thl_sunacxeheuiigkcgquf.jpg'
p32
aS'26426803.thl_sunajxpkuhbizeveguy.jpg'
p33
aS'26432148.thl_sunapqwoeotxshkukbh.jpg'
p34
aS'26374605.thl_sunadflbrkckmepztql.jpg'
p35
aS'26384871.thl_sunafgdqbclkwfocdhg.jpg'
p36
aS'26426417.thl_sunajtrfunvzdfticna.jpg'
p37
aS'26372465.thl_sunacuatpqpqhyjhjqk.jpg'
p38
asS'uncued_RT'
p39
(lp40
F0.6179850101470947
asS'cued_RT'
p41
(lp42
F0.3494579792022705
aF0.3552381992340088
aF0.32849717140197754
aF0.40927815437316895
aF0.3481729030609131
aF0.31458592414855957
aF0.35489416122436523
aF0.4015028476715088
aF0.396467924118042
as.