(dp0
S'images'
p1
(lp2
S'sunaknlirqjqiwbbeeg.jpg'
p3
aS'sunabcuurugvxwparpk.jpg'
p4
aS'sunabwfvcqqidycwypa.jpg'
p5
aS'23057742.thl.jpg'
p6
aS'sunbbfqwjpdxniyhies.jpg'
p7
aS'22869912.thl.jpg'
p8
aS'26427910.thl.jpg'
p9
aS'sunaooffzffbhcpirmm.jpg'
p10
aS'26370704.thl.jpg'
p11
aS'sunaemcowdozyphwknd.jpg'
p12
aS'sunabrwnslxalcohfre.jpg'
p13
aS'sunagufzbeteqdjxais.jpg'
p14
aS'sunapwjkcxdaeqehfql.jpg'
p15
aS'sunacycdoztxoluxjyk.jpg'
p16
aS'26451269.thl.jpg'
p17
aS'sunahqrxievfeusiqlt.jpg'
p18
aS'sunabmytpyhsgigllxu.jpg'
p19
aS'sunacsdhbbsybcyxnel.jpg'
p20
aS'26421070.thl.jpg'
p21
aS'sunayaepykrqvenaqqy.jpg'
p22
aS'26431205.thl.jpg'
p23
aS'23041782.thl.jpg'
p24
aS'26282693.thl.jpg'
p25
aS'26377777.thl.jpg'
p26
aS'26461587.thl.jpg'
p27
aS'sunaygrtwrwfezqjizr.jpg'
p28
aS'sunagtqhhwxjeuxdebe.jpg'
p29
aS'26386846.thl.jpg'
p30
aS'26373735.thl.jpg'
p31
aS'sunaakvmbftkrgqhjun.jpg'
p32
aS'26423786.thl.jpg'
p33
aS'23025307.thl.jpg'
p34
aS'22896812.thl.jpg'
p35
aS'26434297.thl.jpg'
p36
aS'sunamczizlzavhzhpay.jpg'
p37
aS'23044458.thl.jpg'
p38
aS'22925228.thl.jpg'
p39
aS'26437491.thl.jpg'
p40
aS'sunbaejotfklekvpxcz.jpg'
p41
aS'sunasmmcxdddtmtazwx.jpg'
p42
asS'ratings'
p43
(lp44
(lp45
(NF0.0
tp46
aa(lp47
(NF0.0
tp48
a(I4
F0.742
tp49
aa(lp50
(NF0.0
tp51
a(I1
F0.914
tp52
aa(lp53
(NF0.0
tp54
a(I1
F0.681
tp55
aa(lp56
(NF0.0
tp57
a(I1
F0.678
tp58
aa(lp59
(NF0.0
tp60
a(I1
F0.581
tp61
aa(lp62
(NF0.0
tp63
a(I1
F0.681
tp64
aa(lp65
(NF0.0
tp66
a(I1
F0.963
tp67
aa(lp68
(NF0.0
tp69
a(I4
F0.962
tp70
aa(lp71
(NF0.0
tp72
a(I1
F0.661
tp73
aa(lp74
(NF0.0
tp75
a(I2
F1.615
tp76
aa(lp77
(NF0.0
tp78
a(I1
F0.629
tp79
aa(lp80
(NF0.0
tp81
a(I1
F0.58
tp82
aa(lp83
(NF0.0
tp84
a(I1
F0.546
tp85
aa(lp86
(NF0.0
tp87
a(I1
F0.649
tp88
aa(lp89
(NF0.0
tp90
a(I1
F0.559
tp91
aa(lp92
(NF0.0
tp93
a(I1
F0.513
tp94
aa(lp95
(NF0.0
tp96
a(I1
F0.98
tp97
aa(lp98
(NF0.0
tp99
a(I1
F0.879
tp100
aa(lp101
(NF0.0
tp102
a(I3
F1.18
tp103
aa(lp104
(NF0.0
tp105
a(I1
F0.698
tp106
aa(lp107
(NF0.0
tp108
a(I1
F0.664
tp109
aa(lp110
(NF0.0
tp111
a(I1
F0.811
tp112
aa(lp113
(NF0.0
tp114
a(I1
F0.915
tp115
aa(lp116
(NF0.0
tp117
a(I2
F0.714
tp118
aa(lp119
(NF0.0
tp120
a(I1
F0.893
tp121
aa(lp122
(NF0.0
tp123
a(I1
F0.809
tp124
aa(lp125
(NF0.0
tp126
a(I1
F0.577
tp127
aa(lp128
(NF0.0
tp129
a(I1
F0.581
tp130
aa(lp131
(NF0.0
tp132
a(I3
F1.047
tp133
aa(lp134
(NF0.0
tp135
a(I1
F0.595
tp136
aa(lp137
(NF0.0
tp138
a(I1
F0.582
tp139
aa(lp140
(NF0.0
tp141
a(I1
F0.561
tp142
aa(lp143
(NF0.0
tp144
a(I1
F0.664
tp145
aa(lp146
(NF0.0
tp147
a(I1
F0.53
tp148
aa(lp149
(NF0.0
tp150
a(I1
F0.58
tp151
aa(lp152
(NF0.0
tp153
a(I4
F0.811
tp154
aa(lp155
(NF0.0
tp156
a(I1
F0.663
tp157
aa(lp158
(NF0.0
tp159
a(I1
F0.547
tp160
aa(lp161
(NF0.0
tp162
a(I1
F1.081
tp163
aasS'run_time'
p164
F122.51222896575928
sS'total_iters'
p165
(lp166
I0
aI1
aI2
aI3
aI4
aI5
aI6
aI7
aI8
aI9
aI10
aI11
aI12
aI13
aI14
aI15
aI16
aI17
aI18
aI19
aI20
aI21
aI22
aI23
aI24
aI25
aI26
aI27
aI28
aI29
aI30
aI31
aI32
aI33
aI34
aI35
aI36
aI37
aI38
aI39
as.