(lp0
S'Neutral'
p1
ag1
accopy_reg
_reconstructor
p2
(cfuture.types.newstr
newstr
p3
c__builtin__
unicode
p4
VI felt like the faces were a little bit easier to remeber, but they were both fairly difficult.
p5
tp6
Rp7
ag2
(g3
g4
VBoth were equally difficult.
p8
tp9
Rp10
ag2
(g3
g4
VI treid to remeber patterns, but it was not very helpful.
p11
tp12
Rp13
a.