(lp0
S'A little engaging'
p1
aS'A little tired'
p2
accopy_reg
_reconstructor
p3
(cfuture.types.newstr
newstr
p4
c__builtin__
unicode
p5
Vthe scenes we're easier to remember. Especially if they had prominent buildings or patterns.
p6
tp7
Rp8
ag3
(g4
g5
VNo
p9
tp10
Rp11
ag3
(g4
g5
VFor the faces, I tried looking at the hair. For the scenes, I tried to look at patterns such as chairs or prominent buildings.
p12
tp13
Rp14
a.