(lp0
S'Neutral'
p1
aS'Very tired'
p2
accopy_reg
_reconstructor
p3
(cfuture.types.newstr
newstr
p4
c__builtin__
unicode
p5
VThe middle trials because I was not tired yet but I understood the system at that point
p6
tp7
Rp8
ag3
(g4
g5
VLandscape
p9
tp10
Rp11
ag3
(g4
g5
Vnone
p12
tp13
Rp14
a.