(lp0
S'Neutral'
p1
aS'A little tired'
p2
accopy_reg
_reconstructor
p3
(cfuture.types.newstr
newstr
p4
c__builtin__
unicode
p5
VI think the backgrounds were easier to remember
p6
tp7
Rp8
ag3
(g4
g5
Vthere was a picture of a track and a house that were easier to remember but I think I might have looked there with my eyes by mistake
p9
tp10
Rp11
aS''
p12
a.