(dp0
S'images'
p1
(lp2
S'sunagjzcrjvmxzqzljx.jpg'
p3
aS'sunajxpkuhbizeveguy.jpg'
p4
aS'00598940928fa.jpg'
p5
aS'00146960620fb.jpg'
p6
aS'sunafowswglhxcsufpo.jpg'
p7
aS'sunaiwduelojtwaqeyh.jpg'
p8
aS'00138931230fa.jpg'
p9
aS'00727941205fa.jpg'
p10
aS'00154931230fa.jpg'
p11
aS'sunafgzgbisbopcyslr.jpg'
p12
aS'sunafvwfsmqkjrutjta.jpg'
p13
aS'00961960627fa.jpg'
p14
aS'00854940307fa.jpg'
p15
aS'sunagsiwrmuixqgdimb.jpg'
p16
aS'00136931230fb.jpg'
p17
aS'00562941031fa.jpg'
p18
aS'sunaeisnjeetzmkbuad.jpg'
p19
aS'sunaafjszryxyavjzln.jpg'
p20
aS'00947960627fa.jpg'
p21
aS'sunaavchcbptaerhcfy.jpg'
p22
aS'00116931230fa.jpg'
p23
aS'sunbpvgllfdejxcpjqp.jpg'
p24
aS'00265940128fb.jpg'
p25
aS'00746941201fa.jpg'
p26
aS'sunaaylzyqlqrsmfwif.jpg'
p27
aS'00749941201fa.jpg'
p28
aS'00919960620fa.jpg'
p29
aS'sunaetydippjxikifsb.jpg'
p30
aS'sunabeyhmxodahoieyk.jpg'
p31
aS'00543940519fa.jpg'
p32
aS'00145931230fb.jpg'
p33
aS'00630941031fa.jpg'
p34
aS'sunaflojskatpeqyzqp.jpg'
p35
aS'sunajrgtewnualfcerj.jpg'
p36
aS'sunaavjinpnkappuonm.jpg'
p37
aS'00771941205fa.jpg'
p38
aS'sunacepzfrmtkiqonpy.jpg'
p39
aS'00780960530fa.jpg'
p40
aS'sunacsdhbbsybcyxnel.jpg'
p41
aS'sunaefgzwiramypjvtd.jpg'
p42
asS'ratings'
p43
(lp44
NaNaNaNaNaNaNaNaNaNaNaNaNaNaNaNaNaNaNaNaNaNaNaNaNaNaNaNaNaNaNaNaNaNaNaNaNaNaNaNasS'run_time'
p45
F1.6330158710479736
sS'total_iters'
p46
(lp47
I0
aI1
aI2
aI3
aI4
aI5
aI6
aI7
aI8
aI9
aI10
aI11
aI12
aI13
aI14
aI15
aI16
aI17
aI18
aI19
aI20
aI21
aI22
aI23
aI24
aI25
aI26
aI27
aI28
aI29
aI30
aI31
aI32
aI33
aI34
aI35
aI36
aI37
aI38
aI39
as.