(lp0
S'A little engaging'
p1
aS'A little tired'
p2
accopy_reg
_reconstructor
p3
(cfuture.types.newstr
newstr
p4
c__builtin__
unicode
p5
Vthe scenes, because the faces all blurred together. I would identify features, but when i saw the whole face later I couldnt match the two
p6
tp7
Rp8
ag3
(g4
g5
Vno
p9
tp10
Rp11
ag3
(g4
g5
VI would try to pick out feaatures and characteristics to remember
p12
tp13
Rp14
a.