(lp0
S'Neutral'
p1
aS'A little tired'
p2
accopy_reg
_reconstructor
p3
(cfuture.types.newstr
newstr
p4
c__builtin__
unicode
p5
VPlaces, it was easier to remember distinct parts of each image
p6
tp7
Rp8
ag3
(g4
g5
VNo
p9
tp10
Rp11
ag3
(g4
g5
VI looked for unique elements of each picture to remember later (landmarks/furniture for places and hair/eyes for faces)
p12
tp13
Rp14
a.