(dp0
S'cue_tuples'
p1
(lp2
(S'cue_L'
p3
S'L'
p4
I0
tp5
a(g3
g4
I0
tp6
a(g3
g4
I0
tp7
a(g3
g4
I0
tp8
a(g3
g4
I1
tp9
a(g3
g4
I0
tp10
a(g3
g4
I0
tp11
a(g3
g4
I1
tp12
a(g3
g4
I0
tp13
a(g3
g4
I0
tp14
asS'uncued'
p15
(lp16
S'00776941205fa_sunafxokyavhgptyfye.jpg'
p17
aS'00859940307fa_sunaiycurtqsfkvcaso.jpg'
p18
aS'00763941205fa_sunafhmnhsdurlvddpw.jpg'
p19
aS'00984960627fa_sunbfzchmomnvzhbxdg.jpg'
p20
aS'00095931230fa_sunaahzooisqkwlxwoz.jpg'
p21
aS'00098931230fa_sunaajpqmulidejvjsr.jpg'
p22
aS'00793941205fa_sunagtjwilqjvxohypn.jpg'
p23
aS'00193940928fa_sunaaxjpzcnxligjtjq.jpg'
p24
aS'00864940307fa_sunajawzbrlrwafowen.jpg'
p25
aS'00162931230fb_sunaavjinpnkappuonm.jpg'
p26
asS'cued'
p27
(lp28
S'00211940128fa_sunabasphceswhwwqvv.jpg'
p29
aS'00771941205fa_sunafowswglhxcsufpo.jpg'
p30
aS'00723941201fa_sunaedtgwjvvziytspa.jpg'
p31
aS'00647941031fa_sunadflbrkckmepztql.jpg'
p32
aS'00197940128fa_sunaaylzyqlqrsmfwif.jpg'
p33
aS'00983960627fa_sunbfyvfqiimvdaxlqn.jpg'
p34
aS'00576941031fa_sunacvjlsylseoghjup.jpg'
p35
aS'00985960627fa_sunbgklxeqjhdbyfhhy.jpg'
p36
aS'00795941205fa_sunagtumacdlmciqamz.jpg'
p37
aS'00961960627fa_sunawotxrevnqvamsfp.jpg'
p38
asS'uncued_RT'
p39
(lp40
F0.2887110710144043
aF0.377640962600708
aF0.5237579345703125
aF0.44321608543395996
aF0.5716609954833984
aF0.4631998538970947
aF0.519899845123291
aF0.598505973815918
aF0.3213469982147217
aF0.3261759281158447
asS'cued_RT'
p41
(lp42
s.