(dp0
S'images'
p1
(lp2
S'00906960530fa.jpg'
p3
aS'sunapqwoeotxshkukbh.jpg'
p4
aS'sunbpflsdaxnddnwcqi.jpg'
p5
aS'01010960627fa.jpg'
p6
aS'sunbdycacjfaujxitbw.jpg'
p7
aS'00129931230fb.jpg'
p8
aS'sunagoufulkpsxrmklt.jpg'
p9
aS'sunarceibpcyacbmfga.jpg'
p10
aS'00559940519fa.jpg'
p11
aS'sundbixjudsgeuuehrn.jpg'
p12
aS'00670941121fa.jpg'
p13
aS'00540940519fa.jpg'
p14
aS'sunaenwuebvlpdmntju.jpg'
p15
aS'00097931230fa.jpg'
p16
aS'sunbxarcshsnqsefemx.jpg'
p17
aS'00630940928fa.jpg'
p18
aS'suncnkvbhypnivcohyx.jpg'
p19
aS'00235940128fb.jpg'
p20
aS'00741941201fa.jpg'
p21
aS'sunaduslxfzlbxlllnz.jpg'
p22
aS'sunantryfbloeaomfta.jpg'
p23
aS'00208940128fa.jpg'
p24
aS'00979960627fa.jpg'
p25
aS'sunabueyoajufbkraki.jpg'
p26
aS'sunabclssnoeuigtawp.jpg'
p27
aS'sunaivdjruhkrfywfed.jpg'
p28
aS'00939960627fa.jpg'
p29
aS'00787960620fa.jpg'
p30
aS'01207940128fa.jpg'
p31
aS'sunaaelotvjgibjtjhs.jpg'
p32
aS'00705960530fa.jpg'
p33
aS'00889960530fa.jpg'
p34
aS'00142931230fb.jpg'
p35
aS'sunaalcrrdbjgdztbiz.jpg'
p36
aS'sunadochqcucscehsgk.jpg'
p37
aS'sunaezuszgtxnmsxdbk.jpg'
p38
aS'sunaajayojuslbbnneg.jpg'
p39
aS'sunaisiwfgppimtnmxl.jpg'
p40
aS'sunadikxpvqeabxrvvc.jpg'
p41
aS'00306940422fa.jpg'
p42
asS'ratings'
p43
(lp44
(lp45
(NF0.0
tp46
a(I1
F1.675
tp47
aa(lp48
(NF0.0
tp49
a(I3
F1.09
tp50
aa(lp51
(NF0.0
tp52
a(I4
F1.083
tp53
aa(lp54
(NF0.0
tp55
a(I3
F1.084
tp56
aa(lp57
(NF0.0
tp58
a(I2
F1.31
tp59
aa(lp60
(NF0.0
tp61
a(I2
F1.022
tp62
aa(lp63
(NF0.0
tp64
a(I4
F1.189
tp65
aa(lp66
(NF0.0
tp67
a(I4
F1.217
tp68
aa(lp69
(NF0.0
tp70
a(I2
F0.712
tp71
aa(lp72
(NF0.0
tp73
a(I1
F1.103
tp74
aa(lp75
(NF0.0
tp76
a(I3
F1.251
tp77
aa(lp78
(NF0.0
tp79
a(I4
F0.88
tp80
aa(lp81
(NF0.0
tp82
a(I1
F0.97
tp83
aa(lp84
(NF0.0
tp85
a(I2
F0.866
tp86
aa(lp87
(NF0.0
tp88
a(I4
F0.988
tp89
aa(lp90
(NF0.0
tp91
a(I2
F1.363
tp92
aa(lp93
(NF0.0
tp94
a(I3
F0.864
tp95
aa(lp96
(NF0.0
tp97
a(I3
F1.269
tp98
aa(lp99
(NF0.0
tp100
a(I3
F0.892
tp101
aa(lp102
(NF0.0
tp103
a(I4
F1.431
tp104
aa(lp105
(NF0.0
tp106
a(I2
F0.973
tp107
aa(lp108
(NF0.0
tp109
a(I2
F0.779
tp110
aa(lp111
(NF0.0
tp112
a(I1
F0.565
tp113
aa(lp114
(NF0.0
tp115
a(I1
F0.742
tp116
aa(lp117
(NF0.0
tp118
a(I4
F1.13
tp119
aa(lp120
(NF0.0
tp121
a(I1
F0.689
tp122
aa(lp123
(NF0.0
tp124
a(I4
F0.891
tp125
aa(lp126
(NF0.0
tp127
a(I2
F1.602
tp128
aa(lp129
(NF0.0
tp130
a(I1
F0.78
tp131
aa(lp132
(NF0.0
tp133
a(I1
F1.152
tp134
aa(lp135
(NF0.0
tp136
a(I3
F1.43
tp137
aa(lp138
(NF0.0
tp139
a(I2
F1.073
tp140
aa(lp141
(NF0.0
tp142
a(I2
F0.602
tp143
aa(lp144
(NF0.0
tp145
a(I1
F1.486
tp146
aa(lp147
(NF0.0
tp148
a(I3
F0.96
tp149
aa(lp150
(NF0.0
tp151
a(I1
F1.108
tp152
aa(lp153
(NF0.0
tp154
a(I1
F0.679
tp155
aa(lp156
(NF0.0
tp157
a(I4
F0.809
tp158
aa(lp159
(NF0.0
tp160
a(I2
F1.293
tp161
aa(lp162
(NF0.0
tp163
a(I1
F0.647
tp164
aasS'run_time'
p165
F123.563148021698
sS'total_iters'
p166
(lp167
I0
aI1
aI2
aI3
aI4
aI5
aI6
aI7
aI8
aI9
aI10
aI11
aI12
aI13
aI14
aI15
aI16
aI17
aI18
aI19
aI20
aI21
aI22
aI23
aI24
aI25
aI26
aI27
aI28
aI29
aI30
aI31
aI32
aI33
aI34
aI35
aI36
aI37
aI38
aI39
as.