(dp0
S'cue_tuples'
p1
(lp2
(S'cue_L'
p3
S'F'
p4
I0
tp5
a(g3
g4
I0
tp6
a(g3
g4
I0
tp7
a(g3
g4
I0
tp8
a(g3
g4
I0
tp9
a(g3
g4
I0
tp10
a(g3
g4
I0
tp11
a(g3
g4
I0
tp12
a(g3
g4
I0
tp13
a(g3
g4
I1
tp14
asS'uncued'
p15
(lp16
S'00957960627fa_sunavhxgmgrqsaptynb.jpg'
p17
aS'00868960307fa_sunajjxttslobudoqbv.jpg'
p18
aS'00884960530fa_sunakodkcslgqhqlgwl.jpg'
p19
aS'00935960627fa_sunaqbmgkgqucajzrkp.jpg'
p20
aS'00942960627fa_sunarfdklgdnjgeqfjg.jpg'
p21
aS'01003960627fb_sunbwdrdvsweerwsdrj.jpg'
p22
aS'00727941205fa_sunaeisnjeetzmkbuad.jpg'
p23
aS'00959960627fa_sunavxokzybtomhbmvm.jpg'
p24
aS'00153931230fa_sunaauhozyxzeeqstxi.jpg'
p25
aS'00893960530Fa_sunaloffvbvysigxent.jpg'
p26
asS'cued'
p27
(lp28
S'00950960627fa_sunasrjlmglmjzbmqxb.jpg'
p29
aS'00862940307fa_sunaizgnnplsvajzhkc.jpg'
p30
aS'00076931230fa_sunaafewhewbxmjiurz.jpg'
p31
aS'00894960620fa_sunalqmfgeadpqsyzpd.jpg'
p32
aS'00913960530fa_sunaooffzffbhcpirmm.jpg'
p33
aS'00290940422fa_sunabqowuarvqqcnipn.jpg'
p34
aS'00857940307fa_sunaiwfobocrruqznsv.jpg'
p35
aS'00978960627fa_sunbddbivbptlrlauhy.jpg'
p36
aS'00947960627fa_sunasmmcxdddtmtazwx.jpg'
p37
aS'00914960620fa_sunaozisvwfbmlkfhzv.jpg'
p38
asS'uncued_RT'
p39
(lp40
F0.3975529670715332
aF0.3048369884490967
aF0.3838350772857666
aF0.4354100227355957
aF0.24490880966186523
aF0.27785801887512207
aF0.37297582626342773
aF0.28975605964660645
aF0.3185758590698242
aF0.7076380252838135
asS'cued_RT'
p41
(lp42
s.