(dp0
S'cue_tuples'
p1
(lp2
(S'cue_L'
p3
S'F'
p4
I0
tp5
a(g3
g4
I0
tp6
a(g3
g4
I0
tp7
a(g3
g4
I0
tp8
a(g3
g4
I0
tp9
a(g3
g4
I0
tp10
a(g3
g4
I0
tp11
a(g3
g4
I0
tp12
a(g3
g4
I0
tp13
a(g3
g4
I0
tp14
asS'uncued'
p15
(lp16
S'00700941121fa_sunadsgmtznewzyasnk.jpg'
p17
aS'00870940307fa_sunajrgtewnualfcerj.jpg'
p18
aS'00986960627fa_sunbgzjryivyczuvkvm.jpg'
p19
aS'00891960530fa_sunalkiibhqpxfamlll.jpg'
p20
aS'00082931230fa_sunaafvitpexrpvumsa.jpg'
p21
aS'00276940422fa_sunabmytpyhsgigllxu.jpg'
p22
aS'00773941201fa_sunafvcflzhlqloapyo.jpg'
p23
aS'00305940422fa_sunabtrnbvpppgczjim.jpg'
p24
aS'00835940307fa_sunaijsqpvodplbwxkf.jpg'
p25
aS'00815941205fa_sunahiphsekjihkafsl.jpg'
p26
asS'cued'
p27
(lp28
S'00482940519fa_sunabyfxcxhdebvdyfd.jpg'
p29
aS'00725941201fa_sunaefgzwiramypjvtd.jpg'
p30
aS'00554940519fa_sunacfdkbsrughwqwtt.jpg'
p31
aS'00789960620fa_sunagpancjmxqfazssf.jpg'
p32
aS'00620940928fa_sunacypmnujalygkunp.jpg'
p33
aS'00960960627fa_sunawksfbacycuhbrsc.jpg'
p34
aS'00772941201fa_sunafpfpiiujzoesnqg.jpg'
p35
aS'00750941201fa_sunaeuzwggvibufclwf.jpg'
p36
aS'00801941205fa_sunagvprlbprarvgdvj.jpg'
p37
aS'00955960627fb_sunauburywlkjszngcq.jpg'
p38
asS'uncued_RT'
p39
(lp40
F0.32822203636169434
aF0.37301182746887207
aF0.34299492835998535
aF0.299731969833374
aF0.3147470951080322
aF0.415895938873291
aF0.3236880302429199
aF0.2720909118652344
aF0.29552602767944336
aF0.19146299362182617
asS'cued_RT'
p41
(lp42
s.