(dp0
S'cue_tuples'
p1
(lp2
(S'cue_R'
p3
S'F'
p4
I0
tp5
a(g3
g4
I0
tp6
a(g3
g4
I0
tp7
a(g3
g4
I1
tp8
a(g3
g4
I0
tp9
a(g3
g4
I0
tp10
a(g3
g4
I0
tp11
a(g3
g4
I0
tp12
a(g3
g4
I0
tp13
a(g3
g4
I0
tp14
asS'uncued'
p15
(lp16
S'01005960627fa_sunbwyuesflwdpqtgoy.jpg'
p17
aS'00880960530fa_sunakmnfgklupjijsgf.jpg'
p18
aS'00958960627fa_sunavspxmxubqaeidjt.jpg'
p19
aS'00270940422fb_sunabllobxadqcyttej.jpg'
p20
aS'00120931230fa_sunaakxgygjfqrzpyoz.jpg'
p21
aS'00564941031fa_sunacsaovnjezqwbykf.jpg'
p22
aS'00976960627fa_sunbbhqyyzmsxhsbjmp.jpg'
p23
aS'00905960530fa_sunanmoqeyprjjjfxjt.jpg'
p24
aS'00936960627fa_sunaqgjuuwvdcyiccjt.jpg'
p25
aS'00126931230fb_sunaamdjwemxpmmtypi.jpg'
p26
asS'cued'
p27
(lp28
S'00915960620fa_sunapileznnbbmrwoei.jpg'
p29
aS'00971960627fa_sunbbegcweqnetpdlrh.jpg'
p30
aS'00874940307fa_sunajtrfunvzdfticna.jpg'
p31
aS'00869940307fa_sunajoveqhiprwqgoco.jpg'
p32
aS'00124931230fa_sunaalhlvzmjmitybdn.jpg'
p33
aS'00747941201fa_sunaeutbrtswvsozxyk.jpg'
p34
aS'00818940307fa_sunahpblecxtmuzkmxb.jpg'
p35
aS'00766960620fa_sunafijbgncijwykrnl.jpg'
p36
aS'00264940128fb_sunabjzyxcjnmztdonj.jpg'
p37
aS'00648941031fa_sunadfndyrtqqiasoig.jpg'
p38
asS'uncued_RT'
p39
(lp40
F0.2599630355834961
asS'cued_RT'
p41
(lp42
F0.21501779556274414
aF0.32248902320861816
aF0.3450610637664795
aF0.5318019390106201
aF0.37746596336364746
aF0.3099510669708252
aF0.3317451477050781
aF0.36167001724243164
aF0.486008882522583
as.