(dp0
S'cue_tuples'
p1
(lp2
(S'cue_R'
p3
S'F'
p4
I0
tp5
a(g3
g4
I0
tp6
a(g3
g4
I0
tp7
a(g3
g4
I0
tp8
a(g3
g4
I0
tp9
a(g3
g4
I0
tp10
a(g3
g4
I0
tp11
a(g3
g4
I1
tp12
a(g3
g4
I0
tp13
a(g3
g4
I0
tp14
asS'uncued'
p15
(lp16
S'00479940519fa_sunabxsbfwjccqxxzxq.jpg'
p17
aS'00071941031fa_sunaaexqbtdswxrqjvz.jpg'
p18
aS'00071940128fa_sunaaexpnawiehinlpy.jpg'
p19
aS'00676941121fa_sunadpnqovzckyikrjo.jpg'
p20
aS'00970960627fa_sunbasypfgzjtomktmu.jpg'
p21
aS'00871940307_sunajrujcsdxmfbssmc.jpg'
p22
aS'00061931230fb_sunaaekxzjzrfgtkwjf.jpg'
p23
aS'00122931230fa_sunaakxjfbrrequcjmx.jpg'
p24
aS'00631940928fa_sunadbdqzigzwipuipr.jpg'
p25
aS'00292940422fb_sunabrjdpmoedcdjbpo.jpg'
p26
asS'cued'
p27
(lp28
S'00267940128fb_sunablfqiwfqomjarht.jpg'
p29
aS'00787941205fa_sunagmwxxwymwojbvgi.jpg'
p30
aS'00719960620fa_sunadzuvtmtmgupotmf.jpg'
p31
aS'00296940422fa_sunabrwnslxalcohfre.jpg'
p32
aS'00574940928fa_sunacvbrcejzwmcgnoq.jpg'
p33
aS'00746941201fa_sunaetydippjxikifsb.jpg'
p34
aS'01011960627fa_sundahdxwmcdluscvot.jpg'
p35
aS'00838940307fa_sunaiozxhxgtfrmoagh.jpg'
p36
aS'00119931230fb_sunaakvmbftkrgqhjun.jpg'
p37
aS'00839940307fa_sunaipyohrqlwngaqif.jpg'
p38
asS'uncued_RT'
p39
(lp40
F0.7607290744781494
asS'cued_RT'
p41
(lp42
F0.28948092460632324
aF0.28824877738952637
aF0.4326140880584717
aF0.3785669803619385
aF0.37494587898254395
aF0.3692018985748291
aF0.4063398838043213
aF0.401669979095459
aF0.4277780055999756
as.