(lp0
S'Very engaging'
p1
aS'Very tired'
p2
accopy_reg
_reconstructor
p3
(cfuture.types.newstr
newstr
p4
c__builtin__
unicode
p5
Vscenes - more details to remember
p6
tp7
Rp8
ag3
(g4
g5
Vleft - right eye dominance
p9
tp10
Rp11
ag3
(g4
g5
Vrelating the superimposed images to each other
p12
tp13
Rp14
a.