(dp0
S'cued_RT'
p1
(lp2
sS'cued'
p3
(lp4
S'314_138.jpg'
p5
aS'344_165.jpg'
p6
asS'run_time'
p7
F10.125509977340698
sS'cue_tuples'
p8
(lp9
(S'cue_L'
p10
S'F'
p11
I1
tp12
a(g10
g11
I1
tp13
a(g10
S'L'
p14
I1
tp15
a(g10
g14
I1
tp16
a(S'cue_R'
p17
g11
I1
tp18
a(g17
g11
I1
tp19
a(g17
g14
I1
tp20
a(g17
g14
I1
tp21
asS'uncued'
p22
(lp23
S'348_169.jpg'
p24
aS'262_50.jpg'
p25
asS'uncued_RT'
p26
(lp27
F0.5737431049346924
aF0.7408511638641357
as.