(lp0
S'Neutral'
p1
aS'A little tired'
p2
accopy_reg
_reconstructor
p3
(cfuture.types.newstr
newstr
p4
c__builtin__
unicode
p5
VI found the environments easier to remember, I found it easier to peer through the faces and see the backdrop.
p6
tp7
Rp8
ag3
(g4
g5
VI didn't fine either more easy, they were equal.
p9
tp10
Rp11
ag3
(g4
g5
VI didn't have any strategy other than to attempt to remember a characteristic that was rather prominent and hope to recognize it again later on.
p12
tp13
Rp14
a.