(dp0
S'images'
p1
(lp2
S'House_054.jpg'
p3
aS'House_207.jpg'
p4
aS'House_039.jpg'
p5
aS'House_271.jpg'
p6
aS'191460774_d659ff88e1.jpg'
p7
aS'3720952281_a16db14850.jpg'
p8
aS'2126531585_21b0e2f495.jpg'
p9
aS'2212948575_f5ec835134.jpg'
p10
aS'2143602612_535eeba311.jpg'
p11
aS'NickCamillo.jpg'
p12
asS'ratings'
p13
(lp14
(lp15
(NF0.0
tp16
a(I1
F0.349
tp17
a(I1
F1.012
tp18
aa(lp19
(NF0.0
tp20
a(I3
F0.434
tp21
aa(lp22
(NF0.0
tp23
a(I2
F0.003
tp24
a(I3
F0.352
tp25
a(I2
F0.653
tp26
aa(lp27
(NF0.0
tp28
a(I3
F0.768
tp29
aa(lp30
(NF0.0
tp31
a(I4
F0.003
tp32
a(I2
F0.319
tp33
a(I1
F0.519
tp34
aa(lp35
(NF0.0
tp36
a(I2
F0.364
tp37
a(I3
F0.549
tp38
aa(lp39
(NF0.0
tp40
a(I3
F0.369
tp41
a(I3
F1.015
tp42
aa(lp43
(NF0.0
tp44
a(I4
F0.335
tp45
a(I3
F0.636
tp46
aa(lp47
(NF0.0
tp48
a(I4
F0.369
tp49
a(I3
F0.553
tp50
aa(lp51
(NF0.0
tp52
a(I2
F0.352
tp53
a(I2
F1.014
tp54
aas.