(dp0
S'cued'
p1
(lp2
S'House_271.jpg'
p3
aS'House_207.jpg'
p4
aS'1084223688_e0cf65b8dc.jpg'
p5
aS'House_032.jpg'
p6
aS'2126531585_21b0e2f495.jpg'
p7
aS'1334710778_fb6698d230.jpg'
p8
aS'House_064.jpg'
p9
aS'House_054.jpg'
p10
aS'House_012.jpg'
p11
aS'House_278.jpg'
p12
asS'uncued'
p13
(lp14
S'469257849_5e75df663d.jpg'
p15
aS'2212948575_f5ec835134.jpg'
p16
aS'House_015.jpg'
p17
aS'2143602612_535eeba311.jpg'
p18
aS'House_024.jpg'
p19
aS'House_039.jpg'
p20
aS'18425493_bb2b2dfc21.jpg'
p21
aS'2859395616_b0e08436e3.jpg'
p22
aS'321891703_955ccde4c4.jpg'
p23
aS'3720952281_a16db14850.jpg'
p24
asS'uncued_RT'
p25
(lp26
F0.8830599784851074
aF0.3662707805633545
aF0.47113513946533203
aF0.40059995651245117
aF0.4840869903564453
aF0.3323519229888916
aF0.2992870807647705
asS'cued_RT'
p27
(lp28
F0.4496490955352783
aF0.5834219455718994
aF0.28815507888793945
as.