(dp0
S'images'
p1
(lp2
S'2208543015_c7d1711a1f.jpg'
p3
aS'3010924433_2c804f70df.jpg'
p4
aS'nick-stars-exclusive-january-2012-victorious-detention-clip.jpg'
p5
aS'3720952281_a16db14850.jpg'
p6
aS'2859395616_b0e08436e3.jpg'
p7
aS'House_011.jpg'
p8
aS'2842065057_0373500268.jpg'
p9
aS'House_282.jpg'
p10
aS'317274405_c46c161614.jpg'
p11
aS'House_058.jpg'
p12
asS'ratings'
p13
(lp14
(lp15
(NF0.0
tp16
a(I3
F0.35
tp17
a(I3
F1.011
tp18
aa(lp19
(NF0.0
tp20
a(I3
F0.351
tp21
a(I2
F0.586
tp22
aa(lp23
(NF0.0
tp24
a(I1
F0.351
tp25
a(I2
F0.654
tp26
aa(lp27
(NF0.0
tp28
a(I2
F0.351
tp29
a(I3
F0.503
tp30
aa(lp31
(NF0.0
tp32
a(I2
F0.403
tp33
a(I4
F0.503
tp34
aa(lp35
(NF0.0
tp36
a(I4
F0.267
tp37
a(I4
F1.012
tp38
aa(lp39
(NF0.0
tp40
a(I4
F0.335
tp41
a(I3
F0.936
tp42
aa(lp43
(NF0.0
tp44
a(I4
F0.305
tp45
a(I2
F0.984
tp46
aa(lp47
(NF0.0
tp48
a(I3
F0.501
tp49
aa(lp50
(NF0.0
tp51
a(I1
F0.253
tp52
a(I1
F1.014
tp53
aas.