(dp0
S'cued'
p1
(lp2
S'House_271.jpg'
p3
aS'18425493_bb2b2dfc21.jpg'
p4
aS'Philipp_Freyberg.JPG'
p5
aS'House_040.jpg'
p6
aS'House_281.jpg'
p7
aS'2859395616_b0e08436e3.jpg'
p8
aS'House_273.jpg'
p9
aS'House_259.jpg'
p10
aS'House_054.jpg'
p11
aS'House_014.jpg'
p12
asS'uncued'
p13
(lp14
S'2207871677_eb55ba012b.jpg'
p15
aS'House_207.jpg'
p16
aS'House_043.jpg'
p17
aS'3720952281_a16db14850.jpg'
p18
aS'2126687704_fe00e58bb4.jpg'
p19
aS'House_011.jpg'
p20
aS'2842065057_0373500268.jpg'
p21
aS'nick-stars-exclusive-january-2012-victorious-detention-clip.jpg'
p22
aS'2212948575_f5ec835134.jpg'
p23
aS'317274405_c46c161614.jpg'
p24
asS'uncued_RT'
p25
(lp26
F0.7095661163330078
aF0.30781984329223633
aF0.34702301025390625
aF0.3325769901275635
aF0.3618137836456299
aF0.44246602058410645
aF0.5916149616241455
aF0.39278507232666016
aF0.392794132232666
asS'cued_RT'
p27
(lp28
F0.5922369956970215
as.