(dp0
S'images'
p1
(lp2
S'House_281.jpg'
p3
aS'3767135241_58b82a53b7.jpg'
p4
aS'House_060.jpg'
p5
aS'House_064.jpg'
p6
aS'18425493_bb2b2dfc21.jpg'
p7
aS'House_068.jpg'
p8
aS'julien_closeup.jpg'
p9
aS'House_013.jpg'
p10
aS'House_278.jpg'
p11
aS'321892004_818f5e397e.jpg'
p12
asS'ratings'
p13
(lp14
(lp15
(NF0.0
tp16
a(I2
F0.584
tp17
aa(lp18
(NF0.0
tp19
a(I3
F0.467
tp20
aa(lp21
(NF0.0
tp22
a(I1
F0.434
tp23
aa(lp24
(NF0.0
tp25
a(I2
F0.402
tp26
a(I2
F1.014
tp27
aa(lp28
(NF0.0
tp29
a(I4
F0.285
tp30
a(I4
F1.013
tp31
aa(lp32
(NF0.0
tp33
a(I3
F0.417
tp34
aa(lp35
(NF0.0
tp36
a(I1
F0.752
tp37
aa(lp38
(NF0.0
tp39
a(I2
F0.353
tp40
a(I2
F0.604
tp41
a(I2
F0.604
tp42
aa(lp43
(NF0.0
tp44
a(I3
F0.353
tp45
a(I3
F1.015
tp46
aa(lp47
(NF0.0
tp48
a(I1
F0.284
tp49
a(I1
F1.012
tp50
aas.