(dp0
S'cued'
p1
(lp2
S'316259418_f617f42325.jpg'
p3
aS'494603933_d1ff338bb6.jpg'
p4
aS'321892004_818f5e397e.jpg'
p5
aS'House_241.jpg'
p6
aS'House_281.jpg'
p7
aS'House_017.jpg'
p8
aS'House_068.jpg'
p9
aS'2842065057_0373500268.jpg'
p10
aS'House_024.jpg'
p11
aS'House_207.jpg'
p12
asS'uncued'
p13
(lp14
S'House_012.jpg'
p15
aS'House_013.jpg'
p16
aS'House_271.jpg'
p17
aS'311058332_5004d96902.jpg'
p18
aS'348272697_832ce65324.jpg'
p19
aS'4861975989_9c1ac8bb60.jpg'
p20
aS'26656_Sarah.jpg'
p21
aS'House_054.jpg'
p22
aS'18425493_bb2b2dfc21.jpg'
p23
aS'3767135241_58b82a53b7.jpg'
p24
asS'uncued_RT'
p25
(lp26
F0.2588081359863281
aF0.3785989284515381
aF0.3775639533996582
aF0.3444478511810303
aF0.4292309284210205
aF0.4524998664855957
aF0.3795430660247803
asS'cued_RT'
p27
(lp28
F0.5796608924865723
aF0.4121699333190918
aF0.33807992935180664
as.