(dp0
S'images'
p1
(lp2
S'26372404.thl.jpg'
p3
aS'sunagtqhhwxjeuxdebe.jpg'
p4
aS'sunaakxjfbrrequcjmx.jpg'
p5
aS'26421538.thl.jpg'
p6
aS'23016343.thl.jpg'
p7
aS'22869912.thl.jpg'
p8
aS'26373735.thl.jpg'
p9
aS'22854888.thl.jpg'
p10
aS'26377631.thl.jpg'
p11
aS'26431205.thl.jpg'
p12
aS'sunaavodbcpygkggnfp.jpg'
p13
aS'26427910.thl.jpg'
p14
aS'sunacjkmnpawfzbyvae.jpg'
p15
aS'sunadikxpvqeabxrvvc.jpg'
p16
aS'sunaangbuylfvckqqoo.jpg'
p17
aS'26431848.thl.jpg'
p18
aS'26423175.thl.jpg'
p19
aS'22896812.thl.jpg'
p20
aS'sunaetydippjxikifsb.jpg'
p21
aS'sunabaergayifsgacxt.jpg'
p22
aS'26420956.thl.jpg'
p23
aS'26433849.thl.jpg'
p24
aS'sunahqldjibofgsfdgb.jpg'
p25
aS'sunaathajvxrgptwhoj.jpg'
p26
aS'23070748.thl.jpg'
p27
aS'sunahqrxievfeusiqlt.jpg'
p28
aS'26423905.thl.jpg'
p29
aS'sunaahzooisqkwlxwoz.jpg'
p30
aS'26419231.thl.jpg'
p31
aS'sunahpblecxtmuzkmxb.jpg'
p32
aS'sunbagfpovqwbuexqdn.jpg'
p33
aS'sunapqwoeotxshkukbh.jpg'
p34
aS'26388148.thl.jpg'
p35
aS'26423242.thl.jpg'
p36
aS'sunasmmcxdddtmtazwx.jpg'
p37
aS'sunagdzlvkqtpnfxfcg.jpg'
p38
aS'26374713.thl.jpg'
p39
aS'sunafvcflzhlqloapyo.jpg'
p40
aS'sunagvxkjokqimstxpe.jpg'
p41
aS'sunaflojskatpeqyzqp.jpg'
p42
asS'ratings'
p43
(lp44
(lp45
(NF0.0
tp46
a(I1
F1.049
tp47
aa(lp48
(NF0.0
tp49
a(I1
F1.396
tp50
aa(lp51
(NF0.0
tp52
a(I2
F1.446
tp53
aa(lp54
(NF0.0
tp55
a(I3
F1.214
tp56
aa(lp57
(NF0.0
tp58
a(I2
F1.297
tp59
aa(lp60
(NF0.0
tp61
a(I2
F1.63
tp62
aa(lp63
(NF0.0
tp64
a(I1
F1.966
tp65
aa(lp66
(NF0.0
tp67
a(I4
F1.224
tp68
aa(lp69
(NF0.0
tp70
a(I4
F1.37
tp71
aa(lp72
(NF0.0
tp73
a(I3
F1.332
tp74
aa(lp75
(NF0.0
tp76
a(I1
F1.162
tp77
aa(lp78
(NF0.0
tp79
a(I3
F1.425
tp80
aa(lp81
(NF0.0
tp82
a(I1
F1.782
tp83
aa(lp84
(NF0.0
tp85
a(I2
F1.424
tp86
aa(lp87
(NF0.0
tp88
a(I2
F1.814
tp89
aa(lp90
(NF0.0
tp91
aa(lp92
(NF0.0
tp93
a(I1
F0.829
tp94
aa(lp95
(NF0.0
tp96
a(I3
F0.832
tp97
aa(lp98
(NF0.0
tp99
a(I2
F0.767
tp100
aa(lp101
(NF0.0
tp102
a(I1
F1.172
tp103
aa(lp104
(NF0.0
tp105
a(I1
F0.985
tp106
aa(lp107
(NF0.0
tp108
a(I4
F1.315
tp109
aa(lp110
(NF0.0
tp111
a(I3
F0.942
tp112
aa(lp113
(NF0.0
tp114
a(I2
F1.122
tp115
aa(lp116
(NF0.0
tp117
a(I1
F1.052
tp118
aa(lp119
(NF0.0
tp120
a(I3
F0.979
tp121
aa(lp122
(NF0.0
tp123
a(I1
F1.143
tp124
aa(lp125
(NF0.0
tp126
a(I2
F0.987
tp127
aa(lp128
(NF0.0
tp129
a(I3
F1.063
tp130
aa(lp131
(NF0.0
tp132
a(I1
F1.513
tp133
aa(lp134
(NF0.0
tp135
a(I3
F0.875
tp136
aa(lp137
(NF0.0
tp138
a(I3
F1.021
tp139
aa(lp140
(NF0.0
tp141
a(I2
F1.6
tp142
aa(lp143
(NF0.0
tp144
a(I4
F1.297
tp145
aa(lp146
(NF0.0
tp147
a(I3
F1.241
tp148
aa(lp149
(NF0.0
tp150
a(I3
F1.57
tp151
aa(lp152
(NF0.0
tp153
a(I3
F1.284
tp154
aa(lp155
(NF0.0
tp156
a(I2
F1.261
tp157
aa(lp158
(NF0.0
tp159
a(I1
F1.124
tp160
aa(lp161
(NF0.0
tp162
a(I2
F1.152
tp163
aasS'run_time'
p164
F122.7596480846405
sS'total_iters'
p165
(lp166
I0
aI1
aI2
aI3
aI4
aI5
aI6
aI7
aI8
aI9
aI10
aI11
aI12
aI13
aI14
aI15
aI16
aI17
aI18
aI19
aI20
aI21
aI22
aI23
aI24
aI25
aI26
aI27
aI28
aI29
aI30
aI31
aI32
aI33
aI34
aI35
aI36
aI37
aI38
aI39
as.