(dp0
S'images'
p1
(lp2
S'26374731.thl.jpg'
p3
aS'sunadqmjrhfjyuzyvdd.jpg'
p4
aS'22826448.thl.jpg'
p5
aS'sunafvsxtzaizojicxx.jpg'
p6
aS'26389125.thl.jpg'
p7
aS'23063814.thl.jpg'
p8
aS'26374767.thl.jpg'
p9
aS'26443034.thl.jpg'
p10
aS'sunbbegcweqnetpdlrh.jpg'
p11
aS'sunbvzmgrdvaakxusbu.jpg'
p12
aS'sunagjeesomrwjsfqie.jpg'
p13
aS'sunaawqdbpihmlbwyyn.jpg'
p14
aS'26434297.thl.jpg'
p15
aS'sunafowswglhxcsufpo.jpg'
p16
aS'sunabzjxlmkwnwzimua.jpg'
p17
aS'26379570.thl.jpg'
p18
aS'26451318.thl.jpg'
p19
aS'sunadrmfzmstgdjdcod.jpg'
p20
aS'sunabyfxcxhdebvdyfd.jpg'
p21
aS'sunaezuszgtxnmsxdbk.jpg'
p22
aS'22925624.thl.jpg'
p23
aS'26393373.thl.jpg'
p24
aS'sunagetqixeypsysbpn.jpg'
p25
aS'suncnkvbhypnivcohyx.jpg'
p26
aS'26455774.thl.jpg'
p27
aS'26282515.thl.jpg'
p28
aS'26420830.thl.jpg'
p29
aS'26375953.thl.jpg'
p30
aS'sunaajuzribjrizdshh.jpg'
p31
aS'26374605.thl.jpg'
p32
aS'26379647.thl.jpg'
p33
aS'sunabwjvmoaddlyxfjr.jpg'
p34
aS'26374089.thl.jpg'
p35
aS'26373362.thl.jpg'
p36
aS'26433942.thl.jpg'
p37
aS'sunafgzgbisbopcyslr.jpg'
p38
aS'sunajrujcsdxmfbssmc.jpg'
p39
aS'sunagvprlbprarvgdvj.jpg'
p40
aS'sunacwggadqsfpovdjv.jpg'
p41
aS'sunbxzweleltykebgan.jpg'
p42
asS'ratings'
p43
(lp44
(lp45
(NF0.0
tp46
a(I1
F1.548
tp47
aa(lp48
(NF0.0
tp49
a(I1
F1.061
tp50
aa(lp51
(NF0.0
tp52
a(I2
F1.629
tp53
aa(lp54
(NF0.0
tp55
a(I1
F1.481
tp56
aa(lp57
(NF0.0
tp58
a(I2
F1.493
tp59
aa(lp60
(NF0.0
tp61
aa(lp62
(NF0.0
tp63
a(I3
F0.931
tp64
aa(lp65
(NF0.0
tp66
a(I3
F1.38
tp67
aa(lp68
(NF0.0
tp69
a(I1
F1.8
tp70
aa(lp71
(NF0.0
tp72
a(I3
F1.463
tp73
aa(lp74
(NF0.0
tp75
a(I2
F1.597
tp76
aa(lp77
(NF0.0
tp78
a(I2
F1.631
tp79
aa(lp80
(NF0.0
tp81
a(I2
F1.93
tp82
aa(lp83
(NF0.0
tp84
aa(lp85
(NF0.0
tp86
a(I4
F1.095
tp87
aa(lp88
(NF0.0
tp89
a(I3
F1.383
tp90
aa(lp91
(NF0.0
tp92
a(I2
F1.13
tp93
aa(lp94
(NF0.0
tp95
a(I1
F1.046
tp96
aa(lp97
(NF0.0
tp98
a(I4
F1.547
tp99
aa(lp100
(NF0.0
tp101
a(I1
F1.079
tp102
aa(lp103
(NF0.0
tp104
a(I2
F1.362
tp105
aa(lp106
(NF0.0
tp107
a(I2
F1.165
tp108
aa(lp109
(NF0.0
tp110
a(I3
F1.363
tp111
aa(lp112
(NF0.0
tp113
a(I2
F1.347
tp114
aa(lp115
(NF0.0
tp116
a(I3
F1.614
tp117
aa(lp118
(NF0.0
tp119
a(I2
F1.412
tp120
aa(lp121
(NF0.0
tp122
a(I2
F1.197
tp123
aa(lp124
(NF0.0
tp125
a(I2
F1.547
tp126
aa(lp127
(NF0.0
tp128
a(I4
F1.047
tp129
aa(lp130
(NF0.0
tp131
a(I1
F1.147
tp132
aa(lp133
(NF0.0
tp134
a(I2
F1.213
tp135
aa(lp136
(NF0.0
tp137
a(I1
F1.196
tp138
aa(lp139
(NF0.0
tp140
a(I2
F1.063
tp141
aa(lp142
(NF0.0
tp143
a(I2
F1.163
tp144
aa(lp145
(NF0.0
tp146
a(I1
F1.68
tp147
aa(lp148
(NF0.0
tp149
a(I1
F1.612
tp150
aa(lp151
(NF0.0
tp152
a(I1
F1.346
tp153
aa(lp154
(NF0.0
tp155
a(I1
F1.362
tp156
aa(lp157
(NF0.0
tp158
a(I1
F1.662
tp159
aa(lp160
(NF0.0
tp161
a(I3
F1.397
tp162
aasS'run_time'
p163
F122.19255304336548
sS'total_iters'
p164
(lp165
I0
aI1
aI2
aI3
aI4
aI5
aI6
aI7
aI8
aI9
aI10
aI11
aI12
aI13
aI14
aI15
aI16
aI17
aI18
aI19
aI20
aI21
aI22
aI23
aI24
aI25
aI26
aI27
aI28
aI29
aI30
aI31
aI32
aI33
aI34
aI35
aI36
aI37
aI38
aI39
as.