(dp0
S'cue_tuples'
p1
(lp2
(S'cue_L'
p3
S'L'
p4
I0
tp5
a(g3
g4
I0
tp6
a(g3
g4
I0
tp7
a(g3
g4
I0
tp8
a(g3
g4
I1
tp9
a(g3
g4
I0
tp10
a(g3
g4
I1
tp11
a(g3
g4
I0
tp12
a(g3
g4
I0
tp13
a(g3
g4
I1
tp14
asS'uncued'
p15
(lp16
S'26373068.thl_sunacwggadqsfpovdjv.jpg'
p17
aS'26437064.thl_sunavspxmxubqaeidjt.jpg'
p18
aS'22856256.thl_sunaampvucecsfbdafn.jpg'
p19
aS'26389125.thl_sunafvsxtzaizojicxx.jpg'
p20
aS'26433942.thl_sunasnqkkyhilqkxiqm.jpg'
p21
aS'23063814.thl_sunabwjvmoaddlyxfjr.jpg'
p22
aS'26385058.thl_sunafgzgbisbopcyslr.jpg'
p23
aS'26375953.thl_sunadzuvtmtmgupotmf.jpg'
p24
aS'26379570.thl_sunaeuvjbmdpknaqqaj.jpg'
p25
aS'26426317.thl_sunajrujcsdxmfbssmc.jpg'
p26
asS'cued'
p27
(lp28
S'26379647.thl_sunaezuszgtxnmsxdbk.jpg'
p29
aS'22849344.thl_sunaajuzribjrizdshh.jpg'
p30
aS'26374767.thl_sunadnjjzohjhbohlwq.jpg'
p31
aS'26420830.thl_sunagsiwrmuixqgdimb.jpg'
p32
aS'26374166.thl_sunaddtdkycxbqlpfqa.jpg'
p33
aS'26442809.thl_sunbgzjryivyczuvkvm.jpg'
p34
aS'26282515.thl_sunabzjxlmkwnwzimua.jpg'
p35
aS'26421370.thl_sunagvprlbprarvgdvj.jpg'
p36
aS'26392231.thl_sunagetqixeypsysbpn.jpg'
p37
aS'22826448.thl_sunaaheqzstzxuadglu.jpg'
p38
asS'uncued_RT'
p39
(lp40
F0.691295862197876
aF0.6748111248016357
aF0.5827810764312744
asS'cued_RT'
p41
(lp42
F0.6394369602203369
aF0.4009530544281006
aF0.40273189544677734
aF0.3995969295501709
aF0.2982790470123291
aF0.4027230739593506
aF0.2788360118865967
as.