(dp0
S'cue_tuples'
p1
(lp2
(S'cue_R'
p3
S'L'
p4
I0
tp5
a(g3
g4
I0
tp6
a(g3
g4
I0
tp7
a(g3
g4
I0
tp8
a(g3
g4
I0
tp9
a(g3
g4
I0
tp10
a(g3
g4
I0
tp11
a(g3
g4
I0
tp12
a(g3
g4
I0
tp13
a(g3
g4
I0
tp14
asS'uncued'
p15
(lp16
S'26390189.thl_sunafvtpfczkzopbgue.jpg'
p17
aS'26439504.thl_sunbaoizrfijvhpnnjn.jpg'
p18
aS'26421536.thl_sunagwswhkvnsmuszlz.jpg'
p19
aS'22923068.thl_sunabcfpwlpolnutyju.jpg'
p20
aS'22856784.thl_sunaamsdyakblkfoydx.jpg'
p21
aS'23048010.thl_sunabtlfmiwtljmoues.jpg'
p22
aS'22857516.thl_sunaanlwnpqndclffxt.jpg'
p23
aS'26434233.thl_sunasrjlmglmjzbmqxb.jpg'
p24
aS'26440422.thl_sunbbxkanhzjgbwyxqs.jpg'
p25
aS'26428057.thl_sunalqmfgeadpqsyzpd.jpg'
p26
asS'cued'
p27
(lp28
S'26369999.thl_sunacdnquypmsshhsbk.jpg'
p29
aS'26391173.thl_sunagcthdfirrcawoic.jpg'
p30
aS'26437028.thl_sunavhxgmgrqsaptynb.jpg'
p31
aS'26433592.thl_sunarpsxqkduedrrzyi.jpg'
p32
aS'26370659.thm_sunachtuarilwyqnvjx.jpg'
p33
aS'26394018.thl_sunagjzcrjvmxzqzljx.jpg'
p34
aS'26465824.thl_sundbixjudsgeuuehrn.jpg'
p35
aS'23071000.thl_sunabxsuqbleluwczoy.jpg'
p36
aS'22861656.thl_sunaapxkpvrhpjplsok.jpg'
p37
aS'26429097.thl_sunantryfbloeaomfta.jpg'
p38
asS'uncued_RT'
p39
(lp40
sS'cued_RT'
p41
(lp42
F0.6088051795959473
aF0.3712129592895508
aF0.44011902809143066
aF0.3858799934387207
aF0.40584611892700195
aF0.46561098098754883
aF0.315277099609375
aF0.3849821090698242
aF0.5416610240936279
aF0.42824506759643555
as.