(dp0
S'images'
p1
(lp2
S'sunarceibpcyacbmfga.jpg'
p3
aS'sunalntxqqadigcletd.jpg'
p4
aS'22857516.thl.jpg'
p5
aS'26464872.thl.jpg'
p6
aS'sunagwswhkvnsmuszlz.jpg'
p7
aS'sunaatpeezlljqaxlhj.jpg'
p8
aS'23071000.thl.jpg'
p9
aS'26374055.thl.jpg'
p10
aS'sunaknlirqjqiwbbeeg.jpg'
p11
aS'26434233.thl.jpg'
p12
aS'26437028.thl.jpg'
p13
aS'26379430.thl.jpg'
p14
aS'sundbixjudsgeuuehrn.jpg'
p15
aS'sunaapxkpvrhpjplsok.jpg'
p16
aS'23048010.thl.jpg'
p17
aS'26375896.thl.jpg'
p18
aS'26421536.thl.jpg'
p19
aS'26432760.thl.jpg'
p20
aS'26391173.thl.jpg'
p21
aS'sunaauueuhhvklldjik.jpg'
p22
aS'sunaayehfdqcyxggsej.jpg'
p23
aS'sunadfktsqjthoglcsm.jpg'
p24
aS'sunbbxkanhzjgbwyxqs.jpg'
p25
aS'26423812.thl.jpg'
p26
aS'sunabcfpwlpolnutyju.jpg'
p27
aS'26390189.thl.jpg'
p28
aS'sunafhmnhsdurlvddpw.jpg'
p29
aS'sunacdnquypmsshhsbk.jpg'
p30
aS'26423465.thl.jpg'
p31
aS'26433592.thl.jpg'
p32
aS'26429097.thl.jpg'
p33
aS'sunagjzcrjvmxzqzljx.jpg'
p34
aS'22910996.thl.jpg'
p35
aS'sunaamsdyakblkfoydx.jpg'
p36
aS'26377777.thl.jpg'
p37
aS'sunadoxcchtmsxewsau.jpg'
p38
aS'sunalqmfgeadpqsyzpd.jpg'
p39
aS'sunarpsxqkduedrrzyi.jpg'
p40
aS'sunajrgtewnualfcerj.jpg'
p41
aS'22886412.thl.jpg'
p42
asS'ratings'
p43
(lp44
(lp45
(NF0.0
tp46
a(I2
F1.376
tp47
aa(lp48
(NF0.0
tp49
a(I2
F0.879
tp50
aa(lp51
(NF0.0
tp52
a(I3
F1.014
tp53
aa(lp54
(NF0.0
tp55
a(I1
F0.878
tp56
aa(lp57
(NF0.0
tp58
a(I3
F1.062
tp59
aa(lp60
(NF0.0
tp61
a(I3
F1.699
tp62
aa(lp63
(NF0.0
tp64
a(I1
F0.895
tp65
aa(lp66
(NF0.0
tp67
a(I1
F1.009
tp68
aa(lp69
(NF0.0
tp70
a(I2
F1.971
tp71
aa(lp72
(NF0.0
tp73
a(I2
F0.999
tp74
aa(lp75
(NF0.0
tp76
aa(lp77
(NF0.0
tp78
a(I2
F0.924
tp79
aa(lp80
(NF0.0
tp81
a(I1
F1.37
tp82
aa(lp83
(NF0.0
tp84
a(I1
F1.432
tp85
aa(lp86
(NF0.0
tp87
a(I1
F1.194
tp88
aa(lp89
(NF0.0
tp90
a(I2
F0.924
tp91
aa(lp92
(NF0.0
tp93
a(I3
F1.269
tp94
aa(lp95
(NF0.0
tp96
a(I2
F1.099
tp97
aa(lp98
(NF0.0
tp99
a(I1
F1.294
tp100
aa(lp101
(NF0.0
tp102
a(I1
F1.622
tp103
aa(lp104
(NF0.0
tp105
a(I4
F1.084
tp106
aa(lp107
(NF0.0
tp108
a(I3
F1.748
tp109
aa(lp110
(NF0.0
tp111
a(I1
F1.292
tp112
aa(lp113
(NF0.0
tp114
a(I2
F1.189
tp115
aa(lp116
(NF0.0
tp117
a(I2
F1.418
tp118
aa(lp119
(NF0.0
tp120
a(I2
F1.196
tp121
aa(lp122
(NF0.0
tp123
a(I2
F0.842
tp124
aa(lp125
(NF0.0
tp126
a(I3
F1.353
tp127
aa(lp128
(NF0.0
tp129
a(I1
F1.384
tp130
aa(lp131
(NF0.0
tp132
a(I2
F1.095
tp133
aa(lp134
(NF0.0
tp135
a(I2
F0.943
tp136
aa(lp137
(NF0.0
tp138
aa(lp139
(NF0.0
tp140
a(I2
F0.983
tp141
aa(lp142
(NF0.0
tp143
a(I3
F1.011
tp144
aa(lp145
(NF0.0
tp146
a(I2
F1.147
tp147
aa(lp148
(NF0.0
tp149
a(I1
F1.252
tp150
aa(lp151
(NF0.0
tp152
a(I2
F1.103
tp153
aa(lp154
(NF0.0
tp155
a(I4
F0.778
tp156
aa(lp157
(NF0.0
tp158
a(I2
F1.257
tp159
aa(lp160
(NF0.0
tp161
a(I2
F1.42
tp162
aasS'run_time'
p163
F122.86093997955322
sS'total_iters'
p164
(lp165
I0
aI1
aI2
aI3
aI4
aI5
aI6
aI7
aI8
aI9
aI10
aI11
aI12
aI13
aI14
aI15
aI16
aI17
aI18
aI19
aI20
aI21
aI22
aI23
aI24
aI25
aI26
aI27
aI28
aI29
aI30
aI31
aI32
aI33
aI34
aI35
aI36
aI37
aI38
aI39
as.