(dp0
S'cue_tuples'
p1
(lp2
(S'cue_R'
p3
S'F'
p4
I0
tp5
a(g3
g4
I1
tp6
a(g3
g4
I0
tp7
a(g3
g4
I0
tp8
a(g3
g4
I0
tp9
a(g3
g4
I0
tp10
a(g3
g4
I0
tp11
a(g3
g4
I1
tp12
a(g3
g4
I0
tp13
a(g3
g4
I0
tp14
asS'uncued'
p15
(lp16
S'22925228.thl_sunabcuurugvxwparpk.jpg'
p17
aS'26442719.thl_sunbgklxeqjhdbyfhhy.jpg'
p18
aS'26423873.thl_sunainqelldeebvxtcz.jpg'
p19
aS'26441591.thl_sunbfyvfqiimvdaxlqn.jpg'
p20
aS'26429123.thl_sunanwjjyqqwzqrqagd.jpg'
p21
aS'26373195.thl_sunacxeheuiigkcgquf.jpg'
p22
aS'22919000.thl_sunabasphceswhwwqvv.jpg'
p23
aS'26419670.thl_sunagpancjmxqfazssf.jpg'
p24
aS'26384554.thl_sunafcofuuzebuadceo.jpg'
p25
aS'26433387.thl_sunarfdklgdnjgeqfjg.jpg'
p26
asS'cued'
p27
(lp28
S'26419025.thl_sunagmwxxwymwojbvgi.jpg'
p29
aS'23016235.thl_sunabkngeblodihjvbk.jpg'
p30
aS'26429137.thl_sunaofikylqtxphvdem.jpg'
p31
aS'26423477.thl_sunahuynahneraqftyz.jpg'
p32
aS'26420893.thl_sunagtjwilqjvxohypn.jpg'
p33
aS'26425322.thl_sunajawzbrlrwafowen.jpg'
p34
aS'26457349.thl_sunbwdrdvsweerwsdrj.jpg'
p35
aS'26387436.thl_sunafijbgncijwykrnl.jpg'
p36
aS'26428576.thl_sunammbnoambmhdxdwd.jpg'
p37
aS'26424443.thl_sunaiwduelojtwaqeyh.jpg'
p38
asS'uncued_RT'
p39
(lp40
F0.6353569030761719
aF0.5888941287994385
asS'cued_RT'
p41
(lp42
F0.38979601860046387
aF0.41355299949645996
aF0.36017894744873047
aF0.5418319702148438
aF0.5637669563293457
aF0.4083399772644043
aF0.31972789764404297
aF0.4298431873321533
as.