(dp0
S'images'
p1
(lp2
S'sunahctntqrunhdxhtb.jpg'
p3
aS'26440261.thl.jpg'
p4
aS'26437077.thl.jpg'
p5
aS'26427867.thl.jpg'
p6
aS'26375702.thl.jpg'
p7
aS'sunahiphsekjihkafsl.jpg'
p8
aS'23014927.thl.jpg'
p9
aS'26422216.thl.jpg'
p10
aS'sunacsdhbbsybcyxnel.jpg'
p11
aS'26384871.thl.jpg'
p12
aS'22866972.thl.jpg'
p13
aS'sunbxarcshsnqsefemx.jpg'
p14
aS'sunabxmguapjekttvwm.jpg'
p15
aS'26451219.thl.jpg'
p16
aS'sunabyvpwkgsjtijdwj.jpg'
p17
aS'26421070.thl.jpg'
p18
aS'26372390.thl.jpg'
p19
aS'sunauburywlkjszngcq.jpg'
p20
aS'sunbprywzqxjcezkbch.jpg'
p21
aS'sunayaepykrqvenaqqy.jpg'
p22
aS'26423303.thl.jpg'
p23
aS'03015528000.jpg'
p24
aS'sunabmytpyhsgigllxu.jpg'
p25
aS'26370651.thm.jpg'
p26
aS'26433686.thl.jpg'
p27
aS'22921112.thl.jpg'
p28
aS'sunadtlxenqqxsyjvix.jpg'
p29
aS'26423652.thl.jpg'
p30
aS'sunahbvlpavurqoxdeq.jpg'
p31
aS'22903148.thl.jpg'
p32
aS'sunabgfhvifeijihhjw.jpg'
p33
aS'sunapqkpqdfvxlbqwyo.jpg'
p34
aS'sunahwgbqkqcrwprgvh.jpg'
p35
aS'sunahtfxgsrmkiulnwk.jpg'
p36
aS'sunaqsolmfydodnakub.jpg'
p37
aS'26434546.thl.jpg'
p38
aS'sunaiwfobocrruqznsv.jpg'
p39
aS'sunacsaovnjezqwbykf.jpg'
p40
aS'26461587.thl.jpg'
p41
aS'sunapqwnqzxlsfvgsjm.jpg'
p42
asS'ratings'
p43
(lp44
(lp45
(NF0.0
tp46
a(I1
F0.964
tp47
aa(lp48
(NF0.0
tp49
a(I2
F1.178
tp50
aa(lp51
(NF0.0
tp52
a(I3
F1.119
tp53
aa(lp54
(NF0.0
tp55
a(I2
F1.029
tp56
aa(lp57
(NF0.0
tp58
a(I1
F0.63
tp59
aa(lp60
(NF0.0
tp61
a(I2
F1.496
tp62
aa(lp63
(NF0.0
tp64
a(I1
F1.696
tp65
aa(lp66
(NF0.0
tp67
a(I2
F0.865
tp68
aa(lp69
(NF0.0
tp70
a(I2
F1.396
tp71
aa(lp72
(NF0.0
tp73
a(I2
F1.83
tp74
aa(lp75
(NF0.0
tp76
a(I2
F1.931
tp77
aa(lp78
(NF0.0
tp79
a(I3
F1.178
tp80
aa(lp81
(NF0.0
tp82
a(I3
F1.745
tp83
aa(lp84
(NF0.0
tp85
a(I1
F1.237
tp86
aa(lp87
(NF0.0
tp88
a(I2
F1.314
tp89
aa(lp90
(NF0.0
tp91
a(I2
F1.419
tp92
aa(lp93
(NF0.0
tp94
a(I1
F1.814
tp95
aa(lp96
(NF0.0
tp97
a(I3
F1.027
tp98
aa(lp99
(NF0.0
tp100
a(I4
F1.161
tp101
aa(lp102
(NF0.0
tp103
a(I1
F0.896
tp104
aa(lp105
(NF0.0
tp106
a(I2
F1.164
tp107
aa(lp108
(NF0.0
tp109
a(I2
F1.395
tp110
aa(lp111
(NF0.0
tp112
a(I3
F0.919
tp113
aa(lp114
(NF0.0
tp115
a(I1
F1.178
tp116
aa(lp117
(NF0.0
tp118
a(I1
F1.197
tp119
aa(lp120
(NF0.0
tp121
a(I1
F0.781
tp122
aa(lp123
(NF0.0
tp124
a(I1
F0.994
tp125
aa(lp126
(NF0.0
tp127
a(I3
F1.175
tp128
aa(lp129
(NF0.0
tp130
a(I3
F0.988
tp131
aa(lp132
(NF0.0
tp133
a(I1
F1.147
tp134
aa(lp135
(NF0.0
tp136
a(I3
F1.176
tp137
aa(lp138
(NF0.0
tp139
a(I2
F1.228
tp140
aa(lp141
(NF0.0
tp142
a(I4
F1.187
tp143
aa(lp144
(NF0.0
tp145
a(I2
F1.783
tp146
aa(lp147
(NF0.0
tp148
a(I1
F1.777
tp149
aa(lp150
(NF0.0
tp151
a(I1
F1.274
tp152
aa(lp153
(NF0.0
tp154
a(I3
F1.302
tp155
aa(lp156
(NF0.0
tp157
a(I1
F1.281
tp158
aa(lp159
(NF0.0
tp160
a(I2
F1.51
tp161
aa(lp162
(NF0.0
tp163
a(I4
F1.139
tp164
aasS'run_time'
p165
F122.4929370880127
sS'total_iters'
p166
(lp167
I0
aI1
aI2
aI3
aI4
aI5
aI6
aI7
aI8
aI9
aI10
aI11
aI12
aI13
aI14
aI15
aI16
aI17
aI18
aI19
aI20
aI21
aI22
aI23
aI24
aI25
aI26
aI27
aI28
aI29
aI30
aI31
aI32
aI33
aI34
aI35
aI36
aI37
aI38
aI39
as.