(dp0
S'cue_tuples'
p1
(lp2
(S'cue_L'
p3
S'F'
p4
I1
tp5
a(g3
g4
I1
tp6
a(g3
g4
I0
tp7
a(g3
g4
I0
tp8
a(g3
g4
I0
tp9
a(g3
g4
I0
tp10
a(g3
g4
I0
tp11
a(g3
g4
I0
tp12
a(g3
g4
I0
tp13
a(g3
g4
I0
tp14
asS'uncued'
p15
(lp16
S'23057742.thl_sunabueyoajufbkraki.jpg'
p17
aS'26425323.thl_sunajbwkywmsqkldfml.jpg'
p18
aS'22855536.thl_sunaalltyvjhbzhkmvg.jpg'
p19
aS'26424291.thl_sunaivdylrawbmhryfp.jpg'
p20
aS'22870356.thl_sunaauglwmctnkxyird.jpg'
p21
aS'26377133.thl_sunaefgzwiramypjvtd.jpg'
p22
aS'26437491.thl_sunaygrtwrwfezqjizr.jpg'
p23
aS'26387568.thl_sunafkmnlytenlsywia.jpg'
p24
aS'26370704.thl_sunacjnahdmqfnjfwqx.jpg'
p25
aS'26441176.thl_sunbesrwkdsffeogeqq.jpg'
p26
asS'cued'
p27
(lp28
S'26372669.thl_sunacvbrcejzwmcgnoq.jpg'
p29
aS'26424784.thl_sunaixpqndlwhwjtjek.jpg'
p30
aS'26418799.thl_sunagmhildamktmqjss.jpg'
p31
aS'26421106.thl_sunagufzbeteqdjxais.jpg'
p32
aS'26456480.thl_sunbwaafjdebjzttuvq.jpg'
p33
aS'22869624.thl_sunaatjesvdupctftmn.jpg'
p34
aS'22848828.thl_sunaajqmsaavkmgbsth.jpg'
p35
aS'23051010.thl_sunabtrnbvpppgczjim.jpg'
p36
aS'22903568.thl_sunaaxjpzcnxligjtjq.jpg'
p37
aS'26428041.thl_sunaloffvbvysigxent.jpg'
p38
asS'uncued_RT'
p39
(lp40
F0.549666166305542
aF0.5702059268951416
asS'cued_RT'
p41
(lp42
F0.629317045211792
aF0.5988638401031494
aF0.45043087005615234
aF0.516193151473999
aF0.5140800476074219
aF0.464648962020874
aF0.42521214485168457
aF0.6189219951629639
as.