(dp0
S'images'
p1
(lp2
S'26423786.thl.jpg'
p3
aS'sunagufzbeteqdjxais.jpg'
p4
aS'26437491.thl.jpg'
p5
aS'26431395.thl.jpg'
p6
aS'22883664.thl.jpg'
p7
aS'sunaajpqmulidejvjsr.jpg'
p8
aS'sunabueyoajufbkraki.jpg'
p9
aS'22870356.thl.jpg'
p10
aS'sunaloffvbvysigxent.jpg'
p11
aS'26425323.thl.jpg'
p12
aS'26391116.thl.jpg'
p13
aS'sunajbwkywmsqkldfml.jpg'
p14
aS'26432148.thl.jpg'
p15
aS'22848828.thl.jpg'
p16
aS'26460317.thl.jpg'
p17
aS'sunaemcowdozyphwknd.jpg'
p18
aS'26428041.thl.jpg'
p19
aS'sunabeyhmxodahoieyk.jpg'
p20
aS'sunacjnahdmqfnjfwqx.jpg'
p21
aS'26372669.thl.jpg'
p22
aS'sunadochqcucscehsgk.jpg'
p23
aS'23051010.thl.jpg'
p24
aS'26374709.thl.jpg'
p25
aS'26428545.thl.jpg'
p26
aS'sunaazzyhbvqjpmazjq.jpg'
p27
aS'26379161.thl.jpg'
p28
aS'sunaefgzwiramypjvtd.jpg'
p29
aS'sunaalcrrdbjgdztbiz.jpg'
p30
aS'sunafbwnojpqeyzssoe.jpg'
p31
aS'sunaddsaeicthrfbkhe.jpg'
p32
aS'sunbwaafjdebjzttuvq.jpg'
p33
aS'22855536.thl.jpg'
p34
aS'26421106.thl.jpg'
p35
aS'26424291.thl.jpg'
p36
aS'22852032.thl.jpg'
p37
aS'sunaakmxzhuceuiryah.jpg'
p38
aS'sunagmhildamktmqjss.jpg'
p39
aS'sunapileznnbbmrwoei.jpg'
p40
aS'sunabtrnbvpppgczjim.jpg'
p41
aS'sunaivdylrawbmhryfp.jpg'
p42
asS'ratings'
p43
(lp44
(lp45
(NF0.0
tp46
a(I1
F0.961
tp47
aa(lp48
(NF0.0
tp49
a(I1
F0.76
tp50
aa(lp51
(NF0.0
tp52
a(I2
F1.065
tp53
aa(lp54
(NF0.0
tp55
a(I2
F0.898
tp56
aa(lp57
(NF0.0
tp58
a(I2
F1.277
tp59
aa(lp60
(NF0.0
tp61
a(I2
F1.404
tp62
aa(lp63
(NF0.0
tp64
a(I1
F1.336
tp65
aa(lp66
(NF0.0
tp67
a(I3
F1.332
tp68
aa(lp69
(NF0.0
tp70
a(I1
F1.226
tp71
aa(lp72
(NF0.0
tp73
a(I2
F1.139
tp74
aa(lp75
(NF0.0
tp76
a(I2
F0.95
tp77
aa(lp78
(NF0.0
tp79
a(I2
F1.38
tp80
aa(lp81
(NF0.0
tp82
a(I4
F1.326
tp83
aa(lp84
(NF0.0
tp85
a(I1
F1.155
tp86
aa(lp87
(NF0.0
tp88
a(I2
F1.051
tp89
aa(lp90
(NF0.0
tp91
a(I2
F1.33
tp92
aa(lp93
(NF0.0
tp94
a(I4
F0.76
tp95
aa(lp96
(NF0.0
tp97
a(I1
F1.122
tp98
aa(lp99
(NF0.0
tp100
a(I2
F1.787
tp101
aa(lp102
(NF0.0
tp103
a(I2
F0.78
tp104
aa(lp105
(NF0.0
tp106
a(I3
F1.743
tp107
aa(lp108
(NF0.0
tp109
a(I4
F0.772
tp110
aa(lp111
(NF0.0
tp112
a(I3
F1.134
tp113
aa(lp114
(NF0.0
tp115
a(I3
F1.479
tp116
aa(lp117
(NF0.0
tp118
a(I1
F1.058
tp119
aa(lp120
(NF0.0
tp121
a(I2
F1.514
tp122
aa(lp123
(NF0.0
tp124
a(I2
F1.365
tp125
aa(lp126
(NF0.0
tp127
a(I2
F1.969
tp128
aa(lp129
(NF0.0
tp130
a(I2
F1.473
tp131
aa(lp132
(NF0.0
tp133
a(I2
F1.585
tp134
aa(lp135
(NF0.0
tp136
a(I1
F0.666
tp137
aa(lp138
(NF0.0
tp139
a(I3
F0.894
tp140
aa(lp141
(NF0.0
tp142
a(I1
F1.607
tp143
aa(lp144
(NF0.0
tp145
a(I2
F1.437
tp146
aa(lp147
(NF0.0
tp148
a(I1
F1.48
tp149
aa(lp150
(NF0.0
tp151
a(I1
F1.044
tp152
aa(lp153
(NF0.0
tp154
a(I1
F1.356
tp155
aa(lp156
(NF0.0
tp157
aa(lp158
(NF0.0
tp159
a(I3
F1.031
tp160
aa(lp161
(NF0.0
tp162
a(I3
F0.776
tp163
aasS'run_time'
p164
F122.87735319137573
sS'total_iters'
p165
(lp166
I0
aI1
aI2
aI3
aI4
aI5
aI6
aI7
aI8
aI9
aI10
aI11
aI12
aI13
aI14
aI15
aI16
aI17
aI18
aI19
aI20
aI21
aI22
aI23
aI24
aI25
aI26
aI27
aI28
aI29
aI30
aI31
aI32
aI33
aI34
aI35
aI36
aI37
aI38
aI39
as.