(lp0
S'Very engaging'
p1
aS'Very tired'
p2
accopy_reg
_reconstructor
p3
(cfuture.types.newstr
newstr
p4
c__builtin__
unicode
p5
VI think i found scenes easier to remeber because I was more interested in them
p6
tp7
Rp8
ag3
(g4
g5
VI think the right side may have been easier
p9
tp10
Rp11
ag3
(g4
g5
Vfor scenes I repeated in my head what I thought I saw and for faces i repeated noticable features like a beard, balding or weird eyes
p12
tp13
Rp14
a.