(dp0
S'images'
p1
(lp2
S'25.jpg'
p3
aS'240.jpg'
p4
aS'30.jpg'
p5
aS'290.jpg'
p6
aS'20.jpg'
p7
aS'164.jpg'
p8
aS'214.jpg'
p9
aS'266.jpg'
p10
aS'190.jpg'
p11
aS'163.jpg'
p12
aS'157.jpg'
p13
aS'307.jpg'
p14
aS'280.jpg'
p15
aS'52.jpg'
p16
aS'229.jpg'
p17
aS'342.jpg'
p18
aS'200.jpg'
p19
aS'107.jpg'
p20
aS'129.jpg'
p21
aS'187.jpg'
p22
aS'137.jpg'
p23
aS'183.jpg'
p24
aS'246.jpg'
p25
aS'131.jpg'
p26
aS'100.jpg'
p27
aS'281.jpg'
p28
aS'234.jpg'
p29
aS'182.jpg'
p30
aS'192.jpg'
p31
aS'263.jpg'
p32
aS'166.jpg'
p33
aS'126.jpg'
p34
aS'54.jpg'
p35
aS'304.jpg'
p36
aS'223.jpg'
p37
aS'221.jpg'
p38
aS'116.jpg'
p39
aS'160.jpg'
p40
aS'359.jpg'
p41
aS'135.jpg'
p42
aS'179.jpg'
p43
aS'51.jpg'
p44
aS'335.jpg'
p45
aS'343.jpg'
p46
aS'10.jpg'
p47
aS'109.jpg'
p48
aS'17.jpg'
p49
aS'36.jpg'
p50
aS'315.jpg'
p51
aS'230.jpg'
p52
aS'189.jpg'
p53
aS'40.jpg'
p54
aS'171.jpg'
p55
aS'133.jpg'
p56
aS'227.jpg'
p57
aS'22.jpg'
p58
aS'19.jpg'
p59
aS'120.jpg'
p60
aS'345.jpg'
p61
aS'128.jpg'
p62
aS'251.jpg'
p63
aS'108.jpg'
p64
aS'114.jpg'
p65
aS'301.jpg'
p66
aS'288.jpg'
p67
aS'28.jpg'
p68
aS'247.jpg'
p69
aS'293.jpg'
p70
aS'292.jpg'
p71
aS'138.jpg'
p72
aS'139.jpg'
p73
aS'211.jpg'
p74
aS'37.jpg'
p75
aS'202.jpg'
p76
aS'233.jpg'
p77
aS'24.jpg'
p78
aS'21.jpg'
p79
aS'237.jpg'
p80
aS'118.jpg'
p81
aS'282.jpg'
p82
asS'ratings'
p83
(lp84
(lp85
(NF0.0
tp86
a(I4
F1.577
tp87
aa(lp88
(NF0.0
tp89
a(I2
F0.508
tp90
aa(lp91
(NF0.0
tp92
a(I1
F0.307
tp93
aa(lp94
(NF0.0
tp95
aa(lp96
(NF0.0
tp97
aa(lp98
(NF0.0
tp99
aa(lp100
(NF0.0
tp101
aa(lp102
(NF0.0
tp103
aa(lp104
(NF0.0
tp105
aa(lp106
(NF0.0
tp107
aa(lp108
(NF0.0
tp109
aa(lp110
(NF0.0
tp111
aa(lp112
(NF0.0
tp113
aa(lp114
(NF0.0
tp115
aa(lp116
(NF0.0
tp117
aa(lp118
(NF0.0
tp119
aa(lp120
(NF0.0
tp121
aa(lp122
(NF0.0
tp123
aa(lp124
(NF0.0
tp125
aa(lp126
(NF0.0
tp127
aa(lp128
(NF0.0
tp129
aa(lp130
(NF0.0
tp131
aa(lp132
(NF0.0
tp133
aa(lp134
(NF0.0
tp135
aa(lp136
(NF0.0
tp137
aa(lp138
(NF0.0
tp139
aa(lp140
(NF0.0
tp141
aa(lp142
(NF0.0
tp143
aa(lp144
(NF0.0
tp145
aa(lp146
(NF0.0
tp147
aa(lp148
(NF0.0
tp149
aa(lp150
(NF0.0
tp151
aa(lp152
(NF0.0
tp153
aa(lp154
(NF0.0
tp155
aa(lp156
(NF0.0
tp157
aa(lp158
(NF0.0
tp159
aa(lp160
(NF0.0
tp161
aa(lp162
(NF0.0
tp163
aa(lp164
(NF0.0
tp165
aa(lp166
(NF0.0
tp167
aa(lp168
(NF0.0
tp169
aa(lp170
(NF0.0
tp171
aa(lp172
(NF0.0
tp173
aa(lp174
(NF0.0
tp175
aa(lp176
(NF0.0
tp177
aa(lp178
(NF0.0
tp179
aa(lp180
(NF0.0
tp181
aa(lp182
(NF0.0
tp183
aa(lp184
(NF0.0
tp185
aa(lp186
(NF0.0
tp187
aa(lp188
(NF0.0
tp189
aa(lp190
(NF0.0
tp191
aa(lp192
(NF0.0
tp193
aa(lp194
(NF0.0
tp195
aa(lp196
(NF0.0
tp197
aa(lp198
(NF0.0
tp199
aa(lp200
(NF0.0
tp201
aa(lp202
(NF0.0
tp203
aa(lp204
(NF0.0
tp205
aa(lp206
(NF0.0
tp207
aa(lp208
(NF0.0
tp209
aa(lp210
(NF0.0
tp211
aa(lp212
(NF0.0
tp213
a(I3
F1.166
tp214
aa(lp215
(NF0.0
tp216
a(I2
F0.677
tp217
aa(lp218
(NF0.0
tp219
a(I4
F0.865
tp220
aa(lp221
(NF0.0
tp222
a(I4
F0.41
tp223
aa(lp224
(NF0.0
tp225
a(I3
F0.473
tp226
aa(lp227
(NF0.0
tp228
a(I4
F0.226
tp229
aa(lp230
(NF0.0
tp231
a(I1
F0.308
tp232
aa(lp233
(NF0.0
tp234
a(I2
F0.041
tp235
aa(lp236
(NF0.0
tp237
aa(lp238
(NF0.0
tp239
aa(lp240
(NF0.0
tp241
aa(lp242
(NF0.0
tp243
aa(lp244
(NF0.0
tp245
aa(lp246
(NF0.0
tp247
aa(lp248
(NF0.0
tp249
aa(lp250
(NF0.0
tp251
aa(lp252
(NF0.0
tp253
a(I1
F1.459
tp254
aa(lp255
(NF0.0
tp256
aasS'run_time'
p257
F245.09325003623962
sS'total_iters'
p258
(lp259
I0
aI1
aI2
aI3
aI4
aI5
aI6
aI7
aI8
aI9
aI10
aI11
aI12
aI13
aI14
aI15
aI16
aI17
aI18
aI19
aI20
aI21
aI22
aI23
aI24
aI25
aI26
aI27
aI28
aI29
aI30
aI31
aI32
aI33
aI34
aI35
aI36
aI37
aI38
aI39
aI40
aI41
aI42
aI43
aI44
aI45
aI46
aI47
aI48
aI49
aI50
aI51
aI52
aI53
aI54
aI55
aI56
aI57
aI58
aI59
aI60
aI61
aI62
aI63
aI64
aI65
aI66
aI67
aI68
aI69
aI70
aI71
aI72
aI73
aI74
aI75
aI76
aI77
aI78
aI79
as.