(dp0
S'cued_RT'
p1
(lp2
sS'cued'
p3
(lp4
S'214_129.jpg'
p5
aS'221_135.jpg'
p6
aS'343_164.jpg'
p7
aS'290_116.jpg'
p8
aS'359_179.jpg'
p9
aS'335_157.jpg'
p10
aS'192_109.jpg'
p11
aS'240_30.jpg'
p12
aS'246_36.jpg'
p13
aS'182_10.jpg'
p14
asS'run_time'
p15
F49.50212097167969
sS'cue_tuples'
p16
(lp17
(S'cue_L'
p18
S'F'
p19
I0
tp20
a(g18
g19
I1
tp21
a(g18
g19
I1
tp22
a(g18
g19
I0
tp23
a(g18
g19
I0
tp24
a(g18
S'L'
p25
I0
tp26
a(g18
g25
I0
tp27
a(g18
g25
I0
tp28
a(g18
g25
I0
tp29
a(g18
g25
I1
tp30
asS'uncued'
p31
(lp32
S'342_163.jpg'
p33
aS'266_54.jpg'
p34
aS'229_20.jpg'
p35
aS'307_131.jpg'
p36
aS'304_129.jpg'
p37
aS'263_51.jpg'
p38
aS'223_137.jpg'
p39
aS'183_100.jpg'
p40
aS'234_25.jpg'
p41
aS'190_107.jpg'
p42
asS'uncued_RT'
p43
(lp44
F0.9672858715057373
aF0.9328639507293701
aF0.9907009601593018
aF0.7185070514678955
aF0.6174800395965576
aF0.7187860012054443
aF1.0327341556549072
aF0.7685551643371582
aF0.7533988952636719
aF0.7176239490509033
as.