(dp0
S'cued_RT'
p1
(lp2
F2.3347837924957275
aF0.6297721862792969
aF0.5959880352020264
aF0.5843489170074463
aF0.5506739616394043
aF0.6810088157653809
aF0.8817648887634277
asS'cued'
p3
(lp4
S'352_172.jpg'
p5
aS'183_100.jpg'
p6
aS'189_106.jpg'
p7
aS'338_16.jpg'
p8
aS'236_27.jpg'
p9
aS'309_133.jpg'
p10
aS'302_127.jpg'
p11
aS'212_127.jpg'
p12
aS'228_2.jpg'
p13
aS'221_135.jpg'
p14
asS'run_time'
p15
F49.25983786582947
sS'cue_tuples'
p16
(lp17
(S'cue_R'
p18
S'F'
p19
I0
tp20
a(g18
g19
I1
tp21
a(g18
g19
I1
tp22
a(g18
g19
I0
tp23
a(g18
g19
I0
tp24
a(g18
S'L'
p25
I0
tp26
a(g18
g25
I0
tp27
a(g18
g25
I0
tp28
a(g18
g25
I0
tp29
a(g18
g25
I1
tp30
asS'uncued'
p31
(lp32
S'266_54.jpg'
p33
aS'335_157.jpg'
p34
aS'224_138.jpg'
p35
aS'340_161.jpg'
p36
aS'204_12.jpg'
p37
aS'292_118.jpg'
p38
aS'248_38.jpg'
p39
aS'191_108.jpg'
p40
aS'316_14.jpg'
p41
aS'284_110.jpg'
p42
asS'uncued_RT'
p43
(lp44
F0.5468659400939941
aF0.5761830806732178
aF0.7315518856048584
as.