(lp0
S'Very boring'
p1
aS'Very tired'
p2
accopy_reg
_reconstructor
p3
(cfuture.types.newstr
newstr
p4
c__builtin__
unicode
p5
Vscenes, I found the faces very hard to focus on for some reason
p6
tp7
Rp8
ag3
(g4
g5
Vno
p9
tp10
Rp11
ag3
(g4
g5
VI tried to remember key details about the scene
p12
tp13
Rp14
a.