(dp0
S'images'
p1
(lp2
S'sunabwmcbaxwioksdgw.jpg'
p3
aS'00294940422fb.jpg'
p4
aS'00071941031fa.jpg'
p5
aS'sunarceibpcyacbmfga.jpg'
p6
aS'sunacxeheuiigkcgquf.jpg'
p7
aS'sunabrwnslxalcohfre.jpg'
p8
aS'sunabrlndkruqokhury.jpg'
p9
aS'sunaafynehyrzpsoaml.jpg'
p10
aS'00557940519fa.jpg'
p11
aS'sunasmmcxdddtmtazwx.jpg'
p12
aS'sunabwfvcqqidycwypa.jpg'
p13
aS'00985960627fa.jpg'
p14
aS'sunagpjzsbltchlwvou.jpg'
p15
aS'00571940928fa.jpg'
p16
aS'sunachtuarilwyqnvjx.jpg'
p17
aS'sunbtpilbhhbmhmeuzq.jpg'
p18
aS'00598940928fa.jpg'
p19
aS'sunanmoqeyprjjjfxjt.jpg'
p20
aS'00532960627fa.jpg'
p21
aS'00792941205fa.jpg'
p22
aS'00270940422fb.jpg'
p23
aS'00790941205fa.jpg'
p24
aS'sunarfdklgdnjgeqfjg.jpg'
p25
aS'01003960627fb.jpg'
p26
aS'00262940128fa.jpg'
p27
aS'sunaalltyvjhbzhkmvg.jpg'
p28
aS'00211940128fa.jpg'
p29
aS'sunagsiwrmuixqgdimb.jpg'
p30
aS'00903960620fa.jpg'
p31
aS'sunacepzfrmtkiqonpy.jpg'
p32
aS'00296940422fa.jpg'
p33
aS'00760960620fa.jpg'
p34
aS'sunaahzooisqkwlxwoz.jpg'
p35
aS'00753941201fa.jpg'
p36
aS'sunagvjurcwdbixvnyi.jpg'
p37
aS'00933960627fa.jpg'
p38
aS'sunacvbrcejzwmcgnoq.jpg'
p39
aS'00288940422fa.jpg'
p40
aS'sunaahwnmtqsrhocysw.jpg'
p41
aS'00911960530fa.jpg'
p42
asS'ratings'
p43
(lp44
(lp45
(NF0.0
tp46
a(I1
F1.23
tp47
aa(lp48
(NF0.0
tp49
a(I2
F1.116
tp50
aa(lp51
(NF0.0
tp52
a(I3
F0.997
tp53
aa(lp54
(NF0.0
tp55
a(I2
F0.975
tp56
aa(lp57
(NF0.0
tp58
a(I1
F0.742
tp59
aa(lp60
(NF0.0
tp61
a(I1
F0.926
tp62
aa(lp63
(NF0.0
tp64
a(I2
F1.509
tp65
aa(lp66
(NF0.0
tp67
a(I3
F1.517
tp68
aa(lp69
(NF0.0
tp70
a(I3
F1.242
tp71
aa(lp72
(NF0.0
tp73
a(I1
F1.109
tp74
aa(lp75
(NF0.0
tp76
a(I1
F0.791
tp77
aa(lp78
(NF0.0
tp79
a(I2
F1.021
tp80
aa(lp81
(NF0.0
tp82
a(I1
F0.725
tp83
aa(lp84
(NF0.0
tp85
a(I1
F1.278
tp86
aa(lp87
(NF0.0
tp88
a(I1
F0.691
tp89
aa(lp90
(NF0.0
tp91
a(I1
F0.827
tp92
aa(lp93
(NF0.0
tp94
a(I1
F1.02
tp95
aa(lp96
(NF0.0
tp97
a(I1
F0.575
tp98
aa(lp99
(NF0.0
tp100
a(I3
F1.238
tp101
aa(lp102
(NF0.0
tp103
a(I1
F0.858
tp104
aa(lp105
(NF0.0
tp106
a(I1
F1.016
tp107
aa(lp108
(NF0.0
tp109
a(I1
F0.651
tp110
aa(lp111
(NF0.0
tp112
a(I1
F0.974
tp113
aa(lp114
(NF0.0
tp115
a(I1
F0.84
tp116
aa(lp117
(NF0.0
tp118
a(I1
F0.719
tp119
aa(lp120
(NF0.0
tp121
a(I1
F0.783
tp122
aa(lp123
(NF0.0
tp124
a(I2
F1.016
tp125
aa(lp126
(NF0.0
tp127
a(I1
F0.843
tp128
aa(lp129
(NF0.0
tp130
a(I1
F0.813
tp131
aa(lp132
(NF0.0
tp133
a(I1
F0.727
tp134
aa(lp135
(NF0.0
tp136
a(I1
F0.511
tp137
aa(lp138
(NF0.0
tp139
a(I1
F0.906
tp140
aa(lp141
(NF0.0
tp142
a(I1
F0.644
tp143
aa(lp144
(NF0.0
tp145
a(I1
F1.1
tp146
aa(lp147
(NF0.0
tp148
a(I2
F1.009
tp149
aa(lp150
(NF0.0
tp151
a(I1
F1.406
tp152
aa(lp153
(NF0.0
tp154
a(I1
F0.992
tp155
aa(lp156
(NF0.0
tp157
a(I2
F1.249
tp158
aa(lp159
(NF0.0
tp160
a(I1
F0.546
tp161
aa(lp162
(NF0.0
tp163
a(I1
F0.601
tp164
aasS'run_time'
p165
F122.37596297264099
sS'total_iters'
p166
(lp167
I0
aI1
aI2
aI3
aI4
aI5
aI6
aI7
aI8
aI9
aI10
aI11
aI12
aI13
aI14
aI15
aI16
aI17
aI18
aI19
aI20
aI21
aI22
aI23
aI24
aI25
aI26
aI27
aI28
aI29
aI30
aI31
aI32
aI33
aI34
aI35
aI36
aI37
aI38
aI39
as.