(dp0
S'images'
p1
(lp2
S'00874940307fa.jpg'
p3
aS'00915960620fa.jpg'
p4
aS'00650941031fa.jpg'
p5
aS'00973960627fa.jpg'
p6
aS'sunaanjcbzdvtvblsdy.jpg'
p7
aS'sunaavtbadenwnzeutj.jpg'
p8
aS'00142931230fb.jpg'
p9
aS'sunabcuurugvxwparpk.jpg'
p10
aS'sunaafjszryxyavjzln.jpg'
p11
aS'sunaapxkpvrhpjplsok.jpg'
p12
aS'00184940128fa.jpg'
p13
aS'sunabbafjowbzcvbucc.jpg'
p14
aS'sunadikxpvqeabxrvvc.jpg'
p15
aS'sunaixpqndlwhwjtjek.jpg'
p16
aS'00751960620fa.jpg'
p17
aS'00214940128fa.jpg'
p18
aS'sunabmytpyhsgigllxu.jpg'
p19
aS'00138931230fa.jpg'
p20
aS'sunamlotskmmsjeogby.jpg'
p21
aS'00909960530.jpg'
p22
aS'00662941121fa.jpg'
p23
aS'sunafijbgncijwykrnl.jpg'
p24
aS'00803941205fa.jpg'
p25
aS'sunahedfrhtcwpneund.jpg'
p26
aS'00264940128fb.jpg'
p27
aS'sunadqmjrhfjyuzyvdd.jpg'
p28
aS'sunaamdjwemxpmmtypi.jpg'
p29
aS'sunafcofuuzebuadceo.jpg'
p30
aS'00858940307fa.jpg'
p31
aS'00811960530fa.jpg'
p32
aS'sunamczizlzavhzhpay.jpg'
p33
aS'sunahbvlpavurqoxdeq.jpg'
p34
aS'sunaeomlfaabhpswasy.jpg'
p35
aS'sunbagfpovqwbuexqdn.jpg'
p36
aS'sunavxokzybtomhbmvm.jpg'
p37
aS'sunagrmyoovzukhxmlo.jpg'
p38
aS'sunabueyoajufbkraki.jpg'
p39
aS'00891960530fa.jpg'
p40
aS'sunantryfbloeaomfta.jpg'
p41
aS'sunagvprlbprarvgdvj.jpg'
p42
asS'ratings'
p43
(lp44
(lp45
(NF0.0
tp46
a(I2
F1.059
tp47
aa(lp48
(NF0.0
tp49
a(I1
F0.909
tp50
aa(lp51
(NF0.0
tp52
a(I1
F1.064
tp53
aa(lp54
(NF0.0
tp55
a(I1
F0.549
tp56
aa(lp57
(NF0.0
tp58
a(I2
F1.065
tp59
aa(lp60
(NF0.0
tp61
a(I1
F0.758
tp62
aa(lp63
(NF0.0
tp64
a(I1
F0.717
tp65
aa(lp66
(NF0.0
tp67
a(I2
F1.157
tp68
aa(lp69
(NF0.0
tp70
a(I1
F0.979
tp71
aa(lp72
(NF0.0
tp73
a(I2
F1.073
tp74
aa(lp75
(NF0.0
tp76
a(I2
F0.827
tp77
aa(lp78
(NF0.0
tp79
a(I2
F0.753
tp80
aa(lp81
(NF0.0
tp82
a(I3
F0.976
tp83
aa(lp84
(NF0.0
tp85
a(I2
F0.927
tp86
aa(lp87
(NF0.0
tp88
a(I2
F0.809
tp89
aa(lp90
(NF0.0
tp91
a(I2
F0.579
tp92
aa(lp93
(NF0.0
tp94
aa(lp95
(NF0.0
tp96
a(I2
F0.874
tp97
aa(lp98
(NF0.0
tp99
a(I3
F0.757
tp100
aa(lp101
(NF0.0
tp102
a(I2
F0.611
tp103
aa(lp104
(NF0.0
tp105
a(I1
F0.59
tp106
aa(lp107
(NF0.0
tp108
a(I4
F1.043
tp109
aa(lp110
(NF0.0
tp111
a(I2
F0.667
tp112
aa(lp113
(NF0.0
tp114
a(I2
F1.009
tp115
aa(lp116
(NF0.0
tp117
a(I2
F0.846
tp118
aa(lp119
(NF0.0
tp120
a(I2
F0.806
tp121
aa(lp122
(NF0.0
tp123
a(I2
F0.911
tp124
aa(lp125
(NF0.0
tp126
a(I2
F0.959
tp127
aa(lp128
(NF0.0
tp129
a(I2
F0.634
tp130
aa(lp131
(NF0.0
tp132
a(I2
F0.597
tp133
aa(lp134
(NF0.0
tp135
a(I2
F0.51
tp136
aa(lp137
(NF0.0
tp138
a(I2
F0.677
tp139
aa(lp140
(NF0.0
tp141
a(I1
F0.909
tp142
aa(lp143
(NF0.0
tp144
a(I1
F0.977
tp145
aa(lp146
(NF0.0
tp147
a(I1
F1.011
tp148
aa(lp149
(NF0.0
tp150
a(I1
F0.66
tp151
aa(lp152
(NF0.0
tp153
a(I1
F0.891
tp154
aa(lp155
(NF0.0
tp156
a(I1
F0.753
tp157
aa(lp158
(NF0.0
tp159
a(I1
F0.611
tp160
aa(lp161
(NF0.0
tp162
a(I1
F0.46
tp163
aasS'run_time'
p164
F122.82730722427368
sS'total_iters'
p165
(lp166
I0
aI1
aI2
aI3
aI4
aI5
aI6
aI7
aI8
aI9
aI10
aI11
aI12
aI13
aI14
aI15
aI16
aI17
aI18
aI19
aI20
aI21
aI22
aI23
aI24
aI25
aI26
aI27
aI28
aI29
aI30
aI31
aI32
aI33
aI34
aI35
aI36
aI37
aI38
aI39
as.