(dp0
S'cue_tuples'
p1
(lp2
(S'cue_R'
p3
S'L'
p4
I0
tp5
a(g3
g4
I0
tp6
a(g3
g4
I0
tp7
a(g3
g4
I0
tp8
a(g3
g4
I1
tp9
a(g3
g4
I0
tp10
a(g3
g4
I0
tp11
a(g3
g4
I0
tp12
a(g3
g4
I0
tp13
a(g3
g4
I0
tp14
asS'uncued'
p15
(lp16
S'00598941031fa_sunacxtcahkymosigud.jpg'
p17
aS'00132931230fb_sunaanjcbzdvtvblsdy.jpg'
p18
aS'00080931230fb_sunaafjszryxyavjzln.jpg'
p19
aS'00214940128fa_sunabbafjowbzcvbucc.jpg'
p20
aS'00081941031fa_sunaaftlyfudyzuhqzf.jpg'
p21
aS'00650941031fa_sunadikxpvqeabxrvvc.jpg'
p22
aS'00163931230fb_sunaavodbcpygkggnfp.jpg'
p23
aS'00751960620fa_sunaezuszgtxnmsxdbk.jpg'
p24
aS'00184940128fa_sunaavtbadenwnzeutj.jpg'
p25
aS'00973960627fa_sunbbgtoeuzierkkajt.jpg'
p26
asS'cued'
p27
(lp28
S'00109931230fa_sunaajuzribjrizdshh.jpg'
p29
aS'00554940519fa_sunacfdkbsrughwqwtt.jpg'
p30
aS'00811960530fa_sunahedfrhtcwpneund.jpg'
p31
aS'00142931230fb_sunaapxkpvrhpjplsok.jpg'
p32
aS'00929960627fa_sunaprnrbmgkomdbchr.jpg'
p33
aS'00858940307fa_sunaixpqndlwhwjtjek.jpg'
p34
aS'00766960620fa_sunafijbgncijwykrnl.jpg'
p35
aS'00276940422fa_sunabmytpyhsgigllxu.jpg'
p36
aS'00803941205fa_sunagvxkjokqimstxpe.jpg'
p37
aS'00138931230fa_sunaapfaivxqoynnwwp.jpg'
p38
asS'uncued_RT'
p39
(lp40
F0.33820509910583496
asS'cued_RT'
p41
(lp42
F0.6083729267120361
aF0.3640098571777344
aF0.8781778812408447
aF0.41291093826293945
aF0.5262198448181152
aF0.4258718490600586
aF0.39500999450683594
aF0.324023962020874
aF0.40798091888427734
as.