(dp0
S'images'
p1
(lp2
S'00197940128fa.jpg'
p3
aS'sunakodkcslgqhqlgwl.jpg'
p4
aS'00884960530fa.jpg'
p5
aS'00812941205fa.jpg'
p6
aS'00910960530fa.jpg'
p7
aS'sunabjuovqvyfuzvqwt.jpg'
p8
aS'00908960530fa.jpg'
p9
aS'sunbbfqwjpdxniyhies.jpg'
p10
aS'00815941205fa.jpg'
p11
aS'sunajwqkfsykceonyig.jpg'
p12
aS'sunadtlxenqqxsyjvix.jpg'
p13
aS'00263940128fb.jpg'
p14
aS'sunaflojskatpeqyzqp.jpg'
p15
aS'sunaaylzyqlqrsmfwif.jpg'
p16
aS'00636941031fa.jpg'
p17
aS'sunaeoghzrjarigmwua.jpg'
p18
aS'sunaemcowdozyphwknd.jpg'
p19
aS'00741941201fa.jpg'
p20
aS'00630941031fa.jpg'
p21
aS'sunaaemixhfquhnxxlm.jpg'
p22
aS'00112931230fa.jpg'
p23
aS'sunbgzjryivyczuvkvm.jpg'
p24
aS'sunauburywlkjszngcq.jpg'
p25
aS'00267940128fb.jpg'
p26
aS'00787941205fa.jpg'
p27
aS'sunayaepykrqvenaqqy.jpg'
p28
aS'sunalcrtwiycqobgelp.jpg'
p29
aS'sunaaeplwsfslcbtojr.jpg'
p30
aS'00730960620fa.jpg'
p31
aS'00786941205fa.jpg'
p32
aS'sunaaiqiqcggrskoqgy.jpg'
p33
aS'00778941205fa.jpg'
p34
aS'sunadbhmrgrrpyzglxs.jpg'
p35
aS'sunaofikylqtxphvdem.jpg'
p36
aS'sunaakgekhjklxmvulj.jpg'
p37
aS'sunajbwkywmsqkldfml.jpg'
p38
aS'00784941205fb.jpg'
p39
aS'sunagcthdfirrcawoic.jpg'
p40
aS'00754941201fa.jpg'
p41
aS'00313940422fa.jpg'
p42
asS'ratings'
p43
(lp44
(lp45
(NF0.0
tp46
a(I4
F1.285
tp47
aa(lp48
(NF0.0
tp49
a(I2
F1.592
tp50
aa(lp51
(NF0.0
tp52
a(I1
F1.077
tp53
aa(lp54
(NF0.0
tp55
a(I1
F0.655
tp56
aa(lp57
(NF0.0
tp58
a(I2
F1.001
tp59
aa(lp60
(NF0.0
tp61
a(I1
F1.076
tp62
aa(lp63
(NF0.0
tp64
a(I2
F0.967
tp65
aa(lp66
(NF0.0
tp67
a(I1
F1.309
tp68
aa(lp69
(NF0.0
tp70
a(I1
F0.915
tp71
aa(lp72
(NF0.0
tp73
a(I1
F1.71
tp74
aa(lp75
(NF0.0
tp76
a(I2
F1.776
tp77
aa(lp78
(NF0.0
tp79
a(I1
F0.912
tp80
aa(lp81
(NF0.0
tp82
a(I2
F1.241
tp83
aa(lp84
(NF0.0
tp85
a(I4
F0.766
tp86
aa(lp87
(NF0.0
tp88
a(I1
F1.076
tp89
aa(lp90
(NF0.0
tp91
a(I2
F1.326
tp92
aa(lp93
(NF0.0
tp94
a(I4
F0.742
tp95
aa(lp96
(NF0.0
tp97
a(I2
F1.118
tp98
aa(lp99
(NF0.0
tp100
a(I3
F1.013
tp101
aa(lp102
(NF0.0
tp103
a(I3
F1.265
tp104
aa(lp105
(NF0.0
tp106
a(I1
F0.778
tp107
aa(lp108
(NF0.0
tp109
a(I1
F1.192
tp110
aa(lp111
(NF0.0
tp112
a(I1
F1.51
tp113
aa(lp114
(NF0.0
tp115
a(I1
F1.001
tp116
aa(lp117
(NF0.0
tp118
a(I1
F1.051
tp119
aa(lp120
(NF0.0
tp121
a(I1
F1.142
tp122
aa(lp123
(NF0.0
tp124
a(I1
F1.276
tp125
aa(lp126
(NF0.0
tp127
a(I2
F1.136
tp128
aa(lp129
(NF0.0
tp130
a(I1
F1.091
tp131
aa(lp132
(NF0.0
tp133
a(I1
F0.608
tp134
aa(lp135
(NF0.0
tp136
a(I2
F1.42
tp137
aa(lp138
(NF0.0
tp139
a(I1
F1.169
tp140
aa(lp141
(NF0.0
tp142
a(I2
F1.376
tp143
aa(lp144
(NF0.0
tp145
a(I2
F1.592
tp146
aa(lp147
(NF0.0
tp148
a(I2
F1.204
tp149
aa(lp150
(NF0.0
tp151
a(I1
F1.292
tp152
aa(lp153
(NF0.0
tp154
a(I1
F0.748
tp155
aa(lp156
(NF0.0
tp157
a(I1
F0.942
tp158
aa(lp159
(NF0.0
tp160
a(I1
F0.893
tp161
aa(lp162
(NF0.0
tp163
a(I1
F0.782
tp164
aasS'run_time'
p165
F122.51112198829651
sS'total_iters'
p166
(lp167
I0
aI1
aI2
aI3
aI4
aI5
aI6
aI7
aI8
aI9
aI10
aI11
aI12
aI13
aI14
aI15
aI16
aI17
aI18
aI19
aI20
aI21
aI22
aI23
aI24
aI25
aI26
aI27
aI28
aI29
aI30
aI31
aI32
aI33
aI34
aI35
aI36
aI37
aI38
aI39
as.