(dp0
S'cue_tuples'
p1
(lp2
(S'cue_L'
p3
S'L'
p4
I0
tp5
a(g3
g4
I0
tp6
a(g3
g4
I0
tp7
a(g3
g4
I0
tp8
a(g3
g4
I0
tp9
a(g3
g4
I0
tp10
a(g3
g4
I0
tp11
a(g3
g4
I0
tp12
a(g3
g4
I0
tp13
a(g3
g4
I0
tp14
asS'uncued'
p15
(lp16
S'00112931230fa_sunaakjaacuzulqckgl.jpg'
p17
aS'00876960620fa_sunajwqkfsykceonyig.jpg'
p18
aS'00972960627fa_sunbbfqwjpdxniyhies.jpg'
p19
aS'00965960627fa_sunaydywdmvlfddbxbk.jpg'
p20
aS'00908960530fa_sunanwjjyqqwzqrqagd.jpg'
p21
aS'00770941201fa_sunaflojskatpeqyzqp.jpg'
p22
aS'00263940128fb_sunabjuovqvyfuzvqwt.jpg'
p23
aS'00787941205fa_sunagmwxxwymwojbvgi.jpg'
p24
aS'00065931230fb_sunaaemixhfquhnxxlm.jpg'
p25
aS'00815941205fa_sunahiphsekjihkafsl.jpg'
p26
asS'cued'
p27
(lp28
S'00271940422fa_sunabmbnddafmywtjjj.jpg'
p29
aS'00292940422fb_sunabrjdpmoedcdjbpo.jpg'
p30
aS'00193940928fa_sunaaxjpzcnxligjtjq.jpg'
p31
aS'00743941201fa_sunaeoghzrjarigmwua.jpg'
p32
aS'00267940128fb_sunablfqiwfqomjarht.jpg'
p33
aS'00705941205fa_sunadtlxenqqxsyjvix.jpg'
p34
aS'00884960530fa_sunakodkcslgqhqlgwl.jpg'
p35
aS'00630941031fa_sunadakkdovnuzlycvp.jpg'
p36
aS'00741941201fa_sunaemcowdozyphwknd.jpg'
p37
aS'00197940128fa_sunaaylzyqlqrsmfwif.jpg'
p38
asS'uncued_RT'
p39
(lp40
F0.42835402488708496
aF0.3506760597229004
aF0.400709867477417
aF0.47635602951049805
aF0.29629993438720703
aF0.3524048328399658
aF0.26671314239501953
aF0.2752218246459961
aF0.3050410747528076
aF0.23854303359985352
asS'cued_RT'
p41
(lp42
s.