(dp0
S'cue_tuples'
p1
(lp2
(S'cue_L'
p3
S'L'
p4
I0
tp5
a(g3
g4
I0
tp6
a(g3
g4
I0
tp7
a(g3
g4
I1
tp8
a(g3
g4
I0
tp9
a(g3
g4
I0
tp10
a(g3
g4
I0
tp11
a(g3
g4
I0
tp12
a(g3
g4
I0
tp13
a(g3
g4
I0
tp14
asS'uncued'
p15
(lp16
S'00564941031fa_sunacsaovnjezqwbykf.jpg'
p17
aS'00982960627fa_sunbesrwkdsffeogeqq.jpg'
p18
aS'00847940307fa_sunaivdjruhkrfywfed.jpg'
p19
aS'00864940307fa_sunajawzbrlrwafowen.jpg'
p20
aS'00481940519fa_sunabxsuqbleluwczoy.jpg'
p21
aS'00882960530fa_sunaknlirqjqiwbbeeg.jpg'
p22
aS'00807941205fa_sunahawfngukizslzsd.jpg'
p23
aS'00773941201fa_sunafvcflzhlqloapyo.jpg'
p24
aS'00783941205fa_sunagjeesomrwjsfqie.jpg'
p25
aS'00794960620fa_sunagtqhhwxjeuxdebe.jpg'
p26
asS'cued'
p27
(lp28
S'00914960620fa_sunaozisvwfbmlkfhzv.jpg'
p29
aS'00290940422fa_sunabqowuarvqqcnipn.jpg'
p30
aS'00996960627fa_sunbpvgllfdejxcpjqp.jpg'
p31
aS'00162931230fb_sunaavjinpnkappuonm.jpg'
p32
aS'00568940928fa_sunacsdhbbsybcyxnel.jpg'
p33
aS'01011960627fa_sundahdxwmcdluscvot.jpg'
p34
aS'00505960627fa_sunabzuqsrgcsonqlkz.jpg'
p35
aS'00773960620fa_sunafvsxtzaizojicxx.jpg'
p36
aS'00990960627fa_sunbpflsdaxnddnwcqi.jpg'
p37
aS'00970960627fa_sunbasypfgzjtomktmu.jpg'
p38
asS'uncued_RT'
p39
(lp40
F0.3598630428314209
aF0.45460987091064453
aF0.33113598823547363
aF0.36715197563171387
aF0.35645413398742676
aF0.3326399326324463
aF0.2634091377258301
aF0.2763540744781494
aF0.2668170928955078
aF0.3543710708618164
asS'cued_RT'
p41
(lp42
s.