(dp0
S'cue_tuples'
p1
(lp2
(S'cue_R'
p3
S'F'
p4
I0
tp5
a(g3
g4
I0
tp6
a(g3
g4
I1
tp7
a(g3
g4
I0
tp8
a(g3
g4
I0
tp9
a(g3
g4
I0
tp10
a(g3
g4
I0
tp11
a(g3
g4
I0
tp12
a(g3
g4
I0
tp13
a(g3
g4
I0
tp14
asS'uncued'
p15
(lp16
S'00133931230fa_sunaanlwnpqndclffxt.jpg'
p17
aS'00827940307fa_sunahtfxgsrmkiulnwk.jpg'
p18
aS'00775941205fa_sunafvwfsmqkjrutjta.jpg'
p19
aS'00971960627fa_sunbbegcweqnetpdlrh.jpg'
p20
aS'00957960627fa_sunavhxgmgrqsaptynb.jpg'
p21
aS'00776941205fa_sunafxokyavhgptyfye.jpg'
p22
aS'00889960530fa_sunaletopenvvozhpxc.jpg'
p23
aS'00634940928fa_sunadcphrizvfpljiqt.jpg'
p24
aS'00987960627fa_sunbloeoiozwjjsiamp.jpg'
p25
aS'00752960620fa_sunafbwnojpqeyzssoe.jpg'
p26
asS'cued'
p27
(lp28
S'00892960530fa_sunalntxqqadigcletd.jpg'
p29
aS'00675941121fa_sunadoxcchtmsxewsau.jpg'
p30
aS'00140931230fb_sunaapllqyqlykszopd.jpg'
p31
aS'00768941205fa_sunafkmnlytenlsywia.jpg'
p32
aS'00149931230fa_sunaauglwmctnkxyird.jpg'
p33
aS'00119931230fb_sunaakvmbftkrgqhjun.jpg'
p34
aS'00529940519fa_sunacbeefkxpymwevpk.jpg'
p35
aS'01004960627fa_sunbwtlihsuptkrckid.jpg'
p36
aS'00787960620fa_sunagoufulkpsxrmklt.jpg'
p37
aS'00221940128fa_sunabcfpwlpolnutyju.jpg'
p38
asS'uncued_RT'
p39
(lp40
F0.467365026473999
asS'cued_RT'
p41
(lp42
F1.2644588947296143
aF0.48932409286499023
aF0.716458797454834
aF0.5522139072418213
aF0.5698010921478271
aF0.48131799697875977
aF0.4276540279388428
aF0.5630760192871094
aF0.4701380729675293
as.