(dp0
S'cue_tuples'
p1
(lp2
(S'cue_L'
p3
S'F'
p4
I0
tp5
a(g3
g4
I0
tp6
a(g3
g4
I0
tp7
a(g3
g4
I1
tp8
a(g3
g4
I0
tp9
a(g3
g4
I0
tp10
a(g3
g4
I0
tp11
a(g3
g4
I0
tp12
a(g3
g4
I0
tp13
a(g3
g4
I0
tp14
asS'uncued'
p15
(lp16
S'01010960627fa_suncnkvbhypnivcohyx.jpg'
p17
aS'00648941031fa_sunadfndyrtqqiasoig.jpg'
p18
aS'00893960530Fa_sunaloffvbvysigxent.jpg'
p19
aS'00949960627fb_sunasnqkkyhilqkxiqm.jpg'
p20
aS'00116931230fa_sunaakqepfoeqomfgxf.jpg'
p21
aS'00620940928fa_sunacypmnujalygkunp.jpg'
p22
aS'00936960627fa_sunaqgjuuwvdcyiccjt.jpg'
p23
aS'00746941201fa_sunaetydippjxikifsb.jpg'
p24
aS'00076931230fa_sunaafewhewbxmjiurz.jpg'
p25
aS'00898960530fa_sunamkmeblgteyggink.jpg'
p26
asS'cued'
p27
(lp28
S'00131931230fb_sunaangbuylfvckqqoo.jpg'
p29
aS'00209940128fb_sunabaergayifsgacxt.jpg'
p30
aS'00208940128fa_sunaazzyhbvqjpmazjq.jpg'
p31
aS'00859940307fa_sunaiycurtqsfkvcaso.jpg'
p32
aS'00191940128fb_sunaawsdjisukbbginm.jpg'
p33
aS'00071940128fa_sunaaexpnawiehinlpy.jpg'
p34
aS'00124931230fa_sunaalhlvzmjmitybdn.jpg'
p35
aS'00077931230fb_sunaafgqutfaishsxyu.jpg'
p36
aS'00576941031fa_sunacvjlsylseoghjup.jpg'
p37
aS'00983960627fa_sunbfyvfqiimvdaxlqn.jpg'
p38
asS'uncued_RT'
p39
(lp40
F0.35999202728271484
aF0.43978404998779297
aF0.34310007095336914
aF0.5882360935211182
aF0.5685760974884033
aF0.4028739929199219
aF0.41742706298828125
aF0.5217649936676025
aF0.3098580837249756
aF0.9651470184326172
asS'cued_RT'
p41
(lp42
s.