(lp0
S'A little boring'
p1
aS'A little tired'
p2
accopy_reg
_reconstructor
p3
(cfuture.types.newstr
newstr
p4
c__builtin__
unicode
p5
Vscenery because it filled the whole picture
p6
tp7
Rp8
ag3
(g4
g5
Vright
p9
tp10
Rp11
ag3
(g4
g5
Vshapes I would see in the pictures like circles to remember the laundry room
p12
tp13
Rp14
a.