(dp0
S'cue_tuples'
p1
(lp2
(S'cue_L'
p3
S'L'
p4
I0
tp5
a(g3
g4
I0
tp6
a(g3
g4
I1
tp7
a(g3
g4
I0
tp8
a(g3
g4
I0
tp9
a(g3
g4
I0
tp10
a(g3
g4
I0
tp11
a(g3
g4
I0
tp12
a(g3
g4
I0
tp13
a(g3
g4
I0
tp14
asS'uncued'
p15
(lp16
S'00854940307fa_sunaiwduelojtwaqeyh.jpg'
p17
aS'00481940519fa_sunabxsuqbleluwczoy.jpg'
p18
aS'00955960627fb_sunauburywlkjszngcq.jpg'
p19
aS'00751960620fa_sunaezuszgtxnmsxdbk.jpg'
p20
aS'00263940128fb_sunabjuovqvyfuzvqwt.jpg'
p21
aS'00720960620fa_sunaecpkgfewqqreqwe.jpg'
p22
aS'00280940422fb_sunabohxbskznglnrhv.jpg'
p23
aS'00922960627fa_sunapqkyghktgtosuuk.jpg'
p24
aS'00834940307fa_sunaibnpvhkdpdnzcnz.jpg'
p25
aS'00746941201fa_sunaetydippjxikifsb.jpg'
p26
asS'cued'
p27
(lp28
S'00543940519fa_sunacepzfrmtkiqonpy.jpg'
p29
aS'00218940128fa_sunabbwggenhfbftyvi.jpg'
p30
aS'00302940422fa_sunabtlfmiwtljmoues.jpg'
p31
aS'00270940422fb_sunabllobxadqcyttej.jpg'
p32
aS'00812941205fa_sunahgtbwgsmtqeodwh.jpg'
p33
aS'00069931230fb_sunaaeowapdkwzqpgqr.jpg'
p34
aS'00773960620fa_sunafvsxtzaizojicxx.jpg'
p35
aS'00568940928fa_sunacsdhbbsybcyxnel.jpg'
p36
aS'00900960530fa_sunamlotskmmsjeogby.jpg'
p37
aS'00266940128fb_sunabkngeblodihjvbk.jpg'
p38
asS'uncued_RT'
p39
(lp40
F0.3617410659790039
aF0.4545269012451172
aF0.6158368587493896
aF0.3628659248352051
aF0.3590559959411621
aF0.5150818824768066
aF0.4094219207763672
aF0.4549849033355713
aF0.42839980125427246
aF0.48732805252075195
asS'cued_RT'
p41
(lp42
s.