(dp0
S'cue_tuples'
p1
(lp2
(S'cue_L'
p3
S'F'
p4
I0
tp5
a(g3
g4
I0
tp6
a(g3
g4
I0
tp7
a(g3
g4
I0
tp8
a(g3
g4
I0
tp9
a(g3
g4
I0
tp10
a(g3
g4
I0
tp11
a(g3
g4
I1
tp12
a(g3
g4
I0
tp13
a(g3
g4
I1
tp14
asS'uncued'
p15
(lp16
S'00775941205fa_sunafvwfsmqkjrutjta.jpg'
p17
aS'00829940307fa_sunahwgbqkqcrwprgvh.jpg'
p18
aS'00939960627fa_sunarceibpcyacbmfga.jpg'
p19
aS'00828940307fa_sunahuynahneraqftyz.jpg'
p20
aS'00970960627fa_sunbasypfgzjtomktmu.jpg'
p21
aS'00788941205fa_sunagountlxpzkytsmp.jpg'
p22
aS'00933960627fa_sunapwjkcxdaeqehfql.jpg'
p23
aS'00076931230fa_sunaafewhewbxmjiurz.jpg'
p24
aS'00744941201fa_sunaeomlfaabhpswasy.jpg'
p25
aS'00125931230fa_sunaalltyvjhbzhkmvg.jpg'
p26
asS'cued'
p27
(lp28
S'00894960620fa_sunalqmfgeadpqsyzpd.jpg'
p29
aS'00959960627fa_sunavxokzybtomhbmvm.jpg'
p30
aS'00265940128fb_sunabkmdplkdbvxriff.jpg'
p31
aS'00785941205fa_sunaglqunwuycxydmyu.jpg'
p32
aS'00119931230fb_sunaakvmbftkrgqhjun.jpg'
p33
aS'01007960627fa_sunbxarcshsnqsefemx.jpg'
p34
aS'00267940128fb_sunablfqiwfqomjarht.jpg'
p35
aS'00676941121fa_sunadpnqovzckyikrjo.jpg'
p36
aS'00859940307fa_sunaiycurtqsfkvcaso.jpg'
p37
aS'00773941201fa_sunafvcflzhlqloapyo.jpg'
p38
asS'uncued_RT'
p39
(lp40
F0.35817885398864746
aF0.3384058475494385
aF0.41671299934387207
aF0.6000039577484131
aF0.4412219524383545
aF0.36289000511169434
aF0.6560819149017334
aF0.4489469528198242
aF0.41923999786376953
aF0.4723479747772217
asS'cued_RT'
p41
(lp42
s.