(dp0
S'images'
p1
(lp2
S'00787941205fa.jpg'
p3
aS'00749941201fa.jpg'
p4
aS'00221940128fa.jpg'
p5
aS'00529940519fa.jpg'
p6
aS'sunbdycacjfaujxitbw.jpg'
p7
aS'sunagoufulkpsxrmklt.jpg'
p8
aS'00795941205fa.jpg'
p9
aS'sunacjkmnpawfzbyvae.jpg'
p10
aS'sunahbvlpavurqoxdeq.jpg'
p11
aS'sunaenwuebvlpdmntju.jpg'
p12
aS'00949960627fb.jpg'
p13
aS'00262940128fa.jpg'
p14
aS'sunaahwnmtqsrhocysw.jpg'
p15
aS'sunaeuvjbmdpknaqqaj.jpg'
p16
aS'sunaaiqiqcggrskoqgy.jpg'
p17
aS'sundahdxwmcdluscvot.jpg'
p18
aS'00979960627fa.jpg'
p19
aS'sunalkiibhqpxfamlll.jpg'
p20
aS'00851940307fa.jpg'
p21
aS'00892960530fa.jpg'
p22
aS'00986960627fa.jpg'
p23
aS'sunagvxkjokqimstxpe.jpg'
p24
aS'00965960627fa.jpg'
p25
aS'sunarpsxqkduedrrzyi.jpg'
p26
aS'00762941201fa.jpg'
p27
aS'sunaapxkpvrhpjplsok.jpg'
p28
aS'sunaygrtwrwfezqjizr.jpg'
p29
aS'00096931230fa.jpg'
p30
aS'00891960530fa.jpg'
p31
aS'sunagwzdbtlixdhgolm.jpg'
p32
aS'sunagtumacdlmciqamz.jpg'
p33
aS'sunbgzjryivyczuvkvm.jpg'
p34
aS'00276940422fa.jpg'
p35
aS'sunaydywdmvlfddbxbk.jpg'
p36
aS'00966960627fa.jpg'
p37
aS'sunafgzgbisbopcyslr.jpg'
p38
aS'00905960530fa.jpg'
p39
aS'sunalntxqqadigcletd.jpg'
p40
aS'sunacbeefkxpymwevpk.jpg'
p41
aS'00803941205fa.jpg'
p42
asS'ratings'
p43
(lp44
(lp45
(NF0.0
tp46
a(I1
F0.962
tp47
aa(lp48
(NF0.0
tp49
a(I3
F1.137
tp50
aa(lp51
(NF0.0
tp52
a(I2
F1.03
tp53
aa(lp54
(NF0.0
tp55
a(I2
F1.242
tp56
aa(lp57
(NF0.0
tp58
a(I1
F1.263
tp59
aa(lp60
(NF0.0
tp61
a(I1
F0.744
tp62
aa(lp63
(NF0.0
tp64
a(I3
F0.588
tp65
aa(lp66
(NF0.0
tp67
a(I1
F0.795
tp68
aa(lp69
(NF0.0
tp70
a(I1
F0.629
tp71
aa(lp72
(NF0.0
tp73
a(I1
F0.578
tp74
aa(lp75
(NF0.0
tp76
a(I3
F1.346
tp77
aa(lp78
(NF0.0
tp79
a(I2
F1.296
tp80
aa(lp81
(NF0.0
tp82
a(I1
F0.897
tp83
aa(lp84
(NF0.0
tp85
a(I1
F1.127
tp86
aa(lp87
(NF0.0
tp88
a(I1
F0.429
tp89
aa(lp90
(NF0.0
tp91
a(I1
F1.088
tp92
aa(lp93
(NF0.0
tp94
a(I3
F1.143
tp95
aa(lp96
(NF0.0
tp97
a(I1
F0.456
tp98
aa(lp99
(NF0.0
tp100
a(I1
F1.212
tp101
aa(lp102
(NF0.0
tp103
a(I2
F1.03
tp104
aa(lp105
(NF0.0
tp106
a(I2
F1.096
tp107
aa(lp108
(NF0.0
tp109
a(I1
F0.58
tp110
aa(lp111
(NF0.0
tp112
aa(lp113
(NF0.0
tp114
a(I1
F0.73
tp115
aa(lp116
(NF0.0
tp117
a(I2
F0.828
tp118
aa(lp119
(NF0.0
tp120
a(I1
F0.478
tp121
aa(lp122
(NF0.0
tp123
a(I1
F0.501
tp124
aa(lp125
(NF0.0
tp126
a(I3
F0.846
tp127
aa(lp128
(NF0.0
tp129
a(I1
F0.647
tp130
aa(lp131
(NF0.0
tp132
a(I1
F0.797
tp133
aa(lp134
(NF0.0
tp135
a(I1
F0.679
tp136
aa(lp137
(NF0.0
tp138
a(I1
F0.59
tp139
aa(lp140
(NF0.0
tp141
a(I1
F0.758
tp142
aa(lp143
(NF0.0
tp144
a(I1
F0.395
tp145
aa(lp146
(NF0.0
tp147
a(I3
F1.094
tp148
aa(lp149
(NF0.0
tp150
a(I1
F0.733
tp151
aa(lp152
(NF0.0
tp153
a(I2
F0.963
tp154
aa(lp155
(NF0.0
tp156
a(I1
F0.712
tp157
aa(lp158
(NF0.0
tp159
a(I2
F0.794
tp160
aa(lp161
(NF0.0
tp162
a(I1
F1.013
tp163
aasS'run_time'
p164
F123.12970089912415
sS'total_iters'
p165
(lp166
I0
aI1
aI2
aI3
aI4
aI5
aI6
aI7
aI8
aI9
aI10
aI11
aI12
aI13
aI14
aI15
aI16
aI17
aI18
aI19
aI20
aI21
aI22
aI23
aI24
aI25
aI26
aI27
aI28
aI29
aI30
aI31
aI32
aI33
aI34
aI35
aI36
aI37
aI38
aI39
as.