(dp0
S'cue_tuples'
p1
(lp2
(S'cue_L'
p3
S'F'
p4
I0
tp5
a(g3
g4
I0
tp6
a(g3
g4
I0
tp7
a(g3
g4
I0
tp8
a(g3
g4
I0
tp9
a(g3
g4
I0
tp10
a(g3
g4
I0
tp11
a(g3
g4
I0
tp12
a(g3
g4
I0
tp13
a(g3
g4
I0
tp14
asS'uncued'
p15
(lp16
S'00851940307fa_sunaivflshbyfrfzhqb.jpg'
p17
aS'00239940128fa_sunabctlikybqabezjv.jpg'
p18
aS'00966960627fa_sunaygrtwrwfezqjizr.jpg'
p19
aS'00986960627fa_sunbgzjryivyczuvkvm.jpg'
p20
aS'00245940128fa_sunabeyhmxodahoieyk.jpg'
p21
aS'00242940128fa_sunabcuurugvxwparpk.jpg'
p22
aS'00762941201fa_sunafgzgbisbopcyslr.jpg'
p23
aS'00905960530fa_sunanmoqeyprjjjfxjt.jpg'
p24
aS'00805941205fa_sunagwzdbtlixdhgolm.jpg'
p25
aS'00803941205fa_sunagvxkjokqimstxpe.jpg'
p26
asS'cued'
p27
(lp28
S'00749941201fa_sunaeuvjbmdpknaqqaj.jpg'
p29
aS'00096931230fa_sunaaiqiqcggrskoqgy.jpg'
p30
aS'00093931230fa_sunaahwnmtqsrhocysw.jpg'
p31
aS'00965960627fa_sunaydywdmvlfddbxbk.jpg'
p32
aS'00529940519fa_sunacbeefkxpymwevpk.jpg'
p33
aS'00892960530fa_sunalntxqqadigcletd.jpg'
p34
aS'00795941205fa_sunagtumacdlmciqamz.jpg'
p35
aS'00949960627fb_sunasnqkkyhilqkxiqm.jpg'
p36
aS'00891960530fa_sunalkiibhqpxfamlll.jpg'
p37
aS'00979960627fa_sunbdycacjfaujxitbw.jpg'
p38
asS'uncued_RT'
p39
(lp40
F0.48871517181396484
aF0.4092440605163574
aF0.40962886810302734
aF0.5162491798400879
aF0.4437408447265625
aF0.3883531093597412
aF0.6088259220123291
aF0.4108309745788574
aF0.3323979377746582
aF0.3473520278930664
asS'cued_RT'
p41
(lp42
s.