(dp0
S'images'
p1
(lp2
S'sunaapllqyqlykszopd.jpg'
p3
aS'00889960530fa.jpg'
p4
aS'sunaeuzwggvibufclwf.jpg'
p5
aS'sunaijsqpvodplbwxkf.jpg'
p6
aS'00145931230fb.jpg'
p7
aS'00635941031fa.jpg'
p8
aS'00209940128fb.jpg'
p9
aS'sunaeouogqolxvggaoq.jpg'
p10
aS'00835940307fa.jpg'
p11
aS'00260940128fa.jpg'
p12
aS'sunaddsaeicthrfbkhe.jpg'
p13
aS'sunabgfhvifeijihhjw.jpg'
p14
aS'00296940422fa.jpg'
p15
aS'00838940307fa.jpg'
p16
aS'sunaagcpoejbuzyvddd.jpg'
p17
aS'sunabppokiyglaxpcha.jpg'
p18
aS'sunabxmguapjekttvwm.jpg'
p19
aS'sunabrwnslxalcohfre.jpg'
p20
aS'sunadqmjrhfjyuzyvdd.jpg'
p21
aS'sunabaergayifsgacxt.jpg'
p22
aS'sunabbafjowbzcvbucc.jpg'
p23
aS'sunaatjesvdupctftmn.jpg'
p24
aS'sunaahedjlmtqekgyvj.jpg'
p25
aS'00681941121fa.jpg'
p26
aS'sunajawzbrlrwafowen.jpg'
p27
aS'sunarfdklgdnjgeqfjg.jpg'
p28
aS'00754941201fa.jpg'
p29
aS'sunahrltmuwbiehihpe.jpg'
p30
aS'00090931230fa.jpg'
p31
aS'00784941205fb.jpg'
p32
aS'sunaletopenvvozhpxc.jpg'
p33
aS'00825940307fa.jpg'
p34
aS'00214940128fa.jpg'
p35
aS'00931960627fa.jpg'
p36
aS'sunagjzcrjvmxzqzljx.jpg'
p37
aS'00778941205fa.jpg'
p38
aS'00123931230fb.jpg'
p39
aS'00745941205fa.jpg'
p40
aS'00723941201fa.jpg'
p41
aS'00288940422fa.jpg'
p42
asS'ratings'
p43
(lp44
(lp45
(NF0.0
tp46
a(I1
F0.928
tp47
aa(lp48
(NF0.0
tp49
a(I1
F0.947
tp50
aa(lp51
(NF0.0
tp52
a(I1
F0.908
tp53
aa(lp54
(NF0.0
tp55
a(I3
F0.983
tp56
aa(lp57
(NF0.0
tp58
a(I1
F1.295
tp59
aa(lp60
(NF0.0
tp61
a(I2
F0.766
tp62
aa(lp63
(NF0.0
tp64
a(I1
F0.762
tp65
aa(lp66
(NF0.0
tp67
a(I3
F0.946
tp68
aa(lp69
(NF0.0
tp70
a(I1
F0.747
tp71
aa(lp72
(NF0.0
tp73
a(I1
F0.58
tp74
aa(lp75
(NF0.0
tp76
a(I1
F1.486
tp77
aa(lp78
(NF0.0
tp79
a(I3
F0.913
tp80
aa(lp81
(NF0.0
tp82
a(I1
F0.761
tp83
aa(lp84
(NF0.0
tp85
a(I1
F1.563
tp86
aa(lp87
(NF0.0
tp88
a(I3
F0.962
tp89
aa(lp90
(NF0.0
tp91
a(I1
F0.896
tp92
aa(lp93
(NF0.0
tp94
a(I1
F1.197
tp95
aa(lp96
(NF0.0
tp97
a(I1
F1.013
tp98
aa(lp99
(NF0.0
tp100
a(I3
F0.779
tp101
aa(lp102
(NF0.0
tp103
a(I4
F1.162
tp104
aa(lp105
(NF0.0
tp106
a(I2
F1.125
tp107
aa(lp108
(NF0.0
tp109
a(I2
F1.377
tp110
aa(lp111
(NF0.0
tp112
a(I3
F1.413
tp113
aa(lp114
(NF0.0
tp115
a(I3
F1.096
tp116
aa(lp117
(NF0.0
tp118
a(I2
F1.43
tp119
aa(lp120
(NF0.0
tp121
a(I1
F1.364
tp122
aa(lp123
(NF0.0
tp124
a(I1
F0.76
tp125
aa(lp126
(NF0.0
tp127
a(I1
F0.843
tp128
aa(lp129
(NF0.0
tp130
a(I1
F0.762
tp131
aa(lp132
(NF0.0
tp133
a(I1
F0.464
tp134
aa(lp135
(NF0.0
tp136
a(I1
F1.15
tp137
aa(lp138
(NF0.0
tp139
a(I1
F0.563
tp140
aa(lp141
(NF0.0
tp142
a(I1
F0.612
tp143
aa(lp144
(NF0.0
tp145
a(I1
F0.579
tp146
aa(lp147
(NF0.0
tp148
a(I2
F1.696
tp149
aa(lp150
(NF0.0
tp151
a(I1
F0.611
tp152
aa(lp153
(NF0.0
tp154
a(I1
F0.607
tp155
aa(lp156
(NF0.0
tp157
a(I1
F0.408
tp158
aa(lp159
(NF0.0
tp160
a(I1
F0.531
tp161
aa(lp162
(NF0.0
tp163
a(I1
F0.569
tp164
aasS'run_time'
p165
F123.01251816749573
sS'total_iters'
p166
(lp167
I0
aI1
aI2
aI3
aI4
aI5
aI6
aI7
aI8
aI9
aI10
aI11
aI12
aI13
aI14
aI15
aI16
aI17
aI18
aI19
aI20
aI21
aI22
aI23
aI24
aI25
aI26
aI27
aI28
aI29
aI30
aI31
aI32
aI33
aI34
aI35
aI36
aI37
aI38
aI39
as.