(dp0
S'cue_tuples'
p1
(lp2
(S'cue_R'
p3
S'F'
p4
I1
tp5
a(g3
g4
I0
tp6
a(g3
g4
I0
tp7
a(g3
g4
I0
tp8
a(g3
g4
I0
tp9
a(g3
g4
I0
tp10
a(g3
g4
I0
tp11
a(g3
g4
I0
tp12
a(g3
g4
I0
tp13
a(g3
g4
I0
tp14
asS'uncued'
p15
(lp16
S'00950960627fa_sunasrjlmglmjzbmqxb.jpg'
p17
aS'00109931230fa_sunaajuzribjrizdshh.jpg'
p18
aS'00839940307fa_sunaipyohrqlwngaqif.jpg'
p19
aS'00804960530fa_sunagwswhkvnsmuszlz.jpg'
p20
aS'00211940128fa_sunabasphceswhwwqvv.jpg'
p21
aS'00208940128fa_sunaazzyhbvqjpmazjq.jpg'
p22
aS'00976960627fa_sunbbhqyyzmsxhsbjmp.jpg'
p23
aS'00071940128fa_sunaaexpnawiehinlpy.jpg'
p24
aS'00760960620fa_sunaffstbkappprzxnv.jpg'
p25
aS'00562941031fa_sunacjnahdmqfnjfwqx.jpg'
p26
asS'cued'
p27
(lp28
S'00815941205fa_sunahiphsekjihkafsl.jpg'
p29
aS'00144931230fb_sunaathajvxrgptwhoj.jpg'
p30
aS'00185940422fb_sunaawqdbpihmlbwyyn.jpg'
p31
aS'00800941205fb_sunagvjurcwdbixvnyi.jpg'
p32
aS'00081941031fa_sunaaftlyfudyzuhqzf.jpg'
p33
aS'00997960627fa_sunbtpilbhhbmhmeuzq.jpg'
p34
aS'00065931230fb_sunaaemixhfquhnxxlm.jpg'
p35
aS'00630940928fa_sunaczwgyukesaajxnx.jpg'
p36
aS'00971960627fa_sunbbegcweqnetpdlrh.jpg'
p37
aS'00768941205fa_sunafkmnlytenlsywia.jpg'
p38
asS'uncued_RT'
p39
(lp40
F0.5047838687896729
asS'cued_RT'
p41
(lp42
F0.7433559894561768
aF0.48157286643981934
aF0.3051621913909912
aF0.3698399066925049
aF0.40845680236816406
aF0.5722169876098633
aF0.37671399116516113
aF0.3899710178375244
aF0.32064294815063477
as.