(dp0
S'images'
p1
(lp2
S'sunaahzooisqkwlxwoz.jpg'
p3
aS'sunaivflshbyfrfzhqb.jpg'
p4
aS'sunaiycurtqsfkvcaso.jpg'
p5
aS'sunalcrtwiycqobgelp.jpg'
p6
aS'sunagtjwilqjvxohypn.jpg'
p7
aS'sunaaylzyqlqrsmfwif.jpg'
p8
aS'00983960627fa.jpg'
p9
aS'00193940928fa.jpg'
p10
aS'00162931230fb.jpg'
p11
aS'00985960627fa.jpg'
p12
aS'sunaajpqmulidejvjsr.jpg'
p13
aS'00984960627fa.jpg'
p14
aS'sunabjuovqvyfuzvqwt.jpg'
p15
aS'00197940128fa.jpg'
p16
aS'00647941031fa.jpg'
p17
aS'00095931230fa.jpg'
p18
aS'00793941205fa.jpg'
p19
aS'00723941201fa.jpg'
p20
aS'00771941205fa.jpg'
p21
aS'sunaaxjpzcnxligjtjq.jpg'
p22
aS'sunagdzlvkqtpnfxfcg.jpg'
p23
aS'00705941205fa.jpg'
p24
aS'00098931230fa.jpg'
p25
aS'00776941205fa.jpg'
p26
aS'00859940307fa.jpg'
p27
aS'sunaedtgwjvvziytspa.jpg'
p28
aS'sunafhmnhsdurlvddpw.jpg'
p29
aS'sunabasphceswhwwqvv.jpg'
p30
aS'sunafxokyavhgptyfye.jpg'
p31
aS'00763941205fa.jpg'
p32
aS'sunajawzbrlrwafowen.jpg'
p33
aS'00211940128fa.jpg'
p34
aS'sunbfzchmomnvzhbxdg.jpg'
p35
aS'00263940128fb.jpg'
p36
aS'sunacvjlsylseoghjup.jpg'
p37
aS'sunbfyvfqiimvdaxlqn.jpg'
p38
aS'00791941205fa.jpg'
p39
aS'sunamlotskmmsjeogby.jpg'
p40
aS'sunadflbrkckmepztql.jpg'
p41
aS'00239940128fa.jpg'
p42
asS'ratings'
p43
(lp44
(lp45
(NF0.0
tp46
a(I4
F1.235
tp47
aa(lp48
(NF0.0
tp49
a(I3
F0.993
tp50
aa(lp51
(NF0.0
tp52
a(I3
F1.327
tp53
aa(lp54
(NF0.0
tp55
a(I2
F1.109
tp56
aa(lp57
(NF0.0
tp58
a(I1
F0.719
tp59
aa(lp60
(NF0.0
tp61
a(I1
F1.223
tp62
aa(lp63
(NF0.0
tp64
a(I2
F1.857
tp65
aa(lp66
(NF0.0
tp67
a(I2
F1.298
tp68
aa(lp69
(NF0.0
tp70
a(I1
F0.951
tp71
aa(lp72
(NF0.0
tp73
a(I1
F0.815
tp74
aa(lp75
(NF0.0
tp76
a(I4
F0.91
tp77
aa(lp78
(NF0.0
tp79
a(I4
F1.008
tp80
aa(lp81
(NF0.0
tp82
a(I2
F1.162
tp83
aa(lp84
(NF0.0
tp85
a(I1
F1.148
tp86
aa(lp87
(NF0.0
tp88
a(I2
F0.871
tp89
aa(lp90
(NF0.0
tp91
a(I1
F1.299
tp92
aa(lp93
(NF0.0
tp94
a(I1
F0.743
tp95
aa(lp96
(NF0.0
tp97
a(I2
F0.88
tp98
aa(lp99
(NF0.0
tp100
a(I2
F1.1
tp101
aa(lp102
(NF0.0
tp103
a(I4
F0.824
tp104
aa(lp105
(NF0.0
tp106
a(I4
F0.796
tp107
aa(lp108
(NF0.0
tp109
a(I2
F0.981
tp110
aa(lp111
(NF0.0
tp112
a(I1
F1.106
tp113
aa(lp114
(NF0.0
tp115
a(I1
F0.814
tp116
aa(lp117
(NF0.0
tp118
a(I1
F0.661
tp119
aa(lp120
(NF0.0
tp121
a(I3
F1.086
tp122
aa(lp123
(NF0.0
tp124
a(I2
F1.365
tp125
aa(lp126
(NF0.0
tp127
a(I1
F1.716
tp128
aa(lp129
(NF0.0
tp130
a(I4
F0.858
tp131
aa(lp132
(NF0.0
tp133
a(I3
F0.876
tp134
aa(lp135
(NF0.0
tp136
a(I1
F1.099
tp137
aa(lp138
(NF0.0
tp139
a(I3
F1.38
tp140
aa(lp141
(NF0.0
tp142
a(I2
F1.369
tp143
aa(lp144
(NF0.0
tp145
a(I1
F0.853
tp146
aa(lp147
(NF0.0
tp148
a(I1
F0.868
tp149
aa(lp150
(NF0.0
tp151
a(I3
F1.345
tp152
aa(lp153
(NF0.0
tp154
a(I2
F0.798
tp155
aa(lp156
(NF0.0
tp157
aa(lp158
(NF0.0
tp159
a(I4
F1.233
tp160
aa(lp161
(NF0.0
tp162
a(I1
F1.247
tp163
aasS'run_time'
p164
F123.44511604309082
sS'total_iters'
p165
(lp166
I0
aI1
aI2
aI3
aI4
aI5
aI6
aI7
aI8
aI9
aI10
aI11
aI12
aI13
aI14
aI15
aI16
aI17
aI18
aI19
aI20
aI21
aI22
aI23
aI24
aI25
aI26
aI27
aI28
aI29
aI30
aI31
aI32
aI33
aI34
aI35
aI36
aI37
aI38
aI39
as.