(dp0
S'cue_tuples'
p1
(lp2
(S'cue_L'
p3
S'L'
p4
I0
tp5
a(g3
g4
I0
tp6
a(g3
g4
I0
tp7
a(g3
g4
I0
tp8
a(g3
g4
I0
tp9
a(g3
g4
I0
tp10
a(g3
g4
I0
tp11
a(g3
g4
I0
tp12
a(g3
g4
I0
tp13
a(g3
g4
I1
tp14
asS'uncued'
p15
(lp16
S'00787960620fa_sunagoufulkpsxrmklt.jpg'
p17
aS'01010960627fa_suncnkvbhypnivcohyx.jpg'
p18
aS'00062931230fb_sunaaelotvjgibjtjhs.jpg'
p19
aS'00109931230fa_sunaajuzribjrizdshh.jpg'
p20
aS'00129931230fb_sunaamsdyakblkfoydx.jpg'
p21
aS'00847940307fa_sunaivdjruhkrfywfed.jpg'
p22
aS'00705960530fa_sunaduslxfzlbxlllnz.jpg'
p23
aS'00670941121fa_sunadochqcucscehsgk.jpg'
p24
aS'00306940422fa_sunabueyoajufbkraki.jpg'
p25
aS'00142931230fb_sunaapxkpvrhpjplsok.jpg'
p26
asS'cued'
p27
(lp28
S'01207940128fa_sundbixjudsgeuuehrn.jpg'
p29
aS'00841940307fa_sunaisiwfgppimtnmxl.jpg'
p30
aS'00097931230fa_sunaajayojuslbbnneg.jpg'
p31
aS'00271940422fa_sunabmbnddafmywtjjj.jpg'
p32
aS'00235940128fb_sunabclssnoeuigtawp.jpg'
p33
aS'00990960627fa_sunbpflsdaxnddnwcqi.jpg'
p34
aS'00540940519fa_sunacdnquypmsshhsbk.jpg'
p35
aS'00906960530fa_sunantryfbloeaomfta.jpg'
p36
aS'01009960627fa_sunbxzweleltykebgan.jpg'
p37
aS'00939960627fa_sunarceibpcyacbmfga.jpg'
p38
asS'uncued_RT'
p39
(lp40
F0.2933690547943115
aF0.33197593688964844
aF0.32082319259643555
aF0.269118070602417
aF0.41245603561401367
aF0.2603919506072998
aF0.39617180824279785
aF0.23495197296142578
aF0.27489590644836426
aF0.5923449993133545
asS'cued_RT'
p41
(lp42
s.