(dp0
S'images'
p1
(lp2
S'sunavhxgmgrqsaptynb.jpg'
p3
aS'00887960530.jpg'
p4
aS'00950960627fa.jpg'
p5
aS'00076931230fa.jpg'
p6
aS'sunbwdrdvsweerwsdrj.jpg'
p7
aS'00868960307fa.jpg'
p8
aS'sunaiwfobocrruqznsv.jpg'
p9
aS'00862940307fa.jpg'
p10
aS'sunaauhozyxzeeqstxi.jpg'
p11
aS'00914960620fa.jpg'
p12
aS'sunajjxttslobudoqbv.jpg'
p13
aS'sunabctlikybqabezjv.jpg'
p14
aS'00978960627fa.jpg'
p15
aS'00947960627fa.jpg'
p16
aS'sunbddbivbptlrlauhy.jpg'
p17
aS'00893960530Fa.jpg'
p18
aS'sunaafewhewbxmjiurz.jpg'
p19
aS'00153931230fa.jpg'
p20
aS'sunabqowuarvqqcnipn.jpg'
p21
aS'sunaozisvwfbmlkfhzv.jpg'
p22
aS'00290940422fa.jpg'
p23
aS'sunaqbmgkgqucajzrkp.jpg'
p24
aS'00913960530fa.jpg'
p25
aS'00938960627fa.jpg'
p26
aS'sunacuatpqpqhyjhjqk.jpg'
p27
aS'00942960627fa.jpg'
p28
aS'sunadoxcchtmsxewsau.jpg'
p29
aS'00894960620fa.jpg'
p30
aS'01003960627fb.jpg'
p31
aS'sunasmmcxdddtmtazwx.jpg'
p32
aS'00959960627fa.jpg'
p33
aS'00727941205fa.jpg'
p34
aS'00957960627fa.jpg'
p35
aS'sunaizgnnplsvajzhkc.jpg'
p36
aS'sunarfdklgdnjgeqfjg.jpg'
p37
aS'sunakodkcslgqhqlgwl.jpg'
p38
aS'sunaooffzffbhcpirmm.jpg'
p39
aS'00884960530fa.jpg'
p40
aS'sunaeisnjeetzmkbuad.jpg'
p41
aS'sunavxokzybtomhbmvm.jpg'
p42
asS'ratings'
p43
(lp44
(lp45
(NF0.0
tp46
aa(lp47
(NF0.0
tp48
a(I2
F1.348
tp49
aa(lp50
(NF0.0
tp51
a(I4
F0.942
tp52
aa(lp53
(NF0.0
tp54
a(I2
F1.097
tp55
aa(lp56
(NF0.0
tp57
a(I4
F1.621
tp58
aa(lp59
(NF0.0
tp60
a(I2
F0.99
tp61
aa(lp62
(NF0.0
tp63
a(I1
F1.419
tp64
aa(lp65
(NF0.0
tp66
a(I1
F1.231
tp67
aa(lp68
(NF0.0
tp69
a(I1
F0.833
tp70
aa(lp71
(NF0.0
tp72
a(I4
F0.718
tp73
aa(lp74
(NF0.0
tp75
a(I3
F1.085
tp76
aa(lp77
(NF0.0
tp78
a(I1
F1.339
tp79
aa(lp80
(NF0.0
tp81
a(I4
F1.408
tp82
aa(lp83
(NF0.0
tp84
a(I3
F1.113
tp85
aa(lp86
(NF0.0
tp87
a(I3
F1.342
tp88
aa(lp89
(NF0.0
tp90
a(I1
F1.082
tp91
aa(lp92
(NF0.0
tp93
a(I1
F0.585
tp94
aa(lp95
(NF0.0
tp96
a(I1
F0.719
tp97
aa(lp98
(NF0.0
tp99
a(I1
F0.587
tp100
aa(lp101
(NF0.0
tp102
a(I1
F0.691
tp103
aa(lp104
(NF0.0
tp105
a(I2
F1.195
tp106
aa(lp107
(NF0.0
tp108
a(I1
F0.684
tp109
aa(lp110
(NF0.0
tp111
a(I1
F0.664
tp112
aa(lp113
(NF0.0
tp114
a(I4
F1.637
tp115
aa(lp116
(NF0.0
tp117
a(I3
F1.037
tp118
aa(lp119
(NF0.0
tp120
a(I3
F0.87
tp121
aa(lp122
(NF0.0
tp123
a(I2
F1.012
tp124
aa(lp125
(NF0.0
tp126
a(I1
F1.176
tp127
aa(lp128
(NF0.0
tp129
a(I1
F1.044
tp130
aa(lp131
(NF0.0
tp132
a(I1
F0.501
tp133
aa(lp134
(NF0.0
tp135
a(I1
F0.916
tp136
aa(lp137
(NF0.0
tp138
a(I2
F1.342
tp139
aa(lp140
(NF0.0
tp141
a(I1
F0.905
tp142
aa(lp143
(NF0.0
tp144
a(I1
F0.414
tp145
aa(lp146
(NF0.0
tp147
a(I1
F0.569
tp148
aa(lp149
(NF0.0
tp150
a(I1
F0.521
tp151
aa(lp152
(NF0.0
tp153
a(I1
F0.472
tp154
aa(lp155
(NF0.0
tp156
a(I3
F1.596
tp157
aa(lp158
(NF0.0
tp159
a(I1
F0.515
tp160
aa(lp161
(NF0.0
tp162
a(I1
F0.585
tp163
aasS'run_time'
p164
F123.74610996246338
sS'total_iters'
p165
(lp166
I0
aI1
aI2
aI3
aI4
aI5
aI6
aI7
aI8
aI9
aI10
aI11
aI12
aI13
aI14
aI15
aI16
aI17
aI18
aI19
aI20
aI21
aI22
aI23
aI24
aI25
aI26
aI27
aI28
aI29
aI30
aI31
aI32
aI33
aI34
aI35
aI36
aI37
aI38
aI39
as.