(dp0
S'images'
p1
(lp2
S'sunagsiwrmuixqgdimb.jpg'
p3
aS'00870940307fa.jpg'
p4
aS'00986960627fa.jpg'
p5
aS'sunaijsqpvodplbwxkf.jpg'
p6
aS'sunbgzjryivyczuvkvm.jpg'
p7
aS'sunaeomlfaabhpswasy.jpg'
p8
aS'00564940928fa.jpg'
p9
aS'00789960620fa.jpg'
p10
aS'00960960627fa.jpg'
p11
aS'sunaeuzwggvibufclwf.jpg'
p12
aS'sunabmytpyhsgigllxu.jpg'
p13
aS'sunagvprlbprarvgdvj.jpg'
p14
aS'sunafkmnlytenlsywia.jpg'
p15
aS'00772941201fa.jpg'
p16
aS'00305940422fa.jpg'
p17
aS'00750941201fa.jpg'
p18
aS'00482940519fa.jpg'
p19
aS'sunaefgzwiramypjvtd.jpg'
p20
aS'sunaddtdkycxbqlpfqa.jpg'
p21
aS'sunagjzcrjvmxzqzljx.jpg'
p22
aS'00955960627fb.jpg'
p23
aS'00108960530fa.jpg'
p24
aS'00276940422fa.jpg'
p25
aS'sunadsgmtznewzyasnk.jpg'
p26
aS'00082931230fa.jpg'
p27
aS'00784941205fb.jpg'
p28
aS'00554940519fa.jpg'
p29
aS'00073931230fa.jpg'
p30
aS'00620940928fa.jpg'
p31
aS'sunabxmguapjekttvwm.jpg'
p32
aS'sunacypmnujalygkunp.jpg'
p33
aS'00835940307fa.jpg'
p34
aS'sunafpfpiiujzoesnqg.jpg'
p35
aS'sunabyfxcxhdebvdyfd.jpg'
p36
aS'00725941201fa.jpg'
p37
aS'00819940307fa.jpg'
p38
aS'sunaafvitpexrpvumsa.jpg'
p39
aS'00891960530fa.jpg'
p40
aS'sunabtrnbvpppgczjim.jpg'
p41
aS'sunacfdkbsrughwqwtt.jpg'
p42
asS'ratings'
p43
(lp44
(lp45
(NF0.0
tp46
a(I1
F1.398
tp47
aa(lp48
(NF0.0
tp49
a(I3
F1.052
tp50
aa(lp51
(NF0.0
tp52
a(I2
F1.154
tp53
aa(lp54
(NF0.0
tp55
a(I3
F1.154
tp56
aa(lp57
(NF0.0
tp58
a(I2
F1.018
tp59
aa(lp60
(NF0.0
tp61
a(I4
F1.225
tp62
aa(lp63
(NF0.0
tp64
a(I2
F1.146
tp65
aa(lp66
(NF0.0
tp67
a(I4
F0.882
tp68
aa(lp69
(NF0.0
tp70
a(I3
F1.775
tp71
aa(lp72
(NF0.0
tp73
a(I1
F0.639
tp74
aa(lp75
(NF0.0
tp76
a(I1
F0.689
tp77
aa(lp78
(NF0.0
tp79
a(I1
F0.607
tp80
aa(lp81
(NF0.0
tp82
a(I1
F0.876
tp83
aa(lp84
(NF0.0
tp85
a(I2
F1.336
tp86
aa(lp87
(NF0.0
tp88
a(I4
F1.165
tp89
aa(lp90
(NF0.0
tp91
a(I3
F0.862
tp92
aa(lp93
(NF0.0
tp94
a(I1
F0.922
tp95
aa(lp96
(NF0.0
tp97
a(I1
F0.615
tp98
aa(lp99
(NF0.0
tp100
a(I1
F0.689
tp101
aa(lp102
(NF0.0
tp103
a(I1
F1.035
tp104
aa(lp105
(NF0.0
tp106
a(I1
F1.211
tp107
aa(lp108
(NF0.0
tp109
a(I1
F0.812
tp110
aa(lp111
(NF0.0
tp112
a(I3
F1.335
tp113
aa(lp114
(NF0.0
tp115
a(I1
F1.016
tp116
aa(lp117
(NF0.0
tp118
a(I1
F0.948
tp119
aa(lp120
(NF0.0
tp121
a(I2
F0.783
tp122
aa(lp123
(NF0.0
tp124
a(I3
F1.601
tp125
aa(lp126
(NF0.0
tp127
a(I3
F0.981
tp128
aa(lp129
(NF0.0
tp130
a(I3
F1.183
tp131
aa(lp132
(NF0.0
tp133
a(I1
F0.578
tp134
aa(lp135
(NF0.0
tp136
a(I1
F0.538
tp137
aa(lp138
(NF0.0
tp139
a(I3
F1.192
tp140
aa(lp141
(NF0.0
tp142
a(I1
F1.222
tp143
aa(lp144
(NF0.0
tp145
a(I1
F0.966
tp146
aa(lp147
(NF0.0
tp148
a(I1
F0.907
tp149
aa(lp150
(NF0.0
tp151
a(I1
F0.478
tp152
aa(lp153
(NF0.0
tp154
a(I3
F1.358
tp155
aa(lp156
(NF0.0
tp157
a(I1
F0.583
tp158
aa(lp159
(NF0.0
tp160
a(I4
F0.912
tp161
aa(lp162
(NF0.0
tp163
a(I2
F1.071
tp164
aasS'run_time'
p165
F123.76217794418335
sS'total_iters'
p166
(lp167
I0
aI1
aI2
aI3
aI4
aI5
aI6
aI7
aI8
aI9
aI10
aI11
aI12
aI13
aI14
aI15
aI16
aI17
aI18
aI19
aI20
aI21
aI22
aI23
aI24
aI25
aI26
aI27
aI28
aI29
aI30
aI31
aI32
aI33
aI34
aI35
aI36
aI37
aI38
aI39
as.