(dp0
S'images'
p1
(lp2
S'sunaiwduelojtwaqeyh.jpg'
p3
aS'sunaazezcsunmhttzxz.jpg'
p4
aS'00557940519fa.jpg'
p5
aS'00902960530fa.jpg'
p6
aS'00598940928fa.jpg'
p7
aS'sunanaacmmosxrfwmvl.jpg'
p8
aS'00779941205fa.jpg'
p9
aS'00131931230fb.jpg'
p10
aS'sunacjnahdmqfnjfwqx.jpg'
p11
aS'sunabcuurugvxwparpk.jpg'
p12
aS'00302940422fa.jpg'
p13
aS'sunabckqabszusgcykj.jpg'
p14
aS'sunachtuarilwyqnvjx.jpg'
p15
aS'00804960530fa.jpg'
p16
aS'sunacepzfrmtkiqonpy.jpg'
p17
aS'sunaangbuylfvckqqoo.jpg'
p18
aS'sunaaelyvurpntclgau.jpg'
p19
aS'sunaanptmsknhirrzed.jpg'
p20
aS'sunaaemixhfquhnxxlm.jpg'
p21
aS'00242940128fa.jpg'
p22
aS'sunabzuqsrgcsonqlkz.jpg'
p23
aS'sunacmpqqfbsvlzinzl.jpg'
p24
aS'sunagountlxpzkytsmp.jpg'
p25
aS'sunabtlfmiwtljmoues.jpg'
p26
aS'00532960627fa.jpg'
p27
aS'sunaccdtpgenvcbcbcf.jpg'
p28
aS'00562941031fa.jpg'
p29
aS'00096931230fa.jpg'
p30
aS'sunaaiqiqcggrskoqgy.jpg'
p31
aS'sunaptrqvaooxfvktvw.jpg'
p32
aS'00198940128fb.jpg'
p33
aS'sunbmaiocftdtvnzgap.jpg'
p34
aS'00630941031fa.jpg'
p35
aS'sunaddsaeicthrfbkhe.jpg'
p36
aS'sunagwswhkvnsmuszlz.jpg'
p37
aS'sunadakkdovnuzlycvp.jpg'
p38
aS'sunahmhrncocyhsjpxk.jpg'
p39
aS'00635941031fa.jpg'
p40
aS'00505960627fa.jpg'
p41
aS'00788941205fa.jpg'
p42
asS'ratings'
p43
(lp44
(lp45
(NF0.0
tp46
aa(lp47
(NF0.0
tp48
a(I1
F0.897
tp49
aa(lp50
(NF0.0
tp51
a(I4
F1.223
tp52
aa(lp53
(NF0.0
tp54
a(I2
F0.779
tp55
aa(lp56
(NF0.0
tp57
a(I1
F0.849
tp58
aa(lp59
(NF0.0
tp60
a(I2
F1.208
tp61
aa(lp62
(NF0.0
tp63
a(I1
F0.803
tp64
aa(lp65
(NF0.0
tp66
a(I1
F0.801
tp67
aa(lp68
(NF0.0
tp69
a(I1
F1.067
tp70
aa(lp71
(NF0.0
tp72
a(I4
F0.71
tp73
aa(lp74
(NF0.0
tp75
a(I1
F1.626
tp76
aa(lp77
(NF0.0
tp78
a(I1
F0.744
tp79
aa(lp80
(NF0.0
tp81
a(I4
F0.886
tp82
aa(lp83
(NF0.0
tp84
a(I1
F1.552
tp85
aa(lp86
(NF0.0
tp87
a(I1
F0.784
tp88
aa(lp89
(NF0.0
tp90
a(I1
F1.012
tp91
aa(lp92
(NF0.0
tp93
a(I1
F0.953
tp94
aa(lp95
(NF0.0
tp96
a(I2
F0.977
tp97
aa(lp98
(NF0.0
tp99
a(I3
F1.428
tp100
aa(lp101
(NF0.0
tp102
a(I2
F1.426
tp103
aa(lp104
(NF0.0
tp105
a(I1
F0.757
tp106
aa(lp107
(NF0.0
tp108
a(I1
F0.786
tp109
aa(lp110
(NF0.0
tp111
a(I1
F0.774
tp112
aa(lp113
(NF0.0
tp114
a(I4
F1.136
tp115
aa(lp116
(NF0.0
tp117
a(I1
F0.788
tp118
aa(lp119
(NF0.0
tp120
a(I1
F0.914
tp121
aa(lp122
(NF0.0
tp123
a(I1
F0.596
tp124
aa(lp125
(NF0.0
tp126
a(I1
F1.325
tp127
aa(lp128
(NF0.0
tp129
a(I1
F1.549
tp130
aa(lp131
(NF0.0
tp132
a(I1
F0.718
tp133
aa(lp134
(NF0.0
tp135
a(I2
F0.87
tp136
aa(lp137
(NF0.0
tp138
a(I3
F1.186
tp139
aa(lp140
(NF0.0
tp141
a(I2
F1.554
tp142
aa(lp143
(NF0.0
tp144
a(I4
F1.223
tp145
aa(lp146
(NF0.0
tp147
a(I4
F1.082
tp148
aa(lp149
(NF0.0
tp150
a(I2
F0.893
tp151
aa(lp152
(NF0.0
tp153
a(I1
F0.982
tp154
aa(lp155
(NF0.0
tp156
a(I1
F0.795
tp157
aa(lp158
(NF0.0
tp159
a(I1
F0.649
tp160
aa(lp161
(NF0.0
tp162
a(I2
F0.955
tp163
aasS'run_time'
p164
F123.34633708000183
sS'total_iters'
p165
(lp166
I0
aI1
aI2
aI3
aI4
aI5
aI6
aI7
aI8
aI9
aI10
aI11
aI12
aI13
aI14
aI15
aI16
aI17
aI18
aI19
aI20
aI21
aI22
aI23
aI24
aI25
aI26
aI27
aI28
aI29
aI30
aI31
aI32
aI33
aI34
aI35
aI36
aI37
aI38
aI39
as.