(dp0
S'cue_tuples'
p1
(lp2
(S'cue_R'
p3
S'L'
p4
I0
tp5
a(g3
g4
I0
tp6
a(g3
g4
I0
tp7
a(g3
g4
I0
tp8
a(g3
g4
I0
tp9
a(g3
g4
I0
tp10
a(g3
g4
I0
tp11
a(g3
g4
I1
tp12
a(g3
g4
I0
tp13
a(g3
g4
I0
tp14
asS'uncued'
p15
(lp16
S'00902960530fa_sunanaacmmosxrfwmvl.jpg'
p17
aS'00532960627fa_sunaccdtpgenvcbcbcf.jpg'
p18
aS'00505960627fa_sunabzuqsrgcsonqlkz.jpg'
p19
aS'00876960620fa_sunajwqkfsykceonyig.jpg'
p20
aS'00788941205fa_sunagountlxpzkytsmp.jpg'
p21
aS'00630941031fa_sunadakkdovnuzlycvp.jpg'
p22
aS'00804960530fa_sunagwswhkvnsmuszlz.jpg'
p23
aS'00096931230fa_sunaaiqiqcggrskoqgy.jpg'
p24
aS'00198940128fb_sunaazezcsunmhttzxz.jpg'
p25
aS'00562941031fa_sunacjnahdmqfnjfwqx.jpg'
p26
asS'cued'
p27
(lp28
S'00635941031fa_sunaddsaeicthrfbkhe.jpg'
p29
aS'00136931230fb_sunaanptmsknhirrzed.jpg'
p30
aS'00133931230fa_sunaanlwnpqndclffxt.jpg'
p31
aS'00065931230fb_sunaaemixhfquhnxxlm.jpg'
p32
aS'00988960627fa_sunbmaiocftdtvnzgap.jpg'
p33
aS'00931960627fa_sunaptrqvaooxfvktvw.jpg'
p34
aS'00242940128fa_sunabcuurugvxwparpk.jpg'
p35
aS'00557940519fa_sunachtuarilwyqnvjx.jpg'
p36
aS'00131931230fb_sunaangbuylfvckqqoo.jpg'
p37
aS'00302940422fa_sunabtlfmiwtljmoues.jpg'
p38
asS'uncued_RT'
p39
(lp40
F0.3053569793701172
asS'cued_RT'
p41
(lp42
F0.3171041011810303
aF0.3871729373931885
aF0.3658440113067627
aF0.26596498489379883
aF0.3356897830963135
aF0.4151008129119873
aF0.256558895111084
aF0.4636240005493164
aF0.20762395858764648
as.