(dp0
S'cue_tuples'
p1
(lp2
(S'cue_R'
p3
S'L'
p4
I0
tp5
a(g3
g4
I0
tp6
a(g3
g4
I0
tp7
a(g3
g4
I0
tp8
a(g3
g4
I0
tp9
a(g3
g4
I1
tp10
a(g3
g4
I0
tp11
a(g3
g4
I0
tp12
a(g3
g4
I0
tp13
a(g3
g4
I0
tp14
asS'uncued'
p15
(lp16
S'00191940128fb_sunaawsdjisukbbginm.jpg'
p17
aS'00969960627fa_sunbaoizrfijvhpnnjn.jpg'
p18
aS'00112931230fa_sunaakjaacuzulqckgl.jpg'
p19
aS'00963960627fa_sunayaepykrqvenaqqy.jpg'
p20
aS'00922960627fa_sunapqkyghktgtosuuk.jpg'
p21
aS'00728941205fa_sunaejnvnpltdmhbcsi.jpg'
p22
aS'00966960627fa_sunaygrtwrwfezqjizr.jpg'
p23
aS'00828940307fa_sunahuynahneraqftyz.jpg'
p24
aS'00184940128fa_sunaavtbadenwnzeutj.jpg'
p25
aS'00745941205fa_sunaeouogqolxvggaoq.jpg'
p26
asS'cued'
p27
(lp28
S'00069931230fb_sunaaeowapdkwzqpgqr.jpg'
p29
aS'00144931230fb_sunaathajvxrgptwhoj.jpg'
p30
aS'00929960627fa_sunaprnrbmgkomdbchr.jpg'
p31
aS'00146960620fb_sunaatpeezlljqaxlhj.jpg'
p32
aS'00568940928fa_sunacsdhbbsybcyxnel.jpg'
p33
aS'00848940307fa_sunaivdylrawbmhryfp.jpg'
p34
aS'00266940128fb_sunabkngeblodihjvbk.jpg'
p35
aS'00163931230fb_sunaavodbcpygkggnfp.jpg'
p36
aS'00877960530fa_sunajxpkuhbizeveguy.jpg'
p37
aS'00953960627fa_sunatstrpjxhvtbaczf.jpg'
p38
asS'uncued_RT'
p39
(lp40
F0.2742879390716553
asS'cued_RT'
p41
(lp42
F0.519050121307373
aF0.40476298332214355
aF0.3824501037597656
aF0.6088900566101074
aF0.47254300117492676
aF0.3297119140625
aF0.2785191535949707
aF0.3014090061187744
aF0.46156787872314453
as.