(dp0
S'images'
p1
(lp2
S'00163931230fb.jpg'
p3
aS'00828940307fa.jpg'
p4
aS'sunaatpkocdkocwxpkb.jpg'
p5
aS'00969960627fa.jpg'
p6
aS'00825940307fa.jpg'
p7
aS'sunagetqixeypsysbpn.jpg'
p8
aS'00745941205fa.jpg'
p9
aS'sunaazzyhbvqjpmazjq.jpg'
p10
aS'sunacsdhbbsybcyxnel.jpg'
p11
aS'00728941205fa.jpg'
p12
aS'sunajxpkuhbizeveguy.jpg'
p13
aS'sunaavtbadenwnzeutj.jpg'
p14
aS'00877960530fa.jpg'
p15
aS'01007960627fa.jpg'
p16
aS'sunatstrpjxhvtbaczf.jpg'
p17
aS'00773960620fa.jpg'
p18
aS'sunapqkyghktgtosuuk.jpg'
p19
aS'00774941201fa.jpg'
p20
aS'sunbaoizrfijvhpnnjn.jpg'
p21
aS'00112931230fa.jpg'
p22
aS'sunayaepykrqvenaqqy.jpg'
p23
aS'00963960627fa.jpg'
p24
aS'sunaprnrbmgkomdbchr.jpg'
p25
aS'00922960627fa.jpg'
p26
aS'00144931230fb.jpg'
p27
aS'00069931230fb.jpg'
p28
aS'sunaygrtwrwfezqjizr.jpg'
p29
aS'sunaathajvxrgptwhoj.jpg'
p30
aS'00910960530fa.jpg'
p31
aS'sunaakjaacuzulqckgl.jpg'
p32
aS'sunahuynahneraqftyz.jpg'
p33
aS'00966960627fa.jpg'
p34
aS'00184940128fa.jpg'
p35
aS'sunaauglwmctnkxyird.jpg'
p36
aS'00953960627fa.jpg'
p37
aS'00266940128fb.jpg'
p38
aS'sunaatpeezlljqaxlhj.jpg'
p39
aS'sunaeouogqolxvggaoq.jpg'
p40
aS'00146960620fb.jpg'
p41
aS'sunaaeowapdkwzqpgqr.jpg'
p42
asS'ratings'
p43
(lp44
(lp45
(NF0.0
tp46
a(I4
F1.845
tp47
aa(lp48
(NF0.0
tp49
a(I2
F0.826
tp50
aa(lp51
(NF0.0
tp52
a(I1
F1.275
tp53
aa(lp54
(NF0.0
tp55
a(I1
F1.012
tp56
aa(lp57
(NF0.0
tp58
a(I1
F1.728
tp59
aa(lp60
(NF0.0
tp61
a(I3
F1.572
tp62
aa(lp63
(NF0.0
tp64
a(I2
F0.709
tp65
aa(lp66
(NF0.0
tp67
a(I2
F0.743
tp68
aa(lp69
(NF0.0
tp70
a(I4
F0.803
tp71
aa(lp72
(NF0.0
tp73
a(I2
F1.049
tp74
aa(lp75
(NF0.0
tp76
a(I1
F1.27
tp77
aa(lp78
(NF0.0
tp79
a(I2
F1.194
tp80
aa(lp81
(NF0.0
tp82
a(I1
F0.635
tp83
aa(lp84
(NF0.0
tp85
a(I1
F0.594
tp86
aa(lp87
(NF0.0
tp88
a(I1
F1.542
tp89
aa(lp90
(NF0.0
tp91
a(I1
F1.002
tp92
aa(lp93
(NF0.0
tp94
a(I2
F0.861
tp95
aa(lp96
(NF0.0
tp97
a(I2
F0.666
tp98
aa(lp99
(NF0.0
tp100
a(I2
F1.297
tp101
aa(lp102
(NF0.0
tp103
a(I2
F0.794
tp104
aa(lp105
(NF0.0
tp106
a(I1
F0.908
tp107
aa(lp108
(NF0.0
tp109
a(I1
F0.816
tp110
aa(lp111
(NF0.0
tp112
a(I2
F1.43
tp113
aa(lp114
(NF0.0
tp115
a(I2
F0.508
tp116
aa(lp117
(NF0.0
tp118
a(I1
F0.824
tp119
aa(lp120
(NF0.0
tp121
a(I1
F0.92
tp122
aa(lp123
(NF0.0
tp124
a(I2
F1.006
tp125
aa(lp126
(NF0.0
tp127
a(I3
F1.107
tp128
aa(lp129
(NF0.0
tp130
a(I1
F0.613
tp131
aa(lp132
(NF0.0
tp133
a(I1
F0.927
tp134
aa(lp135
(NF0.0
tp136
a(I1
F0.897
tp137
aa(lp138
(NF0.0
tp139
a(I1
F0.943
tp140
aa(lp141
(NF0.0
tp142
a(I1
F0.566
tp143
aa(lp144
(NF0.0
tp145
a(I1
F0.856
tp146
aa(lp147
(NF0.0
tp148
a(I1
F0.727
tp149
aa(lp150
(NF0.0
tp151
a(I2
F0.728
tp152
aa(lp153
(NF0.0
tp154
a(I4
F1.175
tp155
aa(lp156
(NF0.0
tp157
a(I4
F0.823
tp158
aa(lp159
(NF0.0
tp160
a(I1
F0.641
tp161
aa(lp162
(NF0.0
tp163
a(I1
F0.875
tp164
aasS'run_time'
p165
F123.39523601531982
sS'total_iters'
p166
(lp167
I0
aI1
aI2
aI3
aI4
aI5
aI6
aI7
aI8
aI9
aI10
aI11
aI12
aI13
aI14
aI15
aI16
aI17
aI18
aI19
aI20
aI21
aI22
aI23
aI24
aI25
aI26
aI27
aI28
aI29
aI30
aI31
aI32
aI33
aI34
aI35
aI36
aI37
aI38
aI39
as.