(dp0
S'images'
p1
(lp2
S'00869940307fa.jpg'
p3
aS'sunakmnfgklupjijsgf.jpg'
p4
aS'00958960627fa.jpg'
p5
aS'00120931230fa.jpg'
p6
aS'sunaeutbrtswvsozxyk.jpg'
p7
aS'00905960530fa.jpg'
p8
aS'00270940422fb.jpg'
p9
aS'00102931230fa.jpg'
p10
aS'sunajoveqhiprwqgoco.jpg'
p11
aS'sunaajspcoepticvplv.jpg'
p12
aS'00564941031fa.jpg'
p13
aS'sunagrmyoovzukhxmlo.jpg'
p14
aS'sunadrmfzmstgdjdcod.jpg'
p15
aS'00650941031fa.jpg'
p16
aS'00851940307fa.jpg'
p17
aS'sunaalhlvzmjmitybdn.jpg'
p18
aS'00880960530fa.jpg'
p19
aS'00126931230fb.jpg'
p20
aS'00124931230fa.jpg'
p21
aS'00936960627fa.jpg'
p22
aS'sunaqgjuuwvdcyiccjt.jpg'
p23
aS'00766960620fa.jpg'
p24
aS'01005960627fa.jpg'
p25
aS'00742941201fa.jpg'
p26
aS'sunafijbgncijwykrnl.jpg'
p27
aS'sunanwjjyqqwzqrqagd.jpg'
p28
aS'sunaavchcbptaerhcfy.jpg'
p29
aS'00915960620fa.jpg'
p30
aS'sunaakxgygjfqrzpyoz.jpg'
p31
aS'sunavspxmxubqaeidjt.jpg'
p32
aS'sunbwyuesflwdpqtgoy.jpg'
p33
aS'sunabjzyxcjnmztdonj.jpg'
p34
aS'sunahwgbqkqcrwprgvh.jpg'
p35
aS'00818940307fa.jpg'
p36
aS'00633940928fa.jpg'
p37
aS'sunajtrfunvzdfticna.jpg'
p38
aS'00648941031fa.jpg'
p39
aS'sunadfndyrtqqiasoig.jpg'
p40
aS'sunapileznnbbmrwoei.jpg'
p41
aS'sunbbegcweqnetpdlrh.jpg'
p42
asS'ratings'
p43
(lp44
(lp45
(NF0.0
tp46
a(I1
F1.095
tp47
aa(lp48
(NF0.0
tp49
a(I1
F0.759
tp50
aa(lp51
(NF0.0
tp52
a(I2
F1.515
tp53
aa(lp54
(NF0.0
tp55
a(I1
F0.896
tp56
aa(lp57
(NF0.0
tp58
a(I1
F0.709
tp59
aa(lp60
(NF0.0
tp61
a(I2
F0.801
tp62
aa(lp63
(NF0.0
tp64
a(I3
F0.767
tp65
aa(lp66
(NF0.0
tp67
a(I3
F0.928
tp68
aa(lp69
(NF0.0
tp70
a(I1
F0.691
tp71
aa(lp72
(NF0.0
tp73
a(I1
F0.745
tp74
aa(lp75
(NF0.0
tp76
a(I2
F0.849
tp77
aa(lp78
(NF0.0
tp79
a(I2
F1.111
tp80
aa(lp81
(NF0.0
tp82
a(I3
F0.682
tp83
aa(lp84
(NF0.0
tp85
a(I2
F0.821
tp86
aa(lp87
(NF0.0
tp88
a(I3
F1.291
tp89
aa(lp90
(NF0.0
tp91
a(I1
F0.802
tp92
aa(lp93
(NF0.0
tp94
a(I1
F0.766
tp95
aa(lp96
(NF0.0
tp97
a(I2
F1.028
tp98
aa(lp99
(NF0.0
tp100
a(I3
F1.806
tp101
aa(lp102
(NF0.0
tp103
a(I3
F0.801
tp104
aa(lp105
(NF0.0
tp106
a(I4
F0.966
tp107
aa(lp108
(NF0.0
tp109
a(I3
F0.858
tp110
aa(lp111
(NF0.0
tp112
a(I3
F0.608
tp113
aa(lp114
(NF0.0
tp115
a(I3
F0.73
tp116
aa(lp117
(NF0.0
tp118
a(I4
F0.847
tp119
aa(lp120
(NF0.0
tp121
a(I2
F0.9
tp122
aa(lp123
(NF0.0
tp124
a(I4
F0.844
tp125
aa(lp126
(NF0.0
tp127
a(I4
F0.88
tp128
aa(lp129
(NF0.0
tp130
a(I2
F0.813
tp131
aa(lp132
(NF0.0
tp133
a(I3
F0.924
tp134
aa(lp135
(NF0.0
tp136
a(I3
F0.878
tp137
aa(lp138
(NF0.0
tp139
a(I3
F0.714
tp140
aa(lp141
(NF0.0
tp142
a(I4
F1.378
tp143
aa(lp144
(NF0.0
tp145
a(I3
F1.003
tp146
aa(lp147
(NF0.0
tp148
a(I1
F0.895
tp149
aa(lp150
(NF0.0
tp151
a(I1
F0.881
tp152
aa(lp153
(NF0.0
tp154
a(I1
F1.16
tp155
aa(lp156
(NF0.0
tp157
a(I1
F0.848
tp158
aa(lp159
(NF0.0
tp160
a(I1
F0.678
tp161
aa(lp162
(NF0.0
tp163
a(I1
F0.704
tp164
aasS'run_time'
p165
F123.66283392906189
sS'total_iters'
p166
(lp167
I0
aI1
aI2
aI3
aI4
aI5
aI6
aI7
aI8
aI9
aI10
aI11
aI12
aI13
aI14
aI15
aI16
aI17
aI18
aI19
aI20
aI21
aI22
aI23
aI24
aI25
aI26
aI27
aI28
aI29
aI30
aI31
aI32
aI33
aI34
aI35
aI36
aI37
aI38
aI39
as.