(dp0
S'images'
p1
(lp2
S'00061931230fb.jpg'
p3
aS'sunadzuvtmtmgupotmf.jpg'
p4
aS'sunagmwxxwymwojbvgi.jpg'
p5
aS'sunaipyohrqlwngaqif.jpg'
p6
aS'sunaaexpnawiehinlpy.jpg'
p7
aS'00119931230fb.jpg'
p8
aS'01011960627fa.jpg'
p9
aS'00122931230fa.jpg'
p10
aS'00768941205fa.jpg'
p11
aS'00977960627fa.jpg'
p12
aS'sunabrwnslxalcohfre.jpg'
p13
aS'00965960627fa.jpg'
p14
aS'sunablfqiwfqomjarht.jpg'
p15
aS'00589940928fa.jpg'
p16
aS'00792941205fa.jpg'
p17
aS'00130931230fa.jpg'
p18
aS'sunabwmcbaxwioksdgw.jpg'
p19
aS'00071941031fa.jpg'
p20
aS'sunaakxjfbrrequcjmx.jpg'
p21
aS'00479940519fa.jpg'
p22
aS'00631940928fa.jpg'
p23
aS'00838940307fa.jpg'
p24
aS'sunbasypfgzjtomktmu.jpg'
p25
aS'00292940422fb.jpg'
p26
aS'sunafgdqbclkwfocdhg.jpg'
p27
aS'sunaakvmbftkrgqhjun.jpg'
p28
aS'sunadpnqovzckyikrjo.jpg'
p29
aS'sunabrjdpmoedcdjbpo.jpg'
p30
aS'sunabxsbfwjccqxxzxq.jpg'
p31
aS'00787941205fa.jpg'
p32
aS'00816941205fa.jpg'
p33
aS'sunaaexqbtdswxrqjvz.jpg'
p34
aS'00296940422fa.jpg'
p35
aS'sundahdxwmcdluscvot.jpg'
p36
aS'00839940307fa.jpg'
p37
aS'sunaczwgyukesaajxnx.jpg'
p38
aS'sunaaekxzjzrfgtkwjf.jpg'
p39
aS'00719960620fa.jpg'
p40
aS'sunajrujcsdxmfbssmc.jpg'
p41
aS'00829940307fa.jpg'
p42
asS'ratings'
p43
(lp44
(lp45
(NF0.0
tp46
a(I2
F1.24
tp47
aa(lp48
(NF0.0
tp49
a(I2
F0.882
tp50
aa(lp51
(NF0.0
tp52
a(I2
F1.029
tp53
aa(lp54
(NF0.0
tp55
a(I1
F0.941
tp56
aa(lp57
(NF0.0
tp58
a(I3
F0.976
tp59
aa(lp60
(NF0.0
tp61
a(I4
F0.878
tp62
aa(lp63
(NF0.0
tp64
a(I2
F0.848
tp65
aa(lp66
(NF0.0
tp67
a(I2
F0.928
tp68
aa(lp69
(NF0.0
tp70
a(I3
F1.221
tp71
aa(lp72
(NF0.0
tp73
a(I1
F0.994
tp74
aa(lp75
(NF0.0
tp76
a(I1
F0.761
tp77
aa(lp78
(NF0.0
tp79
a(I1
F1.388
tp80
aa(lp81
(NF0.0
tp82
a(I4
F1.25
tp83
aa(lp84
(NF0.0
tp85
a(I3
F1.163
tp86
aa(lp87
(NF0.0
tp88
a(I1
F0.81
tp89
aa(lp90
(NF0.0
tp91
aa(lp92
(NF0.0
tp93
a(I3
F1.096
tp94
aa(lp95
(NF0.0
tp96
a(I2
F0.743
tp97
aa(lp98
(NF0.0
tp99
a(I3
F0.957
tp100
aa(lp101
(NF0.0
tp102
a(I3
F0.68
tp103
aa(lp104
(NF0.0
tp105
a(I4
F0.869
tp106
aa(lp107
(NF0.0
tp108
a(I4
F0.752
tp109
aa(lp110
(NF0.0
tp111
a(I4
F0.703
tp112
aa(lp113
(NF0.0
tp114
a(I3
F0.633
tp115
aa(lp116
(NF0.0
tp117
a(I2
F0.594
tp118
aa(lp119
(NF0.0
tp120
a(I4
F1.21
tp121
aa(lp122
(NF0.0
tp123
a(I2
F0.807
tp124
aa(lp125
(NF0.0
tp126
a(I3
F0.723
tp127
aa(lp128
(NF0.0
tp129
a(I1
F0.988
tp130
aa(lp131
(NF0.0
tp132
a(I1
F0.849
tp133
aa(lp134
(NF0.0
tp135
a(I4
F0.808
tp136
aa(lp137
(NF0.0
tp138
a(I1
F0.673
tp139
aa(lp140
(NF0.0
tp141
a(I1
F0.894
tp142
aa(lp143
(NF0.0
tp144
a(I2
F0.839
tp145
aa(lp146
(NF0.0
tp147
a(I1
F0.815
tp148
aa(lp149
(NF0.0
tp150
a(I1
F0.736
tp151
aa(lp152
(NF0.0
tp153
a(I1
F0.919
tp154
aa(lp155
(NF0.0
tp156
a(I1
F0.792
tp157
aa(lp158
(NF0.0
tp159
a(I3
F0.668
tp160
aa(lp161
(NF0.0
tp162
a(I3
F1.049
tp163
aasS'run_time'
p164
F123.49611401557922
sS'total_iters'
p165
(lp166
I0
aI1
aI2
aI3
aI4
aI5
aI6
aI7
aI8
aI9
aI10
aI11
aI12
aI13
aI14
aI15
aI16
aI17
aI18
aI19
aI20
aI21
aI22
aI23
aI24
aI25
aI26
aI27
aI28
aI29
aI30
aI31
aI32
aI33
aI34
aI35
aI36
aI37
aI38
aI39
as.