(lp0
S'A little engaging'
p1
aS'A little tired'
p2
accopy_reg
_reconstructor
p3
(cfuture.types.newstr
newstr
p4
c__builtin__
unicode
p5
Vscenes - faces were at times hard to see from the image
p6
tp7
Rp8
ag3
(g4
g5
Vleft side- the task started with left first, so i was more used to paying attention to that side
p9
tp10
Rp11
ag3
(g4
g5
Vi said short phrases of distinguishing features to myself
p12
tp13
Rp14
a.