(dp0
S'cue_tuples'
p1
(lp2
(S'cue_L'
p3
S'L'
p4
I0
tp5
a(g3
g4
I0
tp6
a(g3
g4
I0
tp7
a(g3
g4
I0
tp8
a(g3
g4
I0
tp9
a(g3
g4
I0
tp10
a(g3
g4
I0
tp11
a(g3
g4
I0
tp12
a(g3
g4
I0
tp13
a(g3
g4
I0
tp14
asS'uncued'
p15
(lp16
S'00864940307fa_sunajawzbrlrwafowen.jpg'
p17
aS'00116931230fa_sunaakqepfoeqomfgxf.jpg'
p18
aS'00796941205fa_sunaguchqqnrtodtezq.jpg'
p19
aS'00874940307fa_sunajtrfunvzdfticna.jpg'
p20
aS'00973960627fa_sunbbgtoeuzierkkajt.jpg'
p21
aS'00829940307fa_sunahwgbqkqcrwprgvh.jpg'
p22
aS'00483940519fa_sunabyvpwkgsjtijdwj.jpg'
p23
aS'00943960627fa_sunarpsxqkduedrrzyi.jpg'
p24
aS'00761960627fa_sunafgdqbclkwfocdhg.jpg'
p25
aS'00154931230fa_sunaauueuhhvklldjik.jpg'
p26
asS'cued'
p27
(lp28
S'00194940128fb_sunaayehfdqcyxggsej.jpg'
p29
aS'00221940128fa_sunabcfpwlpolnutyju.jpg'
p30
aS'00129931230fb_sunaamsdyakblkfoydx.jpg'
p31
aS'00774941201fa_sunafvtpfczkzopbgue.jpg'
p32
aS'00101931230fb_sunaajqmsaavkmgbsth.jpg'
p33
aS'00903960620fa_sunanainkqdvktzoxyl.jpg'
p34
aS'00859940307fa_sunaiycurtqsfkvcaso.jpg'
p35
aS'00559940519fa_sunacjkmnpawfzbyvae.jpg'
p36
aS'00191940128fb_sunaawsdjisukbbginm.jpg'
p37
aS'00949960627fb_sunasnqkkyhilqkxiqm.jpg'
p38
asS'uncued_RT'
p39
(lp40
F0.5796849727630615
aF0.29348111152648926
aF0.42246007919311523
aF0.3503110408782959
aF0.39369893074035645
aF0.29103517532348633
aF0.4308309555053711
aF0.19920611381530762
aF0.4642360210418701
aF0.3899569511413574
asS'cued_RT'
p41
(lp42
s.