(dp0
S'images'
p1
(lp2
S'00901960530fa.jpg'
p3
aS'sunaczwgyukesaajxnx.jpg'
p4
aS'00133931230fa.jpg'
p5
aS'sunaanlwnpqndclffxt.jpg'
p6
aS'sunaapllqyqlykszopd.jpg'
p7
aS'00746941201fa.jpg'
p8
aS'00793941205fa.jpg'
p9
aS'sunaeuzwggvibufclwf.jpg'
p10
aS'sunacuatpqpqhyjhjqk.jpg'
p11
aS'00070940307fa.jpg'
p12
aS'00571940928fa.jpg'
p13
aS'00906960530fa.jpg'
p14
aS'sunaetydippjxikifsb.jpg'
p15
aS'00828940307fa.jpg'
p16
aS'00548940519fa.jpg'
p17
aS'00750941201fa.jpg'
p18
aS'sunammbnoambmhdxdwd.jpg'
p19
aS'sunahpblecxtmuzkmxb.jpg'
p20
aS'sunaqyylsngywqzwfmx.jpg'
p21
aS'sunagtjwilqjvxohypn.jpg'
p22
aS'sunabkngeblodihjvbk.jpg'
p23
aS'sunahctntqrunhdxhtb.jpg'
p24
aS'00197940128fa.jpg'
p25
aS'00818940307fa.jpg'
p26
aS'sunaaylzyqlqrsmfwif.jpg'
p27
aS'00630940928fa.jpg'
p28
aS'00090931230fa.jpg'
p29
aS'00810941205fa.jpg'
p30
aS'00481940519fa.jpg'
p31
aS'sunaapxkpvrhpjplsok.jpg'
p32
aS'sunafowswglhxcsufpo.jpg'
p33
aS'00140931230fb.jpg'
p34
aS'sunbgklxeqjhdbyfhhy.jpg'
p35
aS'sunaahedjlmtqekgyvj.jpg'
p36
aS'00960960627fa.jpg'
p37
aS'sunacerqowiaeoqkmsq.jpg'
p38
aS'00938960627fa.jpg'
p39
aS'sunantryfbloeaomfta.jpg'
p40
aS'sunahuynahneraqftyz.jpg'
p41
aS'00983960627fa.jpg'
p42
asS'ratings'
p43
(lp44
(lp45
(NF0.0
tp46
aa(lp47
(NF0.0
tp48
a(I3
F1.472
tp49
aa(lp50
(NF0.0
tp51
a(I2
F1.632
tp52
aa(lp53
(NF0.0
tp54
a(I4
F1.158
tp55
aa(lp56
(NF0.0
tp57
a(I4
F0.743
tp58
aa(lp59
(NF0.0
tp60
a(I2
F1.271
tp61
aa(lp62
(NF0.0
tp63
a(I1
F1.268
tp64
aa(lp65
(NF0.0
tp66
a(I4
F1.216
tp67
aa(lp68
(NF0.0
tp69
a(I4
F1.084
tp70
aa(lp71
(NF0.0
tp72
a(I2
F1.025
tp73
aa(lp74
(NF0.0
tp75
a(I1
F1.934
tp76
aa(lp77
(NF0.0
tp78
a(I2
F0.948
tp79
aa(lp80
(NF0.0
tp81
a(I3
F1.94
tp82
aa(lp83
(NF0.0
tp84
a(I2
F0.739
tp85
aa(lp86
(NF0.0
tp87
a(I2
F0.868
tp88
aa(lp89
(NF0.0
tp90
a(I1
F1.025
tp91
aa(lp92
(NF0.0
tp93
a(I3
F1.384
tp94
aa(lp95
(NF0.0
tp96
a(I1
F1.276
tp97
aa(lp98
(NF0.0
tp99
a(I1
F1.765
tp100
aa(lp101
(NF0.0
tp102
a(I3
F1.638
tp103
aa(lp104
(NF0.0
tp105
a(I4
F1.106
tp106
aa(lp107
(NF0.0
tp108
a(I1
F1.527
tp109
aa(lp110
(NF0.0
tp111
a(I2
F1.461
tp112
aa(lp113
(NF0.0
tp114
a(I3
F1.971
tp115
aa(lp116
(NF0.0
tp117
a(I4
F1.401
tp118
aa(lp119
(NF0.0
tp120
a(I1
F1.117
tp121
aa(lp122
(NF0.0
tp123
a(I1
F0.801
tp124
aa(lp125
(NF0.0
tp126
a(I1
F0.696
tp127
aa(lp128
(NF0.0
tp129
a(I1
F0.893
tp130
aa(lp131
(NF0.0
tp132
a(I3
F1.222
tp133
aa(lp134
(NF0.0
tp135
a(I3
F1.54
tp136
aa(lp137
(NF0.0
tp138
a(I1
F0.87
tp139
aa(lp140
(NF0.0
tp141
a(I2
F0.86
tp142
aa(lp143
(NF0.0
tp144
a(I4
F1.823
tp145
aa(lp146
(NF0.0
tp147
a(I1
F1.739
tp148
aa(lp149
(NF0.0
tp150
a(I4
F1.074
tp151
aa(lp152
(NF0.0
tp153
a(I1
F1.552
tp154
aa(lp155
(NF0.0
tp156
a(I4
F1.338
tp157
aa(lp158
(NF0.0
tp159
a(I2
F1.411
tp160
aa(lp161
(NF0.0
tp162
a(I1
F1.148
tp163
aasS'run_time'
p164
F125.29627585411072
sS'total_iters'
p165
(lp166
I0
aI1
aI2
aI3
aI4
aI5
aI6
aI7
aI8
aI9
aI10
aI11
aI12
aI13
aI14
aI15
aI16
aI17
aI18
aI19
aI20
aI21
aI22
aI23
aI24
aI25
aI26
aI27
aI28
aI29
aI30
aI31
aI32
aI33
aI34
aI35
aI36
aI37
aI38
aI39
as.