(dp0
S'images'
p1
(lp2
S'sunbaejotfklekvpxcz.jpg'
p3
aS'sunaajtnvzzpsjdzres.jpg'
p4
aS'00763941205fa.jpg'
p5
aS'00270940422fb.jpg'
p6
aS'sunaooaqzputrowwbsw.jpg'
p7
aS'00911960530fa.jpg'
p8
aS'00957960627fa.jpg'
p9
aS'00787941205fa.jpg'
p10
aS'00812941205fa.jpg'
p11
aS'00744941201fa.jpg'
p12
aS'sunahmhrncocyhsjpxk.jpg'
p13
aS'sunaffgsyyvoqdlkmnk.jpg'
p14
aS'sunbfyvfqiimvdaxlqn.jpg'
p15
aS'sunabtrnbvpppgczjim.jpg'
p16
aS'00787960620fa.jpg'
p17
aS'sunbgzjryivyczuvkvm.jpg'
p18
aS'sunagmwxxwymwojbvgi.jpg'
p19
aS'00952960627fa.jpg'
p20
aS'sunabclssnoeuigtawp.jpg'
p21
aS'00816941205fa.jpg'
p22
aS'sunadvithllcgmfxsrn.jpg'
p23
aS'sunadqmjrhfjyuzyvdd.jpg'
p24
aS'sunaanptmsknhirrzed.jpg'
p25
aS'sunaizeyhvjzknwjudw.jpg'
p26
aS'00305940422fa.jpg'
p27
aS'sunaahwnmtqsrhocysw.jpg'
p28
aS'01009960627fa.jpg'
p29
aS'sunacvzhvcksnwqcqbw.jpg'
p30
aS'00860940307fa.jpg'
p31
aS'sunahgtbwgsmtqeodwh.jpg'
p32
aS'sunaavchcbptaerhcfy.jpg'
p33
aS'00972960627fa.jpg'
p34
aS'sunabllobxadqcyttej.jpg'
p35
aS'sunbxzweleltykebgan.jpg'
p36
aS'sunarceibpcyacbmfga.jpg'
p37
aS'00792941205fa.jpg'
p38
aS'00719941201fa.jpg'
p39
aS'00801941205fa.jpg'
p40
aS'00742941201fa.jpg'
p41
aS'sunagvprlbprarvgdvj.jpg'
p42
asS'ratings'
p43
(lp44
(lp45
(NF0.0
tp46
a(I2
F1.981
tp47
aa(lp48
(NF0.0
tp49
a(I2
F1.578
tp50
aa(lp51
(NF0.0
tp52
a(I3
F1.696
tp53
aa(lp54
(NF0.0
tp55
a(I2
F1.926
tp56
aa(lp57
(NF0.0
tp58
a(I1
F1.067
tp59
aa(lp60
(NF0.0
tp61
a(I3
F1.328
tp62
aa(lp63
(NF0.0
tp64
a(I4
F1.279
tp65
aa(lp66
(NF0.0
tp67
a(I3
F1.339
tp68
aa(lp69
(NF0.0
tp70
a(I2
F1.247
tp71
aa(lp72
(NF0.0
tp73
a(I1
F1.016
tp74
aa(lp75
(NF0.0
tp76
a(I1
F0.844
tp77
aa(lp78
(NF0.0
tp79
a(I1
F1.259
tp80
aa(lp81
(NF0.0
tp82
a(I1
F1.087
tp83
aa(lp84
(NF0.0
tp85
a(I1
F0.694
tp86
aa(lp87
(NF0.0
tp88
a(I3
F1.222
tp89
aa(lp90
(NF0.0
tp91
a(I1
F0.892
tp92
aa(lp93
(NF0.0
tp94
a(I1
F0.627
tp95
aa(lp96
(NF0.0
tp97
a(I2
F1.332
tp98
aa(lp99
(NF0.0
tp100
a(I1
F0.714
tp101
aa(lp102
(NF0.0
tp103
a(I4
F0.967
tp104
aa(lp105
(NF0.0
tp106
a(I1
F1.227
tp107
aa(lp108
(NF0.0
tp109
a(I1
F1.14
tp110
aa(lp111
(NF0.0
tp112
a(I1
F0.898
tp113
aa(lp114
(NF0.0
tp115
a(I1
F1.107
tp116
aa(lp117
(NF0.0
tp118
a(I4
F1.432
tp119
aa(lp120
(NF0.0
tp121
a(I2
F1.388
tp122
aa(lp123
(NF0.0
tp124
a(I2
F1.78
tp125
aa(lp126
(NF0.0
tp127
a(I2
F0.785
tp128
aa(lp129
(NF0.0
tp130
a(I4
F1.399
tp131
aa(lp132
(NF0.0
tp133
a(I1
F0.941
tp134
aa(lp135
(NF0.0
tp136
a(I1
F0.952
tp137
aa(lp138
(NF0.0
tp139
a(I1
F1.916
tp140
aa(lp141
(NF0.0
tp142
a(I1
F0.582
tp143
aa(lp144
(NF0.0
tp145
a(I2
F1.723
tp146
aa(lp147
(NF0.0
tp148
a(I3
F1.48
tp149
aa(lp150
(NF0.0
tp151
a(I1
F1.517
tp152
aa(lp153
(NF0.0
tp154
aa(lp155
(NF0.0
tp156
a(I1
F1.594
tp157
aa(lp158
(NF0.0
tp159
a(I3
F1.349
tp160
aa(lp161
(NF0.0
tp162
a(I1
F0.956
tp163
aasS'run_time'
p164
F125.62937211990356
sS'total_iters'
p165
(lp166
I0
aI1
aI2
aI3
aI4
aI5
aI6
aI7
aI8
aI9
aI10
aI11
aI12
aI13
aI14
aI15
aI16
aI17
aI18
aI19
aI20
aI21
aI22
aI23
aI24
aI25
aI26
aI27
aI28
aI29
aI30
aI31
aI32
aI33
aI34
aI35
aI36
aI37
aI38
aI39
as.