(dp0
S'images'
p1
(lp2
S'sunaafgqutfaishsxyu.jpg'
p3
aS'00977960627fa.jpg'
p4
aS'00752960620fa.jpg'
p5
aS'sunaakxgygjfqrzpyoz.jpg'
p6
aS'sunacycdoztxoluxjyk.jpg'
p7
aS'00857940307fa.jpg'
p8
aS'sunaeomlfaabhpswasy.jpg'
p9
aS'00749941201fa.jpg'
p10
aS'sunabmbnddafmywtjjj.jpg'
p11
aS'00898960530fa.jpg'
p12
aS'sunaakmxzhuceuiryah.jpg'
p13
aS'sunadtlxenqqxsyjvix.jpg'
p14
aS'sunafbwnojpqeyzssoe.jpg'
p15
aS'sunaangbuylfvckqqoo.jpg'
p16
aS'00096931230fa.jpg'
p17
aS'00770941201fa.jpg'
p18
aS'sunaamvxnvouicstkjb.jpg'
p19
aS'00633940928fa.jpg'
p20
aS'sunakodkcslgqhqlgwl.jpg'
p21
aS'00271940422fa.jpg'
p22
aS'00115931230fa.jpg'
p23
aS'00568940928fa.jpg'
p24
aS'sunaflojskatpeqyzqp.jpg'
p25
aS'00922960627fa.jpg'
p26
aS'00077931230fb.jpg'
p27
aS'00292940422fb.jpg'
p28
aS'00768941205fa.jpg'
p29
aS'00581940928fa.jpg'
p30
aS'sunaiwfobocrruqznsv.jpg'
p31
aS'00120931230fa.jpg'
p32
aS'sunabrjdpmoedcdjbpo.jpg'
p33
aS'00071941031fa.jpg'
p34
aS'sunajxpkuhbizeveguy.jpg'
p35
aS'00776941205fa.jpg'
p36
aS'sunapqkyghktgtosuuk.jpg'
p37
aS'sunbbxkanhzjgbwyxqs.jpg'
p38
aS'00130931230fa.jpg'
p39
aS'sunacsdhbbsybcyxnel.jpg'
p40
aS'sunbxarcshsnqsefemx.jpg'
p41
aS'sunamkmeblgteyggink.jpg'
p42
asS'ratings'
p43
(lp44
(lp45
(NF0.0
tp46
a(I3
F1.98
tp47
aa(lp48
(NF0.0
tp49
a(I1
F1.199
tp50
aa(lp51
(NF0.0
tp52
a(I2
F1.127
tp53
aa(lp54
(NF0.0
tp55
a(I3
F1.075
tp56
aa(lp57
(NF0.0
tp58
a(I1
F1.351
tp59
aa(lp60
(NF0.0
tp61
a(I1
F1.632
tp62
aa(lp63
(NF0.0
tp64
a(I3
F1.455
tp65
aa(lp66
(NF0.0
tp67
a(I1
F0.793
tp68
aa(lp69
(NF0.0
tp70
a(I4
F0.848
tp71
aa(lp72
(NF0.0
tp73
a(I1
F1.366
tp74
aa(lp75
(NF0.0
tp76
a(I1
F1.045
tp77
aa(lp78
(NF0.0
tp79
a(I3
F1.315
tp80
aa(lp81
(NF0.0
tp82
a(I3
F1.56
tp83
aa(lp84
(NF0.0
tp85
a(I4
F0.905
tp86
aa(lp87
(NF0.0
tp88
a(I1
F0.598
tp89
aa(lp90
(NF0.0
tp91
a(I1
F0.55
tp92
aa(lp93
(NF0.0
tp94
a(I2
F1.222
tp95
aa(lp96
(NF0.0
tp97
a(I1
F1.116
tp98
aa(lp99
(NF0.0
tp100
a(I2
F1.23
tp101
aa(lp102
(NF0.0
tp103
a(I1
F0.595
tp104
aa(lp105
(NF0.0
tp106
a(I1
F1.464
tp107
aa(lp108
(NF0.0
tp109
a(I1
F0.955
tp110
aa(lp111
(NF0.0
tp112
a(I3
F1.599
tp113
aa(lp114
(NF0.0
tp115
aa(lp116
(NF0.0
tp117
a(I1
F0.845
tp118
aa(lp119
(NF0.0
tp120
a(I3
F1.679
tp121
aa(lp122
(NF0.0
tp123
a(I1
F1.265
tp124
aa(lp125
(NF0.0
tp126
a(I2
F1.488
tp127
aa(lp128
(NF0.0
tp129
a(I2
F1.622
tp130
aa(lp131
(NF0.0
tp132
a(I3
F1.664
tp133
aa(lp134
(NF0.0
tp135
a(I3
F1.487
tp136
aa(lp137
(NF0.0
tp138
a(I1
F1.241
tp139
aa(lp140
(NF0.0
tp141
a(I1
F1.096
tp142
aa(lp143
(NF0.0
tp144
a(I1
F0.839
tp145
aa(lp146
(NF0.0
tp147
a(I3
F1.135
tp148
aa(lp149
(NF0.0
tp150
a(I2
F1.279
tp151
aa(lp152
(NF0.0
tp153
a(I3
F1.531
tp154
aa(lp155
(NF0.0
tp156
a(I4
F1.608
tp157
aa(lp158
(NF0.0
tp159
a(I4
F0.827
tp160
aa(lp161
(NF0.0
tp162
a(I3
F1.499
tp163
aasS'run_time'
p164
F125.77915501594543
sS'total_iters'
p165
(lp166
I0
aI1
aI2
aI3
aI4
aI5
aI6
aI7
aI8
aI9
aI10
aI11
aI12
aI13
aI14
aI15
aI16
aI17
aI18
aI19
aI20
aI21
aI22
aI23
aI24
aI25
aI26
aI27
aI28
aI29
aI30
aI31
aI32
aI33
aI34
aI35
aI36
aI37
aI38
aI39
as.