(dp0
S'images'
p1
(lp2
S'sunabasphceswhwwqvv.jpg'
p3
aS'00635941031fa.jpg'
p4
aS'00631940928fa.jpg'
p5
aS'00900960530fa.jpg'
p6
aS'sunafgzgbisbopcyslr.jpg'
p7
aS'00882960530fa.jpg'
p8
aS'sunaakgekhjklxmvulj.jpg'
p9
aS'sunaeouogqolxvggaoq.jpg'
p10
aS'sunaknlirqjqiwbbeeg.jpg'
p11
aS'00650941031fa.jpg'
p12
aS'sunaalltyvjhbzhkmvg.jpg'
p13
aS'sunajwqkfsykceonyig.jpg'
p14
aS'sunabbafjowbzcvbucc.jpg'
p15
aS'sunaloffvbvysigxent.jpg'
p16
aS'sunagwswhkvnsmuszlz.jpg'
p17
aS'00111931230fb.jpg'
p18
aS'sunabeyhmxodahoieyk.jpg'
p19
aS'00789960620fa.jpg'
p20
aS'sunabjuovqvyfuzvqwt.jpg'
p21
aS'sunabgfhvifeijihhjw.jpg'
p22
aS'00794960620fa.jpg'
p23
aS'sunamlotskmmsjeogby.jpg'
p24
aS'00209940128fb.jpg'
p25
aS'00218940128fa.jpg'
p26
aS'00766960620fa.jpg'
p27
aS'00893960530Fa.jpg'
p28
aS'00211940128fa.jpg'
p29
aS'sunadbdqzigzwipuipr.jpg'
p30
aS'sunaddsaeicthrfbkhe.jpg'
p31
aS'00125931230fa.jpg'
p32
aS'sunagpancjmxqfazssf.jpg'
p33
aS'01010960627fa.jpg'
p34
aS'sunaavodbcpygkggnfp.jpg'
p35
aS'sunafijbgncijwykrnl.jpg'
p36
aS'sunagtqhhwxjeuxdebe.jpg'
p37
aS'suncnkvbhypnivcohyx.jpg'
p38
aS'sunabaergayifsgacxt.jpg'
p39
aS'sunadikxpvqeabxrvvc.jpg'
p40
aS'00260940128fa.jpg'
p41
aS'00700941121fa.jpg'
p42
asS'ratings'
p43
(lp44
(lp45
(NF0.0
tp46
a(I4
F1.364
tp47
aa(lp48
(NF0.0
tp49
a(I2
F1.208
tp50
aa(lp51
(NF0.0
tp52
a(I1
F0.825
tp53
aa(lp54
(NF0.0
tp55
a(I1
F0.938
tp56
aa(lp57
(NF0.0
tp58
aa(lp59
(NF0.0
tp60
a(I1
F1.116
tp61
aa(lp62
(NF0.0
tp63
a(I2
F1.382
tp64
aa(lp65
(NF0.0
tp66
a(I4
F0.919
tp67
aa(lp68
(NF0.0
tp69
a(I4
F1.665
tp70
aa(lp71
(NF0.0
tp72
a(I1
F1.771
tp73
aa(lp74
(NF0.0
tp75
a(I4
F0.922
tp76
aa(lp77
(NF0.0
tp78
a(I2
F1.098
tp79
aa(lp80
(NF0.0
tp81
a(I3
F1.307
tp82
aa(lp83
(NF0.0
tp84
a(I4
F1.248
tp85
aa(lp86
(NF0.0
tp87
aa(lp88
(NF0.0
tp89
a(I1
F1.018
tp90
aa(lp91
(NF0.0
tp92
a(I4
F1.192
tp93
aa(lp94
(NF0.0
tp95
a(I1
F0.828
tp96
aa(lp97
(NF0.0
tp98
a(I1
F1.135
tp99
aa(lp100
(NF0.0
tp101
a(I3
F1.423
tp102
aa(lp103
(NF0.0
tp104
a(I1
F0.765
tp105
aa(lp106
(NF0.0
tp107
a(I3
F1.299
tp108
aa(lp109
(NF0.0
tp110
a(I1
F1.378
tp111
aa(lp112
(NF0.0
tp113
a(I2
F1.564
tp114
aa(lp115
(NF0.0
tp116
aa(lp117
(NF0.0
tp118
a(I2
F0.677
tp119
aa(lp120
(NF0.0
tp121
a(I2
F1.107
tp122
aa(lp123
(NF0.0
tp124
a(I2
F1.278
tp125
aa(lp126
(NF0.0
tp127
a(I2
F1.647
tp128
aa(lp129
(NF0.0
tp130
a(I3
F1.45
tp131
aa(lp132
(NF0.0
tp133
a(I2
F1.413
tp134
aa(lp135
(NF0.0
tp136
a(I1
F1.951
tp137
aa(lp138
(NF0.0
tp139
a(I2
F1.143
tp140
aa(lp141
(NF0.0
tp142
a(I3
F1.196
tp143
aa(lp144
(NF0.0
tp145
a(I3
F1.188
tp146
aa(lp147
(NF0.0
tp148
a(I2
F1.186
tp149
aa(lp150
(NF0.0
tp151
a(I4
F1.857
tp152
aa(lp153
(NF0.0
tp154
a(I4
F1.194
tp155
aa(lp156
(NF0.0
tp157
a(I2
F1.308
tp158
aa(lp159
(NF0.0
tp160
a(I1
F1.695
tp161
aasS'run_time'
p162
F125.77937698364258
sS'total_iters'
p163
(lp164
I0
aI1
aI2
aI3
aI4
aI5
aI6
aI7
aI8
aI9
aI10
aI11
aI12
aI13
aI14
aI15
aI16
aI17
aI18
aI19
aI20
aI21
aI22
aI23
aI24
aI25
aI26
aI27
aI28
aI29
aI30
aI31
aI32
aI33
aI34
aI35
aI36
aI37
aI38
aI39
as.