(dp0
S'images'
p1
(lp2
S'sunbwdrdvsweerwsdrj.jpg'
p3
aS'sunaajpqmulidejvjsr.jpg'
p4
aS'00970960627fa.jpg'
p5
aS'00662941121fa.jpg'
p6
aS'00835940307fa.jpg'
p7
aS'00280940422fb.jpg'
p8
aS'00753941201fa.jpg'
p9
aS'00123931230fb.jpg'
p10
aS'sunafcofuuzebuadceo.jpg'
p11
aS'00239940128fa.jpg'
p12
aS'00505960627fa.jpg'
p13
aS'00979960627fa.jpg'
p14
aS'sunacxtcahkymosigud.jpg'
p15
aS'00728941205fa.jpg'
p16
aS'00557940519fa.jpg'
p17
aS'00131931230fb.jpg'
p18
aS'sunagountlxpzkytsmp.jpg'
p19
aS'00803941205fa.jpg'
p20
aS'sunabohxbskznglnrhv.jpg'
p21
aS'00785941205fa.jpg'
p22
aS'sunadrmfzmstgdjdcod.jpg'
p23
aS'00780960530fa.jpg'
p24
aS'00108960530fa.jpg'
p25
aS'00276940422fa.jpg'
p26
aS'00694941121fa.jpg'
p27
aS'sunadkazmlajmohnwfl.jpg'
p28
aS'sunagetqixeypsysbpn.jpg'
p29
aS'sunabctlikybqabezjv.jpg'
p30
aS'sunaibnpvhkdpdnzcnz.jpg'
p31
aS'sunabizydfotqddlnjp.jpg'
p32
aS'00936960627fa.jpg'
p33
aS'00119931230fb.jpg'
p34
aS'sunaglqunwuycxydmyu.jpg'
p35
aS'sunaakvmbftkrgqhjun.jpg'
p36
aS'sunaaxjpzcnxligjtjq.jpg'
p37
aS'00963960627fa.jpg'
p38
aS'00598941031fa.jpg'
p39
aS'00834940307fa.jpg'
p40
aS'sunaalcrrdbjgdztbiz.jpg'
p41
aS'sunachtuarilwyqnvjx.jpg'
p42
asS'ratings'
p43
(lp44
(lp45
(NF0.0
tp46
a(I1
F1.462
tp47
aa(lp48
(NF0.0
tp49
a(I2
F1.49
tp50
aa(lp51
(NF0.0
tp52
a(I3
F1.642
tp53
aa(lp54
(NF0.0
tp55
aa(lp56
(NF0.0
tp57
a(I4
F0.944
tp58
aa(lp59
(NF0.0
tp60
a(I2
F1.414
tp61
aa(lp62
(NF0.0
tp63
a(I2
F1.449
tp64
aa(lp65
(NF0.0
tp66
a(I4
F1.149
tp67
aa(lp68
(NF0.0
tp69
a(I2
F0.974
tp70
aa(lp71
(NF0.0
tp72
a(I4
F1.313
tp73
aa(lp74
(NF0.0
tp75
aa(lp76
(NF0.0
tp77
a(I1
F0.91
tp78
aa(lp79
(NF0.0
tp80
a(I1
F0.748
tp81
aa(lp82
(NF0.0
tp83
a(I2
F1.351
tp84
aa(lp85
(NF0.0
tp86
a(I2
F1.132
tp87
aa(lp88
(NF0.0
tp89
a(I3
F1.096
tp90
aa(lp91
(NF0.0
tp92
a(I1
F1.708
tp93
aa(lp94
(NF0.0
tp95
a(I4
F1.789
tp96
aa(lp97
(NF0.0
tp98
a(I2
F0.998
tp99
aa(lp100
(NF0.0
tp101
a(I1
F0.997
tp102
aa(lp103
(NF0.0
tp104
a(I1
F0.922
tp105
aa(lp106
(NF0.0
tp107
a(I3
F1.279
tp108
aa(lp109
(NF0.0
tp110
a(I1
F0.935
tp111
aa(lp112
(NF0.0
tp113
a(I1
F1.126
tp114
aa(lp115
(NF0.0
tp116
a(I4
F1.787
tp117
aa(lp118
(NF0.0
tp119
a(I2
F0.663
tp120
aa(lp121
(NF0.0
tp122
a(I1
F0.649
tp123
aa(lp124
(NF0.0
tp125
a(I1
F0.528
tp126
aa(lp127
(NF0.0
tp128
a(I1
F0.88
tp129
aa(lp130
(NF0.0
tp131
a(I1
F0.665
tp132
aa(lp133
(NF0.0
tp134
a(I4
F1.637
tp135
aa(lp136
(NF0.0
tp137
a(I1
F1.128
tp138
aa(lp139
(NF0.0
tp140
a(I1
F0.894
tp141
aa(lp142
(NF0.0
tp143
a(I1
F0.714
tp144
aa(lp145
(NF0.0
tp146
a(I1
F0.908
tp147
aa(lp148
(NF0.0
tp149
a(I3
F1.534
tp150
aa(lp151
(NF0.0
tp152
a(I2
F1.94
tp153
aa(lp154
(NF0.0
tp155
a(I3
F1.465
tp156
aa(lp157
(NF0.0
tp158
a(I1
F0.893
tp159
aa(lp160
(NF0.0
tp161
a(I1
F0.599
tp162
aasS'run_time'
p163
F126.29666590690613
sS'total_iters'
p164
(lp165
I0
aI1
aI2
aI3
aI4
aI5
aI6
aI7
aI8
aI9
aI10
aI11
aI12
aI13
aI14
aI15
aI16
aI17
aI18
aI19
aI20
aI21
aI22
aI23
aI24
aI25
aI26
aI27
aI28
aI29
aI30
aI31
aI32
aI33
aI34
aI35
aI36
aI37
aI38
aI39
as.