(dp0
S'images'
p1
(lp2
S'sunagdzlvkqtpnfxfcg.jpg'
p3
aS'01207940128fa.jpg'
p4
aS'00851940307fa.jpg'
p5
aS'00822940307fa.jpg'
p6
aS'00576941031fa.jpg'
p7
aS'00790941205fa.jpg'
p8
aS'00095931230fa.jpg'
p9
aS'sunabwfvcqqidycwypa.jpg'
p10
aS'sunagrmyoovzukhxmlo.jpg'
p11
aS'00999960627fa.jpg'
p12
aS'00942960627fa.jpg'
p13
aS'sunarfdklgdnjgeqfjg.jpg'
p14
aS'00097931230fa.jpg'
p15
aS'00308940422fb.jpg'
p16
aS'00144931230fb.jpg'
p17
aS'sunavspxmxubqaeidjt.jpg'
p18
aS'00889960530fa.jpg'
p19
aS'sunaauhozyxzeeqstxi.jpg'
p20
aS'sunajbwkywmsqkldfml.jpg'
p21
aS'00885960530fa.jpg'
p22
aS'00909960530.jpg'
p23
aS'sunaathajvxrgptwhoj.jpg'
p24
aS'sunavxokzybtomhbmvm.jpg'
p25
aS'sunahqrxievfeusiqlt.jpg'
p26
aS'00959960627fa.jpg'
p27
aS'sunaajayojuslbbnneg.jpg'
p28
aS'sunaipyohrqlwngaqif.jpg'
p29
aS'sunacvjlsylseoghjup.jpg'
p30
aS'sunaivflshbyfrfzhqb.jpg'
p31
aS'sunakwlvxjpddialozd.jpg'
p32
aS'sundbixjudsgeuuehrn.jpg'
p33
aS'sunaecpkgfewqqreqwe.jpg'
p34
aS'sunaaiqiqcggrskoqgy.jpg'
p35
aS'00741941201fa.jpg'
p36
aS'00532960627fa.jpg'
p37
aS'00153931230fa.jpg'
p38
aS'00760960620fa.jpg'
p39
aS'00092931230fa.jpg'
p40
aS'00985960627fa.jpg'
p41
aS'00791941205fa.jpg'
p42
asS'ratings'
p43
(lp44
(lp45
(NF0.0
tp46
a(I1
F0.94
tp47
aa(lp48
(NF0.0
tp49
a(I4
F1.305
tp50
aa(lp51
(NF0.0
tp52
a(I2
F1.476
tp53
aa(lp54
(NF0.0
tp55
a(I3
F1.952
tp56
aa(lp57
(NF0.0
tp58
a(I3
F1.881
tp59
aa(lp60
(NF0.0
tp61
a(I1
F1.232
tp62
aa(lp63
(NF0.0
tp64
a(I4
F1.436
tp65
aa(lp66
(NF0.0
tp67
a(I1
F0.875
tp68
aa(lp69
(NF0.0
tp70
a(I1
F0.925
tp71
aa(lp72
(NF0.0
tp73
a(I3
F1.603
tp74
aa(lp75
(NF0.0
tp76
a(I1
F1.291
tp77
aa(lp78
(NF0.0
tp79
a(I1
F0.566
tp80
aa(lp81
(NF0.0
tp82
a(I3
F1.414
tp83
aa(lp84
(NF0.0
tp85
a(I1
F1.431
tp86
aa(lp87
(NF0.0
tp88
a(I4
F1.467
tp89
aa(lp90
(NF0.0
tp91
a(I1
F0.668
tp92
aa(lp93
(NF0.0
tp94
a(I1
F1.705
tp95
aa(lp96
(NF0.0
tp97
a(I1
F0.949
tp98
aa(lp99
(NF0.0
tp100
a(I1
F0.726
tp101
aa(lp102
(NF0.0
tp103
a(I1
F1.123
tp104
aa(lp105
(NF0.0
tp106
a(I1
F0.916
tp107
aa(lp108
(NF0.0
tp109
a(I1
F0.657
tp110
aa(lp111
(NF0.0
tp112
a(I1
F0.489
tp113
aa(lp114
(NF0.0
tp115
a(I1
F1.25
tp116
aa(lp117
(NF0.0
tp118
a(I1
F1.089
tp119
aa(lp120
(NF0.0
tp121
a(I1
F0.695
tp122
aa(lp123
(NF0.0
tp124
a(I1
F0.63
tp125
aa(lp126
(NF0.0
tp127
a(I1
F0.679
tp128
aa(lp129
(NF0.0
tp130
a(I1
F0.638
tp131
aa(lp132
(NF0.0
tp133
a(I1
F0.478
tp134
aa(lp135
(NF0.0
tp136
a(I1
F0.563
tp137
aa(lp138
(NF0.0
tp139
a(I3
F1.557
tp140
aa(lp141
(NF0.0
tp142
a(I1
F0.807
tp143
aa(lp144
(NF0.0
tp145
a(I4
F1.547
tp146
aa(lp147
(NF0.0
tp148
a(I2
F1.21
tp149
aa(lp150
(NF0.0
tp151
a(I1
F1.39
tp152
aa(lp153
(NF0.0
tp154
a(I1
F1.535
tp155
aa(lp156
(NF0.0
tp157
a(I2
F1.477
tp158
aa(lp159
(NF0.0
tp160
a(I1
F1.81
tp161
aa(lp162
(NF0.0
tp163
a(I2
F1.344
tp164
aasS'run_time'
p165
F126.57974219322205
sS'total_iters'
p166
(lp167
I0
aI1
aI2
aI3
aI4
aI5
aI6
aI7
aI8
aI9
aI10
aI11
aI12
aI13
aI14
aI15
aI16
aI17
aI18
aI19
aI20
aI21
aI22
aI23
aI24
aI25
aI26
aI27
aI28
aI29
aI30
aI31
aI32
aI33
aI34
aI35
aI36
aI37
aI38
aI39
as.