(lp0
S'A little engaging'
p1
aS'A little tired'
p2
accopy_reg
_reconstructor
p3
(cfuture.types.newstr
newstr
p4
c__builtin__
unicode
p5
VLandscapes, because their were more distinct clear lines and contrasting shades in the images, whereas all the faces had similar structures 
p6
tp7
Rp8
ag3
(g4
g5
VNo
p9
tp10
Rp11
ag3
(g4
g5
VI tried to pay attention to contrasting shades and would classify the scene in my head, this was harder for the faces
p12
tp13
Rp14
a.