(dp0
S'images'
p1
(lp2
S'sunahmhrncocyhsjpxk.jpg'
p3
aS'sunbprywzqxjcezkbch.jpg'
p4
aS'00271940422fa.jpg'
p5
aS'sunaayehfdqcyxggsej.jpg'
p6
aS'00532960627fa.jpg'
p7
aS'sunahqldjibofgsfdgb.jpg'
p8
aS'sunbtpilbhhbmhmeuzq.jpg'
p9
aS'sunaazezcsunmhttzxz.jpg'
p10
aS'sunadoxcchtmsxewsau.jpg'
p11
aS'sunaivflshbyfrfzhqb.jpg'
p12
aS'sunaatjesvdupctftmn.jpg'
p13
aS'00745941205fa.jpg'
p14
aS'sunaeouogqolxvggaoq.jpg'
p15
aS'sunahiphsekjihkafsl.jpg'
p16
aS'sunafvsxtzaizojicxx.jpg'
p17
aS'00778941205fa.jpg'
p18
aS'sunadbhmrgrrpyzglxs.jpg'
p19
aS'sunbwyuesflwdpqtgoy.jpg'
p20
aS'sunacerqowiaeoqkmsq.jpg'
p21
aS'00997960627fa.jpg'
p22
aS'sunahawfngukizslzsd.jpg'
p23
aS'00194940128fb.jpg'
p24
aS'00815941205fa.jpg'
p25
aS'00675941121fa.jpg'
p26
aS'sunaccdtpgenvcbcbcf.jpg'
p27
aS'00796941205fa.jpg'
p28
aS'sunauburywlkjszngcq.jpg'
p29
aS'sunabmbnddafmywtjjj.jpg'
p30
aS'00819940307fa.jpg'
p31
aS'00125931230fa.jpg'
p32
aS'00198940128fb.jpg'
p33
aS'00633940928fa.jpg'
p34
aS'sunaiwfobocrruqznsv.jpg'
p35
aS'sunaampvucecsfbdafn.jpg'
p36
aS'00145931230fb.jpg'
p37
aS'01005960627fa.jpg'
p38
aS'00807941205fa.jpg'
p39
aS'sunaezuszgtxnmsxdbk.jpg'
p40
aS'00955960627fb.jpg'
p41
aS'00163931230fb.jpg'
p42
asS'ratings'
p43
(lp44
(lp45
(NF0.0
tp46
a(I1
F1.566
tp47
aa(lp48
(NF0.0
tp49
a(I3
F1.262
tp50
aa(lp51
(NF0.0
tp52
a(I1
F1.879
tp53
aa(lp54
(NF0.0
tp55
a(I2
F1.883
tp56
aa(lp57
(NF0.0
tp58
a(I1
F0.914
tp59
aa(lp60
(NF0.0
tp61
a(I4
F1.38
tp62
aa(lp63
(NF0.0
tp64
a(I1
F1.245
tp65
aa(lp66
(NF0.0
tp67
a(I1
F1.08
tp68
aa(lp69
(NF0.0
tp70
a(I4
F0.812
tp71
aa(lp72
(NF0.0
tp73
a(I4
F0.796
tp74
aa(lp75
(NF0.0
tp76
a(I4
F0.628
tp77
aa(lp78
(NF0.0
tp79
a(I1
F1.114
tp80
aa(lp81
(NF0.0
tp82
a(I4
F0.652
tp83
aa(lp84
(NF0.0
tp85
a(I4
F1.38
tp86
aa(lp87
(NF0.0
tp88
aa(lp89
(NF0.0
tp90
a(I2
F0.847
tp91
aa(lp92
(NF0.0
tp93
a(I3
F1.178
tp94
aa(lp95
(NF0.0
tp96
a(I1
F1.248
tp97
aa(lp98
(NF0.0
tp99
a(I1
F0.763
tp100
aa(lp101
(NF0.0
tp102
a(I1
F0.615
tp103
aa(lp104
(NF0.0
tp105
a(I1
F0.963
tp106
aa(lp107
(NF0.0
tp108
a(I1
F0.879
tp109
aa(lp110
(NF0.0
tp111
a(I1
F0.58
tp112
aa(lp113
(NF0.0
tp114
a(I1
F0.613
tp115
aa(lp116
(NF0.0
tp117
a(I1
F0.898
tp118
aa(lp119
(NF0.0
tp120
a(I1
F0.514
tp121
aa(lp122
(NF0.0
tp123
a(I1
F0.862
tp124
aa(lp125
(NF0.0
tp126
a(I2
F1.328
tp127
aa(lp128
(NF0.0
tp129
a(I1
F0.697
tp130
aa(lp131
(NF0.0
tp132
a(I1
F1.079
tp133
aa(lp134
(NF0.0
tp135
a(I1
F0.597
tp136
aa(lp137
(NF0.0
tp138
a(I1
F0.651
tp139
aa(lp140
(NF0.0
tp141
a(I1
F0.995
tp142
aa(lp143
(NF0.0
tp144
a(I1
F0.681
tp145
aa(lp146
(NF0.0
tp147
a(I1
F0.746
tp148
aa(lp149
(NF0.0
tp150
a(I1
F0.529
tp151
aa(lp152
(NF0.0
tp153
a(I1
F0.496
tp154
aa(lp155
(NF0.0
tp156
a(I1
F0.713
tp157
aa(lp158
(NF0.0
tp159
a(I1
F0.448
tp160
aa(lp161
(NF0.0
tp162
a(I1
F0.48
tp163
aasS'run_time'
p164
F122.26015090942383
sS'total_iters'
p165
(lp166
I0
aI1
aI2
aI3
aI4
aI5
aI6
aI7
aI8
aI9
aI10
aI11
aI12
aI13
aI14
aI15
aI16
aI17
aI18
aI19
aI20
aI21
aI22
aI23
aI24
aI25
aI26
aI27
aI28
aI29
aI30
aI31
aI32
aI33
aI34
aI35
aI36
aI37
aI38
aI39
as.