(dp0
S'images'
p1
(lp2
S'sunabxsbfwjccqxxzxq.jpg'
p3
aS'00794960620fa.jpg'
p4
aS'sunavhxgmgrqsaptynb.jpg'
p5
aS'sunafgdqbclkwfocdhg.jpg'
p6
aS'sunaangbuylfvckqqoo.jpg'
p7
aS'00839940307fa.jpg'
p8
aS'00479940519fa.jpg'
p9
aS'00914960620fa.jpg'
p10
aS'sunagrmyoovzukhxmlo.jpg'
p11
aS'sunammbnoambmhdxdwd.jpg'
p12
aS'sunaanlwnpqndclffxt.jpg'
p13
aS'sunbaejotfklekvpxcz.jpg'
p14
aS'sunacsdhbbsybcyxnel.jpg'
p15
aS'00568940928fa.jpg'
p16
aS'sunatstrpjxhvtbaczf.jpg'
p17
aS'sunahrltmuwbiehihpe.jpg'
p18
aS'sunaooffzffbhcpirmm.jpg'
p19
aS'00952960627fa.jpg'
p20
aS'00966960627fa.jpg'
p21
aS'sunaozisvwfbmlkfhzv.jpg'
p22
aS'sunbgzjryivyczuvkvm.jpg'
p23
aS'00280940422fb.jpg'
p24
aS'00126931230fb.jpg'
p25
aS'00913960530fa.jpg'
p26
aS'sunagwzdbtlixdhgolm.jpg'
p27
aS'00779941205fa.jpg'
p28
aS'00800941205fb.jpg'
p29
aS'00294940422fb.jpg'
p30
aS'00901960530fa.jpg'
p31
aS'00266940128fb.jpg'
p32
aS'00874940307fa.jpg'
p33
aS'00142931230fb.jpg'
p34
aS'sunajwqkfsykceonyig.jpg'
p35
aS'00967960627fa.jpg'
p36
aS'sunaygrtwrwfezqjizr.jpg'
p37
aS'00825940307fa.jpg'
p38
aS'sunagdzlvkqtpnfxfcg.jpg'
p39
aS'00986960627fa.jpg'
p40
aS'00953960627fa.jpg'
p41
aS'sunabkngeblodihjvbk.jpg'
p42
asS'ratings'
p43
(lp44
(lp45
(NF0.0
tp46
a(I1
F1.818
tp47
aa(lp48
(NF0.0
tp49
a(I1
F0.68
tp50
aa(lp51
(NF0.0
tp52
a(I2
F1.414
tp53
aa(lp54
(NF0.0
tp55
a(I4
F1.179
tp56
aa(lp57
(NF0.0
tp58
a(I1
F1.796
tp59
aa(lp60
(NF0.0
tp61
a(I1
F0.711
tp62
aa(lp63
(NF0.0
tp64
a(I1
F0.446
tp65
aa(lp66
(NF0.0
tp67
a(I1
F0.397
tp68
aa(lp69
(NF0.0
tp70
a(I2
F1.448
tp71
aa(lp72
(NF0.0
tp73
a(I2
F1.444
tp74
aa(lp75
(NF0.0
tp76
a(I2
F0.98
tp77
aa(lp78
(NF0.0
tp79
a(I3
F1.446
tp80
aa(lp81
(NF0.0
tp82
a(I4
F0.897
tp83
aa(lp84
(NF0.0
tp85
a(I1
F0.745
tp86
aa(lp87
(NF0.0
tp88
a(I2
F1.696
tp89
aa(lp90
(NF0.0
tp91
a(I2
F0.932
tp92
aa(lp93
(NF0.0
tp94
a(I2
F1.046
tp95
aa(lp96
(NF0.0
tp97
a(I1
F0.869
tp98
aa(lp99
(NF0.0
tp100
a(I1
F0.513
tp101
aa(lp102
(NF0.0
tp103
a(I2
F1.947
tp104
aa(lp105
(NF0.0
tp106
a(I2
F0.811
tp107
aa(lp108
(NF0.0
tp109
a(I1
F0.768
tp110
aa(lp111
(NF0.0
tp112
a(I1
F0.63
tp113
aa(lp114
(NF0.0
tp115
a(I1
F0.488
tp116
aa(lp117
(NF0.0
tp118
a(I1
F0.746
tp119
aa(lp120
(NF0.0
tp121
a(I1
F0.479
tp122
aa(lp123
(NF0.0
tp124
a(I1
F0.346
tp125
aa(lp126
(NF0.0
tp127
a(I1
F0.363
tp128
aa(lp129
(NF0.0
tp130
a(I1
F0.392
tp131
aa(lp132
(NF0.0
tp133
a(I1
F0.463
tp134
aa(lp135
(NF0.0
tp136
a(I1
F0.446
tp137
aa(lp138
(NF0.0
tp139
a(I1
F0.412
tp140
aa(lp141
(NF0.0
tp142
a(I4
F1.179
tp143
aa(lp144
(NF0.0
tp145
a(I1
F0.662
tp146
aa(lp147
(NF0.0
tp148
a(I2
F1.146
tp149
aa(lp150
(NF0.0
tp151
a(I1
F0.662
tp152
aa(lp153
(NF0.0
tp154
a(I2
F1.228
tp155
aa(lp156
(NF0.0
tp157
a(I1
F0.513
tp158
aa(lp159
(NF0.0
tp160
a(I1
F0.43
tp161
aa(lp162
(NF0.0
tp163
a(I2
F1.462
tp164
aasS'run_time'
p165
F122.27739787101746
sS'total_iters'
p166
(lp167
I0
aI1
aI2
aI3
aI4
aI5
aI6
aI7
aI8
aI9
aI10
aI11
aI12
aI13
aI14
aI15
aI16
aI17
aI18
aI19
aI20
aI21
aI22
aI23
aI24
aI25
aI26
aI27
aI28
aI29
aI30
aI31
aI32
aI33
aI34
aI35
aI36
aI37
aI38
aI39
as.