(dp0
S'cue_tuples'
p1
(lp2
(S'cue_L'
p3
S'L'
p4
I0
tp5
a(g3
g4
I0
tp6
a(g3
g4
I0
tp7
a(g3
g4
I0
tp8
a(g3
g4
I0
tp9
a(g3
g4
I0
tp10
a(g3
g4
I1
tp11
a(g3
g4
I0
tp12
a(g3
g4
I0
tp13
a(g3
g4
I0
tp14
asS'uncued'
p15
(lp16
S'00825940307fa_sunahrltmuwbiehihpe.jpg'
p17
aS'00953960627fa_sunatstrpjxhvtbaczf.jpg'
p18
aS'00901960530fa_sunammbnoambmhdxdwd.jpg'
p19
aS'00479940519fa_sunabxsbfwjccqxxzxq.jpg'
p20
aS'00967960627fa_sunbaejotfklekvpxcz.jpg'
p21
aS'00126931230fb_sunaamdjwemxpmmtypi.jpg'
p22
aS'00914960620fa_sunaozisvwfbmlkfhzv.jpg'
p23
aS'00986960627fa_sunbgzjryivyczuvkvm.jpg'
p24
aS'00957960627fa_sunavhxgmgrqsaptynb.jpg'
p25
aS'00913960530fa_sunaooffzffbhcpirmm.jpg'
p26
asS'cued'
p27
(lp28
S'00280940422fb_sunabohxbskznglnrhv.jpg'
p29
aS'00761960627fa_sunafgdqbclkwfocdhg.jpg'
p30
aS'00133931230fa_sunaanlwnpqndclffxt.jpg'
p31
aS'00115931230fa_sunaakmxzhuceuiryah.jpg'
p32
aS'00779941205fa_sunagdzlvkqtpnfxfcg.jpg'
p33
aS'00142931230fb_sunaapxkpvrhpjplsok.jpg'
p34
aS'00568940928fa_sunacsdhbbsybcyxnel.jpg'
p35
aS'00966960627fa_sunaygrtwrwfezqjizr.jpg'
p36
aS'00876960620fa_sunajwqkfsykceonyig.jpg'
p37
aS'00266940128fb_sunabkngeblodihjvbk.jpg'
p38
asS'uncued_RT'
p39
(lp40
F0.6672439575195312
aF0.4299769401550293
aF0.4089479446411133
aF0.39088010787963867
aF0.37772607803344727
aF0.3667778968811035
aF0.6550600528717041
aF0.46596217155456543
aF0.4000270366668701
aF0.42951297760009766
asS'cued_RT'
p41
(lp42
s.