(dp0
S'cue_tuples'
p1
(lp2
(S'cue_L'
p3
S'F'
p4
I0
tp5
a(g3
g4
I1
tp6
a(g3
g4
I0
tp7
a(g3
g4
I0
tp8
a(g3
g4
I0
tp9
a(g3
g4
I0
tp10
a(g3
g4
I0
tp11
a(g3
g4
I0
tp12
a(g3
g4
I0
tp13
a(g3
g4
I0
tp14
asS'uncued'
p15
(lp16
S'00564940928fa_sunacmpqqfbsvlzinzl.jpg'
p17
aS'00262940128fa_sunabizydfotqddlnjp.jpg'
p18
aS'00197940128fa_sunaaylzyqlqrsmfwif.jpg'
p19
aS'00895960530fa_sunamczizlzavhzhpay.jpg'
p20
aS'00768941205fa_sunafkmnlytenlsywia.jpg'
p21
aS'00785941205fa_sunaglqunwuycxydmyu.jpg'
p22
aS'00903960620fa_sunanainkqdvktzoxyl.jpg'
p23
aS'00828940307fa_sunahuynahneraqftyz.jpg'
p24
aS'00908960530fa_sunanwjjyqqwzqrqagd.jpg'
p25
aS'00887960530_sunalcrtwiycqobgelp.jpg'
p26
asS'cued'
p27
(lp28
S'00119931230fb_sunaakvmbftkrgqhjun.jpg'
p29
aS'00900960530fa_sunamlotskmmsjeogby.jpg'
p30
aS'00109931230fa_sunaajuzribjrizdshh.jpg'
p31
aS'00112931230fa_sunaakjaacuzulqckgl.jpg'
p32
aS'00571940928fa_sunacuatpqpqhyjhjqk.jpg'
p33
aS'00973960627fa_sunbbgtoeuzierkkajt.jpg'
p34
aS'00589940928fa_sunacwggadqsfpovdjv.jpg'
p35
aS'00097931230fa_sunaajayojuslbbnneg.jpg'
p36
aS'00882960530fa_sunaknlirqjqiwbbeeg.jpg'
p37
aS'00797960620fa_sunagufzbeteqdjxais.jpg'
p38
asS'uncued_RT'
p39
(lp40
F0.5341789722442627
aF0.6089048385620117
aF0.42081713676452637
aF0.40511512756347656
aF0.4619159698486328
aF0.38098621368408203
aF0.4269440174102783
aF0.33301305770874023
aF0.45896291732788086
aF0.4247760772705078
asS'cued_RT'
p41
(lp42
s.