(dp0
S'images'
p1
(lp2
S'sunbbgtoeuzierkkajt.jpg'
p3
aS'00882960530fa.jpg'
p4
aS'sunaajayojuslbbnneg.jpg'
p5
aS'sunacuatpqpqhyjhjqk.jpg'
p6
aS'00589940928fa.jpg'
p7
aS'00858940307fa.jpg'
p8
aS'sunafvwfsmqkjrutjta.jpg'
p9
aS'sunanainkqdvktzoxyl.jpg'
p10
aS'00728941205fa.jpg'
p11
aS'sunacmpqqfbsvlzinzl.jpg'
p12
aS'sunabrlndkruqokhury.jpg'
p13
aS'sunamczizlzavhzhpay.jpg'
p14
aS'00093931230fa.jpg'
p15
aS'sunaaylzyqlqrsmfwif.jpg'
p16
aS'00895960530fa.jpg'
p17
aS'00816941205fa.jpg'
p18
aS'00908960530fa.jpg'
p19
aS'sunafkmnlytenlsywia.jpg'
p20
aS'sunaakjaacuzulqckgl.jpg'
p21
aS'00197940128fa.jpg'
p22
aS'sunanwjjyqqwzqrqagd.jpg'
p23
aS'00797960620fa.jpg'
p24
aS'sunaajuzribjrizdshh.jpg'
p25
aS'00828940307fa.jpg'
p26
aS'00564940928fa.jpg'
p27
aS'sunacwggadqsfpovdjv.jpg'
p28
aS'00749941201fa.jpg'
p29
aS'sunabizydfotqddlnjp.jpg'
p30
aS'sunalcrtwiycqobgelp.jpg'
p31
aS'00801941205fa.jpg'
p32
aS'00973960627fa.jpg'
p33
aS'sunadbdqzigzwipuipr.jpg'
p34
aS'sunaknlirqjqiwbbeeg.jpg'
p35
aS'00097931230fa.jpg'
p36
aS'sunamlotskmmsjeogby.jpg'
p37
aS'sunagpjzsbltchlwvou.jpg'
p38
aS'00791941205fa.jpg'
p39
aS'00785941205fa.jpg'
p40
aS'00262940128fa.jpg'
p41
aS'00112931230fa.jpg'
p42
asS'ratings'
p43
(lp44
(lp45
(NF0.0
tp46
a(I1
F1.448
tp47
aa(lp48
(NF0.0
tp49
a(I2
F1.196
tp50
aa(lp51
(NF0.0
tp52
a(I1
F0.614
tp53
aa(lp54
(NF0.0
tp55
a(I1
F0.495
tp56
aa(lp57
(NF0.0
tp58
a(I4
F1.213
tp59
aa(lp60
(NF0.0
tp61
a(I4
F1.613
tp62
aa(lp63
(NF0.0
tp64
a(I1
F0.529
tp65
aa(lp66
(NF0.0
tp67
a(I1
F0.445
tp68
aa(lp69
(NF0.0
tp70
a(I1
F0.998
tp71
aa(lp72
(NF0.0
tp73
a(I1
F0.446
tp74
aa(lp75
(NF0.0
tp76
a(I1
F0.413
tp77
aa(lp78
(NF0.0
tp79
a(I1
F0.38
tp80
aa(lp81
(NF0.0
tp82
aa(lp83
(NF0.0
tp84
a(I1
F0.647
tp85
aa(lp86
(NF0.0
tp87
a(I1
F0.919
tp88
aa(lp89
(NF0.0
tp90
a(I2
F0.905
tp91
aa(lp92
(NF0.0
tp93
a(I4
F1.012
tp94
aa(lp95
(NF0.0
tp96
a(I1
F0.43
tp97
aa(lp98
(NF0.0
tp99
a(I1
F0.586
tp100
aa(lp101
(NF0.0
tp102
a(I3
F0.913
tp103
aa(lp104
(NF0.0
tp105
a(I1
F0.429
tp106
aa(lp107
(NF0.0
tp108
a(I2
F0.876
tp109
aa(lp110
(NF0.0
tp111
a(I1
F0.512
tp112
aa(lp113
(NF0.0
tp114
a(I1
F1.031
tp115
aa(lp116
(NF0.0
tp117
a(I1
F1.113
tp118
aa(lp119
(NF0.0
tp120
a(I1
F0.462
tp121
aa(lp122
(NF0.0
tp123
a(I1
F1.23
tp124
aa(lp125
(NF0.0
tp126
a(I1
F0.445
tp127
aa(lp128
(NF0.0
tp129
a(I1
F0.463
tp130
aa(lp131
(NF0.0
tp132
a(I1
F0.898
tp133
aa(lp134
(NF0.0
tp135
a(I3
F1.079
tp136
aa(lp137
(NF0.0
tp138
a(I1
F0.413
tp139
aa(lp140
(NF0.0
tp141
a(I1
F0.544
tp142
aa(lp143
(NF0.0
tp144
a(I4
F1.228
tp145
aa(lp146
(NF0.0
tp147
a(I1
F0.813
tp148
aa(lp149
(NF0.0
tp150
a(I1
F0.68
tp151
aa(lp152
(NF0.0
tp153
a(I1
F0.783
tp154
aa(lp155
(NF0.0
tp156
a(I1
F0.818
tp157
aa(lp158
(NF0.0
tp159
a(I1
F1.297
tp160
aa(lp161
(NF0.0
tp162
a(I1
F1.091
tp163
aasS'run_time'
p164
F122.27595281600952
sS'total_iters'
p165
(lp166
I0
aI1
aI2
aI3
aI4
aI5
aI6
aI7
aI8
aI9
aI10
aI11
aI12
aI13
aI14
aI15
aI16
aI17
aI18
aI19
aI20
aI21
aI22
aI23
aI24
aI25
aI26
aI27
aI28
aI29
aI30
aI31
aI32
aI33
aI34
aI35
aI36
aI37
aI38
aI39
as.