(dp0
S'cue_tuples'
p1
(lp2
(S'cue_L'
p3
S'F'
p4
I0
tp5
a(g3
g4
I0
tp6
a(g3
g4
I0
tp7
a(g3
g4
I0
tp8
a(g3
g4
I0
tp9
a(g3
g4
I0
tp10
a(g3
g4
I0
tp11
a(g3
g4
I0
tp12
a(g3
g4
I1
tp13
a(g3
g4
I0
tp14
asS'uncued'
p15
(lp16
S'00089931230fa_sunaagcpoejbuzyvddd.jpg'
p17
aS'00770941201fa_sunaflojskatpeqyzqp.jpg'
p18
aS'00789960620fa_sunagpancjmxqfazssf.jpg'
p19
aS'00098931230fa_sunaajpqmulidejvjsr.jpg'
p20
aS'00938960627fa_sunaqyylsngywqzwfmx.jpg'
p21
aS'00581940928fa_sunacvzhvcksnwqcqbw.jpg'
p22
aS'00977960627fa_sunbbxkanhzjgbwyxqs.jpg'
p23
aS'01004960627fa_sunbwtlihsuptkrckid.jpg'
p24
aS'00965960627fa_sunaydywdmvlfddbxbk.jpg'
p25
aS'00090931230fa_sunaahedjlmtqekgyvj.jpg'
p26
asS'cued'
p27
(lp28
S'00101931230fb_sunaajqmsaavkmgbsth.jpg'
p29
aS'00136931230fb_sunaanptmsknhirrzed.jpg'
p30
aS'00082931230fa_sunaafvitpexrpvumsa.jpg'
p31
aS'00302940422fa_sunabtlfmiwtljmoues.jpg'
p32
aS'00676941121fa_sunadpnqovzckyikrjo.jpg'
p33
aS'00529940519fa_sunacbeefkxpymwevpk.jpg'
p34
aS'00909960530_sunaobtizabegtwfwul.jpg'
p35
aS'00847940307fa_sunaivdjruhkrfywfed.jpg'
p36
aS'00149931230fa_sunaauglwmctnkxyird.jpg'
p37
aS'00720960620fa_sunaecpkgfewqqreqwe.jpg'
p38
asS'uncued_RT'
p39
(lp40
F0.6280360221862793
aF0.4545559883117676
aF0.31500792503356934
aF0.42531585693359375
aF0.3173401355743408
aF0.3863217830657959
aF0.3719608783721924
aF0.403958797454834
aF0.5970299243927002
aF0.4852108955383301
asS'cued_RT'
p41
(lp42
s.