(dp0
S'cue_tuples'
p1
(lp2
(S'cue_R'
p3
S'L'
p4
I1
tp5
a(g3
g4
I0
tp6
a(g3
g4
I1
tp7
a(g3
g4
I0
tp8
a(g3
g4
I0
tp9
a(g3
g4
I0
tp10
a(g3
g4
I0
tp11
a(g3
g4
I0
tp12
a(g3
g4
I0
tp13
a(g3
g4
I0
tp14
asS'uncued'
p15
(lp16
S'00681941121fa_sunadqmjrhfjyuzyvdd.jpg'
p17
aS'00860940307fa_sunaizeyhvjzknwjudw.jpg'
p18
aS'00943960627fa_sunarpsxqkduedrrzyi.jpg'
p19
aS'00988960627fa_sunbmaiocftdtvnzgap.jpg'
p20
aS'01000960627fa_sunbvzmgrdvaakxusbu.jpg'
p21
aS'00776941205fa_sunafxokyavhgptyfye.jpg'
p22
aS'00062931230fb_sunaaelotvjgibjtjhs.jpg'
p23
aS'00763941205fa_sunafhmnhsdurlvddpw.jpg'
p24
aS'00208940128fa_sunaazzyhbvqjpmazjq.jpg'
p25
aS'00889960530fa_sunaletopenvvozhpxc.jpg'
p26
asS'cued'
p27
(lp28
S'00971960627fa_sunbbegcweqnetpdlrh.jpg'
p29
aS'00086931230fa_sunaafynehyrzpsoaml.jpg'
p30
aS'00939960627fa_sunarceibpcyacbmfga.jpg'
p31
aS'00915960620fa_sunapileznnbbmrwoei.jpg'
p32
aS'00498960627fa_sunabzjxlmkwnwzimua.jpg'
p33
aS'01007960627fa_sunbxarcshsnqsefemx.jpg'
p34
aS'00871940307_sunajrujcsdxmfbssmc.jpg'
p35
aS'00144931230fb_sunaathajvxrgptwhoj.jpg'
p36
aS'00752960620fa_sunafbwnojpqeyzssoe.jpg'
p37
aS'00609940928fa_sunacycdoztxoluxjyk.jpg'
p38
asS'uncued_RT'
p39
(lp40
F0.544867992401123
aF0.47300004959106445
asS'cued_RT'
p41
(lp42
F0.5625870227813721
aF0.37703895568847656
aF0.4276580810546875
aF0.39748716354370117
aF0.41109609603881836
aF0.38320493698120117
aF0.4174158573150635
aF0.7314941883087158
as.