(dp0
S'images'
p1
(lp2
S'sunaavchcbptaerhcfy.jpg'
p3
aS'00939960627fa.jpg'
p4
aS'00609940928fa.jpg'
p5
aS'00775941205fa.jpg'
p6
aS'sunbmaiocftdtvnzgap.jpg'
p7
aS'sunaahwnmtqsrhocysw.jpg'
p8
aS'sunajrujcsdxmfbssmc.jpg'
p9
aS'00949960627fb.jpg'
p10
aS'01007960627fa.jpg'
p11
aS'00889960530fa.jpg'
p12
aS'sunaafynehyrzpsoaml.jpg'
p13
aS'sunafbwnojpqeyzssoe.jpg'
p14
aS'sunbbegcweqnetpdlrh.jpg'
p15
aS'00988960627fa.jpg'
p16
aS'sunaaeplwsfslcbtojr.jpg'
p17
aS'sunabzjxlmkwnwzimua.jpg'
p18
aS'00860940307fa.jpg'
p19
aS'sunadqmjrhfjyuzyvdd.jpg'
p20
aS'sunacycdoztxoluxjyk.jpg'
p21
aS'sunaathajvxrgptwhoj.jpg'
p22
aS'sunarpsxqkduedrrzyi.jpg'
p23
aS'sunarceibpcyacbmfga.jpg'
p24
aS'00120931230fa.jpg'
p25
aS'sunapileznnbbmrwoei.jpg'
p26
aS'00144931230fb.jpg'
p27
aS'00752960620fa.jpg'
p28
aS'sunacdnquypmsshhsbk.jpg'
p29
aS'00776941205fa.jpg'
p30
aS'sunafhmnhsdurlvddpw.jpg'
p31
aS'sunaletopenvvozhpxc.jpg'
p32
aS'00915960620fa.jpg'
p33
aS'00086931230fa.jpg'
p34
aS'sunbvzmgrdvaakxusbu.jpg'
p35
aS'sunaaelotvjgibjtjhs.jpg'
p36
aS'sunaaftlyfudyzuhqzf.jpg'
p37
aS'sunaizeyhvjzknwjudw.jpg'
p38
aS'sunagtqhhwxjeuxdebe.jpg'
p39
aS'sunafxokyavhgptyfye.jpg'
p40
aS'00130931230fa.jpg'
p41
aS'01009960627fa.jpg'
p42
asS'ratings'
p43
(lp44
(lp45
(NF0.0
tp46
a(I1
F1.499
tp47
aa(lp48
(NF0.0
tp49
a(I1
F0.662
tp50
aa(lp51
(NF0.0
tp52
a(I1
F0.529
tp53
aa(lp54
(NF0.0
tp55
a(I2
F0.679
tp56
aa(lp57
(NF0.0
tp58
a(I4
F1.181
tp59
aa(lp60
(NF0.0
tp61
a(I1
F0.963
tp62
aa(lp63
(NF0.0
tp64
a(I4
F0.646
tp65
aa(lp66
(NF0.0
tp67
a(I1
F0.762
tp68
aa(lp69
(NF0.0
tp70
a(I1
F0.461
tp71
aa(lp72
(NF0.0
tp73
a(I1
F0.528
tp74
aa(lp75
(NF0.0
tp76
a(I4
F0.762
tp77
aa(lp78
(NF0.0
tp79
a(I4
F0.763
tp80
aa(lp81
(NF0.0
tp82
a(I1
F0.766
tp83
aa(lp84
(NF0.0
tp85
a(I1
F0.612
tp86
aa(lp87
(NF0.0
tp88
a(I1
F0.863
tp89
aa(lp90
(NF0.0
tp91
a(I4
F0.73
tp92
aa(lp93
(NF0.0
tp94
a(I1
F0.564
tp95
aa(lp96
(NF0.0
tp97
a(I4
F0.98
tp98
aa(lp99
(NF0.0
tp100
a(I1
F0.76
tp101
aa(lp102
(NF0.0
tp103
a(I1
F1.08
tp104
aa(lp105
(NF0.0
tp106
a(I1
F0.778
tp107
aa(lp108
(NF0.0
tp109
a(I1
F0.846
tp110
aa(lp111
(NF0.0
tp112
a(I1
F0.59
tp113
aa(lp114
(NF0.0
tp115
a(I4
F0.646
tp116
aa(lp117
(NF0.0
tp118
a(I1
F0.579
tp119
aa(lp120
(NF0.0
tp121
a(I1
F0.645
tp122
aa(lp123
(NF0.0
tp124
a(I1
F1.012
tp125
aa(lp126
(NF0.0
tp127
a(I1
F0.697
tp128
aa(lp129
(NF0.0
tp130
a(I1
F0.862
tp131
aa(lp132
(NF0.0
tp133
a(I1
F1.063
tp134
aa(lp135
(NF0.0
tp136
a(I1
F0.712
tp137
aa(lp138
(NF0.0
tp139
a(I1
F0.846
tp140
aa(lp141
(NF0.0
tp142
a(I1
F0.93
tp143
aa(lp144
(NF0.0
tp145
a(I1
F0.811
tp146
aa(lp147
(NF0.0
tp148
a(I1
F0.629
tp149
aa(lp150
(NF0.0
tp151
a(I4
F1.095
tp152
aa(lp153
(NF0.0
tp154
a(I1
F0.928
tp155
aa(lp156
(NF0.0
tp157
a(I1
F0.929
tp158
aa(lp159
(NF0.0
tp160
a(I1
F0.91
tp161
aa(lp162
(NF0.0
tp163
a(I1
F0.495
tp164
aasS'run_time'
p165
F122.2420449256897
sS'total_iters'
p166
(lp167
I0
aI1
aI2
aI3
aI4
aI5
aI6
aI7
aI8
aI9
aI10
aI11
aI12
aI13
aI14
aI15
aI16
aI17
aI18
aI19
aI20
aI21
aI22
aI23
aI24
aI25
aI26
aI27
aI28
aI29
aI30
aI31
aI32
aI33
aI34
aI35
aI36
aI37
aI38
aI39
as.