(dp0
S'images'
p1
(lp2
S'00999960627fa.jpg'
p3
aS'sunapqwoeotxshkukbh.jpg'
p4
aS'00931960627fa.jpg'
p5
aS'00235940128fb.jpg'
p6
aS'00123931230fb.jpg'
p7
aS'00926960627Fa.jpg'
p8
aS'sunacfdkbsrughwqwtt.jpg'
p9
aS'00564941031fa.jpg'
p10
aS'sunaafewhewbxmjiurz.jpg'
p11
aS'00919960620fa.jpg'
p12
aS'00554940519fa.jpg'
p13
aS'sunadnjjzohjhbohlwq.jpg'
p14
aS'sunagetqixeypsysbpn.jpg'
p15
aS'sunaisiwfgppimtnmxl.jpg'
p16
aS'sunalntxqqadigcletd.jpg'
p17
aS'sunagsiwrmuixqgdimb.jpg'
p18
aS'00092931230fa.jpg'
p19
aS'00841940307fa.jpg'
p20
aS'sunagtumacdlmciqamz.jpg'
p21
aS'sunaptrqvaooxfvktvw.jpg'
p22
aS'00071940128fa.jpg'
p23
aS'00288940422fa.jpg'
p24
aS'sunaaexpnawiehinlpy.jpg'
p25
aS'00910960530fa.jpg'
p26
aS'00795941205fa.jpg'
p27
aS'sunalqmfgeadpqsyzpd.jpg'
p28
aS'sunabclssnoeuigtawp.jpg'
p29
aS'sunaofikylqtxphvdem.jpg'
p30
aS'00892960530fa.jpg'
p31
aS'sunacsaovnjezqwbykf.jpg'
p32
aS'00787941205fa.jpg'
p33
aS'00663941121fa.jpg'
p34
aS'sunaddsaeicthrfbkhe.jpg'
p35
aS'sunaalcrrdbjgdztbiz.jpg'
p36
aS'sunaaiqiqcggrskoqgy.jpg'
p37
aS'00227940128fa.jpg'
p38
aS'00780960530fa.jpg'
p39
aS'sunaaheqzstzxuadglu.jpg'
p40
aS'00792941205fa.jpg'
p41
aS'sunaakqepfoeqomfgxf.jpg'
p42
asS'ratings'
p43
(lp44
(lp45
(NF0.0
tp46
a(I1
F0.982
tp47
aa(lp48
(NF0.0
tp49
a(I1
F0.847
tp50
aa(lp51
(NF0.0
tp52
a(I4
F1.195
tp53
aa(lp54
(NF0.0
tp55
a(I2
F1.096
tp56
aa(lp57
(NF0.0
tp58
a(I3
F1.444
tp59
aa(lp60
(NF0.0
tp61
a(I4
F0.834
tp62
aa(lp63
(NF0.0
tp64
a(I1
F0.765
tp65
aa(lp66
(NF0.0
tp67
a(I2
F1.063
tp68
aa(lp69
(NF0.0
tp70
a(I1
F0.629
tp71
aa(lp72
(NF0.0
tp73
a(I1
F0.779
tp74
aa(lp75
(NF0.0
tp76
a(I1
F0.728
tp77
aa(lp78
(NF0.0
tp79
a(I1
F0.595
tp80
aa(lp81
(NF0.0
tp82
a(I1
F0.579
tp83
aa(lp84
(NF0.0
tp85
a(I1
F0.578
tp86
aa(lp87
(NF0.0
tp88
a(I1
F0.545
tp89
aa(lp90
(NF0.0
tp91
a(I1
F0.529
tp92
aa(lp93
(NF0.0
tp94
a(I1
F0.945
tp95
aa(lp96
(NF0.0
tp97
a(I1
F0.942
tp98
aa(lp99
(NF0.0
tp100
a(I1
F0.446
tp101
aa(lp102
(NF0.0
tp103
a(I1
F0.694
tp104
aa(lp105
(NF0.0
tp106
a(I3
F1.599
tp107
aa(lp108
(NF0.0
tp109
a(I3
F0.796
tp110
aa(lp111
(NF0.0
tp112
a(I1
F0.715
tp113
aa(lp114
(NF0.0
tp115
a(I3
F1.15
tp116
aa(lp117
(NF0.0
tp118
a(I1
F0.68
tp119
aa(lp120
(NF0.0
tp121
a(I1
F0.594
tp122
aa(lp123
(NF0.0
tp124
a(I1
F0.571
tp125
aa(lp126
(NF0.0
tp127
a(I1
F0.513
tp128
aa(lp129
(NF0.0
tp130
a(I3
F0.994
tp131
aa(lp132
(NF0.0
tp133
a(I1
F0.729
tp134
aa(lp135
(NF0.0
tp136
a(I3
F1.0
tp137
aa(lp138
(NF0.0
tp139
a(I3
F1.463
tp140
aa(lp141
(NF0.0
tp142
a(I1
F0.412
tp143
aa(lp144
(NF0.0
tp145
a(I1
F0.736
tp146
aa(lp147
(NF0.0
tp148
a(I1
F0.514
tp149
aa(lp150
(NF0.0
tp151
a(I3
F1.113
tp152
aa(lp153
(NF0.0
tp154
a(I3
F1.094
tp155
aa(lp156
(NF0.0
tp157
a(I1
F0.562
tp158
aa(lp159
(NF0.0
tp160
a(I1
F0.728
tp161
aa(lp162
(NF0.0
tp163
a(I1
F0.53
tp164
aasS'run_time'
p165
F122.4762589931488
sS'total_iters'
p166
(lp167
I0
aI1
aI2
aI3
aI4
aI5
aI6
aI7
aI8
aI9
aI10
aI11
aI12
aI13
aI14
aI15
aI16
aI17
aI18
aI19
aI20
aI21
aI22
aI23
aI24
aI25
aI26
aI27
aI28
aI29
aI30
aI31
aI32
aI33
aI34
aI35
aI36
aI37
aI38
aI39
as.