(dp0
S'cue_tuples'
p1
(lp2
(S'cue_R'
p3
S'F'
p4
I0
tp5
a(g3
g4
I0
tp6
a(g3
g4
I0
tp7
a(g3
g4
I0
tp8
a(g3
g4
I0
tp9
a(g3
g4
I0
tp10
a(g3
g4
I0
tp11
a(g3
g4
I0
tp12
a(g3
g4
I0
tp13
a(g3
g4
I0
tp14
asS'uncued'
p15
(lp16
S'00834940307fa_sunaibnpvhkdpdnzcnz.jpg'
p17
aS'00638941031fa_sunadfktsqjthoglcsm.jpg'
p18
aS'00267940128fb_sunablfqiwfqomjarht.jpg'
p19
aS'00132931230fb_sunaanjcbzdvtvblsdy.jpg'
p20
aS'01010960627fa_suncnkvbhypnivcohyx.jpg'
p21
aS'00153931230fa_sunaauhozyxzeeqstxi.jpg'
p22
aS'00925960627fa_sunapqwnqzxlsfvgsjm.jpg'
p23
aS'00505960627fa_sunabzuqsrgcsonqlkz.jpg'
p24
aS'00978960627fa_sunbddbivbptlrlauhy.jpg'
p25
aS'00750941201fa_sunaeuzwggvibufclwf.jpg'
p26
asS'cued'
p27
(lp28
S'00822940307fa_sunahqrxievfeusiqlt.jpg'
p29
aS'00891960530fa_sunalkiibhqpxfamlll.jpg'
p30
aS'00942960627fa_sunarfdklgdnjgeqfjg.jpg'
p31
aS'00799941205fa_sunagutjvdvnhxejerz.jpg'
p32
aS'00263940128fb_sunabjuovqvyfuzvqwt.jpg'
p33
aS'00862940307fa_sunaizgnnplsvajzhkc.jpg'
p34
aS'00719941201fa_sunadvithllcgmfxsrn.jpg'
p35
aS'00848940307fa_sunaivdylrawbmhryfp.jpg'
p36
aS'00290940422fa_sunabqowuarvqqcnipn.jpg'
p37
aS'00774941201fa_sunafvtpfczkzopbgue.jpg'
p38
asS'uncued_RT'
p39
(lp40
sS'cued_RT'
p41
(lp42
F0.37892603874206543
aF0.4247000217437744
aF0.3178720474243164
aF0.35538196563720703
aF0.3013341426849365
aF0.4032480716705322
aF0.40355706214904785
aF0.4195249080657959
aF0.37430882453918457
aF0.3944411277770996
as.