(lp0
S'A little engaging'
p1
aS'A little tired'
p2
accopy_reg
_reconstructor
p3
(cfuture.types.newstr
newstr
p4
c__builtin__
unicode
p5
VFaces; I could relate them to people I know
p6
tp7
Rp8
ag3
(g4
g5
VNeither
p9
tp10
Rp11
ag3
(g4
g5
VFocused on the right side for the images on the left; focused on the left side for images on the right.
p12
tp13
Rp14
a.