(lp0
S'Very engaging'
p1
aS'A little tired'
p2
accopy_reg
_reconstructor
p3
(cfuture.types.newstr
newstr
p4
c__builtin__
unicode
p5
VI found both categories to be equal.
p6
tp7
Rp8
ag3
(g4
g5
VBoth of the sides were the same.
p9
tp10
Rp11
ag3
(g4
g5
VI would try to relate the face or background to an experience of my own.
p12
tp13
Rp14
a.