(dp0
S'images'
p1
(lp2
S'205.jpg'
p3
aS'286.jpg'
p4
aS'120.jpg'
p5
aS'32.jpg'
p6
aS'133.jpg'
p7
aS'112.jpg'
p8
aS'125.jpg'
p9
aS'210.jpg'
p10
aS'208.jpg'
p11
aS'123.jpg'
p12
aS'309.jpg'
p13
aS'245.jpg'
p14
aS'266.jpg'
p15
aS'237.jpg'
p16
aS'35.jpg'
p17
aS'132.jpg'
p18
asS'ratings'
p19
(lp20
(lp21
(NF0.0
tp22
a(I4
F1.514
tp23
aa(lp24
(NF0.0
tp25
a(I3
F0.66
tp26
aa(lp27
(NF0.0
tp28
a(I1
F0.51
tp29
aa(lp30
(NF0.0
tp31
a(I2
F0.411
tp32
aa(lp33
(NF0.0
tp34
a(I1
F1.51
tp35
aa(lp36
(NF0.0
tp37
aa(lp38
(NF0.0
tp39
a(I1
F0.559
tp40
aa(lp41
(NF0.0
tp42
a(I2
F1.144
tp43
aa(lp44
(NF0.0
tp45
a(I3
F1.725
tp46
aa(lp47
(NF0.0
tp48
aa(lp49
(NF0.0
tp50
a(I1
F0.409
tp51
aa(lp52
(NF0.0
tp53
a(I2
F0.724
tp54
aa(lp55
(NF0.0
tp56
a(I1
F1.66
tp57
aa(lp58
(NF0.0
tp59
a(I1
F0.459
tp60
aa(lp61
(NF0.0
tp62
a(I2
F0.477
tp63
a(I3
F0.477
tp64
aa(lp65
(NF0.0
tp66
a(I2
F0.808
tp67
aasS'run_time'
p68
F49.000086069107056
sS'total_iters'
p69
(lp70
I0
aI1
aI2
aI3
aI4
aI5
aI6
aI7
aI8
aI9
aI10
aI11
aI12
aI13
aI14
aI15
as.