(dp0
S'cued_RT'
p1
(lp2
sS'cued'
p3
(lp4
S'286_112.jpg'
p5
aS'205_120.jpg'
p6
asS'run_time'
p7
F10.283201932907104
sS'cue_tuples'
p8
(lp9
(S'cue_L'
p10
S'F'
p11
I1
tp12
a(g10
g11
I1
tp13
a(g10
S'L'
p14
I1
tp15
a(g10
g14
I1
tp16
a(S'cue_R'
p17
g11
I1
tp18
a(g17
g11
I1
tp19
a(g17
g14
I1
tp20
a(g17
g14
I1
tp21
asS'uncued'
p22
(lp23
S'208_123.jpg'
p24
aS'210_125.jpg'
p25
asS'uncued_RT'
p26
(lp27
F0.81781005859375
aF0.6092329025268555
as.