(lp0
S'A little engaging'
p1
aS'A little tired'
p2
accopy_reg
_reconstructor
p3
(cfuture.types.newstr
newstr
p4
c__builtin__
unicode
p5
Vlandscape categories, they were more distinguisable
p6
tp7
Rp8
ag3
(g4
g5
Vright side, it is my dominant side so I assume that is why
p9
tp10
Rp11
ag3
(g4
g5
VI tried saying a generalization about landscapes in my head to remeber the order. I couldn't remember faces well. 
p12
tp13
Rp14
a.