(dp0
S'cued'
p1
(lp2
S'House_125.jpg'
p3
aS'House_277.jpg'
p4
aS'House_207.jpg'
p5
aS'House_060.jpg'
p6
aS'House_032.jpg'
p7
aS'House_241.jpg'
p8
aS'House_012.jpg'
p9
aS'3010924433_2c804f70df.jpg'
p10
aS'House_037.jpg'
p11
aS'2126687704_fe00e58bb4.jpg'
p12
asS'uncued'
p13
(lp14
S'3191660086_dd34b586d6.jpg'
p15
aS'2208543015_c7d1711a1f.jpg'
p16
aS'3222737995_12447bd73f.jpg'
p17
aS'2145272885_cb9af8a66a.jpg'
p18
aS'1919628327_17792855f9.jpg'
p19
aS'2847440383_e35afa4bd3.jpg'
p20
aS'3767135241_58b82a53b7.jpg'
p21
aS'House_044.jpg'
p22
aS'2477748909_d4eb1d3057.jpg'
p23
aS'House_026.jpg'
p24
asS'uncued_RT'
p25
(lp26
F0.5587010383605957
aF0.6434919834136963
aF0.49328088760375977
aF0.4600830078125
aF0.492825984954834
aF0.5021309852600098
asS'cued_RT'
p27
(lp28
F0.7105300426483154
aF0.3578379154205322
aF0.39968085289001465
aF0.35998010635375977
as.