(dp0
S'images'
p1
(lp2
S'House_241.jpg'
p3
aS'3191660086_dd34b586d6.jpg'
p4
aS'26656_Sarah.jpg'
p5
aS'2872797141_2a3e718c05.jpg'
p6
aS'House_024.jpg'
p7
aS'3767135241_58b82a53b7.jpg'
p8
aS'House_037.jpg'
p9
aS'House_269.jpg'
p10
aS'NickCamillo.jpg'
p11
aS'House_012.jpg'
p12
asS'ratings'
p13
(lp14
(lp15
(NF0.0
tp16
a(I3
F0.954
tp17
aa(lp18
(NF0.0
tp19
a(I1
F0.386
tp20
a(I1
F1.014
tp21
aa(lp22
(NF0.0
tp23
a(I3
F0.951
tp24
aa(lp25
(NF0.0
tp26
a(I3
F0.435
tp27
aa(lp28
(NF0.0
tp29
a(I1
F0.7
tp30
aa(lp31
(NF0.0
tp32
a(I4
F0.485
tp33
aa(lp34
(NF0.0
tp35
a(I2
F0.552
tp36
aa(lp37
(NF0.0
tp38
a(I4
F0.585
tp39
aa(lp40
(NF0.0
tp41
a(I4
F0.685
tp42
aa(lp43
(NF0.0
tp44
a(I2
F0.368
tp45
a(I2
F1.012
tp46
aas.