(dp0
S'cued'
p1
(lp2
S'grayscale_a212055.jpg'
p3
aS'grayscale_p9110486.jpg'
p4
aS'gray15_crop_grayscale_CFD-BF-012-001-N.jpg'
p5
aS'gray15_crop_grayscale_CFD-AM-246-184-N.jpg'
p6
aS'gray25_crop_grayscale_CFD-BF-004-014-N.jpg'
p7
aS'grayscale_street01.jpg'
p8
aS'grayscale_art1041.jpg'
p9
aS'grayscale_a538076.jpg'
p10
aS'grayscale_a487092.jpg'
p11
aS'gray20_crop_grayscale_CFD-AM-224-126-N.jpg'
p12
aS'grayscale_art925.jpg'
p13
aS'grayscale_sky3.jpg'
p14
aS'grayscale_art760.jpg'
p15
aS'gray15_crop_grayscale_CFD-AM-234-355-N.jpg'
p16
aS'grayscale_sky38.jpg'
p17
aS'grayscale_art1754.jpg'
p18
aS'grayscale_gre186.jpg'
p19
aS'grayscale_gre116.jpg'
p20
aS'grayscale_boston339.jpg'
p21
aS'grayscale_city7.jpg'
p22
asS'cued_RT'
p23
(lp24
F0.875359058380127
aF0.7671730518341064
aF0.4013848304748535
aF0.38645505905151367
aF0.47927093505859375
aF0.5039761066436768
aF0.40494394302368164
aF0.3544299602508545
aF0.3205602169036865
aF0.25546813011169434
asS'cue_Right'
p25
(lp26
I0
aI0
aI1
aI1
aI1
aI0
aI0
aI1
aI0
aI1
aI1
aI0
aI1
aI1
aI0
aI0
aI1
aI0
aI1
aI1
asS'run_time'
p27
F65.70231103897095
sS'uncued'
p28
(lp29
S'gray15_crop_grayscale_CFD-AF-225-141-N.jpg'
p30
aS'gray15_crop_grayscale_CFD-AF-202-122-N.jpg'
p31
aS'grayscale_boston18.jpg'
p32
aS'grayscale_a212018.jpg'
p33
aS'grayscale_urban158.jpg'
p34
aS'gray10_crop_grayscale_CFD-AM-228-214-N.jpg'
p35
aS'gray15_crop_grayscale_CFD-AM-225-102-N.jpg'
p36
aS'gray10_crop_grayscale_CFD-AF-244-168-N.jpg'
p37
aS'gray15_crop_grayscale_CFD-AM-215-120-N.jpg'
p38
aS'grayscale_urb866.jpg'
p39
aS'gray10_crop_grayscale_CFD-AF-245-143-N.jpg'
p40
aS'gray10_crop_grayscale_CFD-AM-244-222-N.jpg'
p41
aS'gray20_crop_grayscale_CFD-AF-242-158-N.jpg'
p42
aS'grayscale_city65.jpg'
p43
aS'gray10_crop_grayscale_CFD-AF-234-208-N.jpg'
p44
aS'gray10_crop_grayscale_CFD-AM-248-104-N.jpg'
p45
aS'gray10_crop_grayscale_CFD-AF-204-067-N.jpg'
p46
aS'gray10_crop_grayscale_CFD-AM-252-114-N.jpg'
p47
aS'gray20_crop_grayscale_CFD-AM-221-184-N.jpg'
p48
aS'gray10_crop_grayscale_CFD-AF-219-106-N.jpg'
p49
asS'total_iters'
p50
I20
sS'uncued_RT'
p51
(lp52
F1.2666079998016357
aF1.4936878681182861
aF0.14380812644958496
aF0.45513105392456055
aF0.5688610076904297
aF0.10336613655090332
aF0.5333659648895264
aF0.3474750518798828
aF0.6812930107116699
aF0.4499850273132324
as.