(dp0
S'cued'
p1
(lp2
S'grayscale_art1015.jpg'
p3
aS'grayscale_art1199.jpg'
p4
aS'grayscale_city4.jpg'
p5
aS'grayscale_art1546.jpg'
p6
aS'grayscale_street50.jpg'
p7
aS'grayscale_a804068.jpg'
p8
aS'grayscale_a212044.jpg'
p9
aS'grayscale_urb911.jpg'
p10
aS'grayscale_city50.jpg'
p11
aS'grayscale_bost105.jpg'
p12
aS'grayscale_urban157.jpg'
p13
aS'grayscale_p1010536.jpg'
p14
aS'gray20_crop_grayscale_CFD-WM-204-031-N.jpg'
p15
aS'grayscale_art798.jpg'
p16
aS'gray10_crop_grayscale_CFD-AF-236-145-N.jpg'
p17
aS'grayscale_urb159.jpg'
p18
aS'grayscale_p9120498.jpg'
p19
aS'gray10_crop_grayscale_CFD-AF-246-242-N.jpg'
p20
aS'grayscale_street02.jpg'
p21
aS'gray20_crop_grayscale_CFD-BF-003-003-N.jpg'
p22
asS'cued_RT'
p23
(lp24
F0.5937581062316895
aF0.5746989250183105
aF0.5903580188751221
aF0.45046401023864746
aF0.46437501907348633
aF0.3834860324859619
asS'cue_Right'
p25
(lp26
I0
aI0
aI1
aI0
aI1
aI0
aI1
aI0
aI0
aI1
aI1
aI0
aI1
aI0
aI1
aI1
aI1
aI1
aI0
aI1
asS'run_time'
p27
F64.85497999191284
sS'uncued'
p28
(lp29
S'gray20_crop_grayscale_CFD-AF-250-200-N.jpg'
p30
aS'gray10_crop_grayscale_CFD-AM-229-224-N.jpg'
p31
aS'gray10_crop_grayscale_CFD-AM-241-287-N.jpg'
p32
aS'gray10_crop_grayscale_CFD-AM-230-150-N.jpg'
p33
aS'gray15_crop_grayscale_CFD-AM-253-161-N.jpg'
p34
aS'gray20_crop_grayscale_CFD-AM-211-052-N.jpg'
p35
aS'gray20_crop_grayscale_CFD-WM-225-127-N.jpg'
p36
aS'gray10_crop_grayscale_CFD-AF-241-141-N.jpg'
p37
aS'gray10_crop_grayscale_CFD-AF-215-70-N.jpg'
p38
aS'gray15_crop_grayscale_CFD-AF-200-228-N.jpg'
p39
aS'gray10_crop_grayscale_CFD-AF-233-190-N.jpg'
p40
aS'gray15_crop_grayscale_CFD-AF-221-147-N.jpg'
p41
aS'grayscale_art1316.jpg'
p42
aS'gray15_crop_grayscale_CFD-AM-239-147-N.jpg'
p43
aS'grayscale_sky22.jpg'
p44
aS'gray15_crop_grayscale_CFD-AF-208-003-N.jpg'
p45
aS'gray10_crop_grayscale_CFD-AF-206-079-N.jpg'
p46
aS'grayscale_par123.jpg'
p47
aS'gray20_crop_grayscale_CFD-WM-201-063-N.jpg'
p48
aS'grayscale_p1010266.jpg'
p49
asS'total_iters'
p50
I20
sS'uncued_RT'
p51
(lp52
F0.5167520046234131
aF0.6679069995880127
aF0.5775458812713623
aF0.4530811309814453
aF0.5974481105804443
aF0.6944620609283447
aF0.5452899932861328
aF0.4921839237213135
aF0.40552282333374023
aF0.4062941074371338
aF0.33916687965393066
aF0.31646203994750977
aF0.3860461711883545
aF0.32721614837646484
as.