(dp0
S'images'
p1
(lp2
S'grayscale_art799.jpg'
p3
aS'grayscale_art760.jpg'
p4
aS'grayscale_art1041.jpg'
p5
aS'gray20_crop_grayscale_CFD-AM-226-234-N.jpg'
p6
aS'grayscale_art1732.jpg'
p7
aS'grayscale_urb866.jpg'
p8
aS'gray15_crop_grayscale_CFD-AM-234-355-N.jpg'
p9
aS'grayscale_a538076.jpg'
p10
aS'grayscale_gre115.jpg'
p11
aS'grayscale_city7.jpg'
p12
aS'grayscale_boston18.jpg'
p13
aS'grayscale_sky38.jpg'
p14
aS'grayscale_art775.jpg'
p15
aS'grayscale_par118.jpg'
p16
aS'grayscale_street01.jpg'
p17
aS'grayscale_boston61.jpg'
p18
aS'grayscale_a487092.jpg'
p19
aS'grayscale_boston339.jpg'
p20
aS'gray10_crop_grayscale_CFD-AF-204-067-N.jpg'
p21
aS'grayscale_art1754.jpg'
p22
aS'gray15_crop_grayscale_CFD-AM-246-184-N.jpg'
p23
aS'gray10_crop_grayscale_CFD-AM-244-222-N.jpg'
p24
aS'gray20_crop_grayscale_CFD-AM-221-184-N.jpg'
p25
aS'gray15_crop_grayscale_CFD-AF-225-141-N.jpg'
p26
aS'gray10_crop_grayscale_CFD-AM-248-104-N.jpg'
p27
aS'grayscale_art1720.jpg'
p28
aS'gray15_crop_grayscale_CFD-AF-209-006-N.jpg'
p29
aS'gray20_crop_grayscale_CFD-AF-242-158-N.jpg'
p30
aS'gray20_crop_grayscale_CFD-AM-224-126-N.jpg'
p31
aS'grayscale_p9110486.jpg'
p32
aS'gray10_crop_grayscale_CFD-AF-245-143-N.jpg'
p33
aS'gray10_crop_grayscale_CFD-AF-234-208-N.jpg'
p34
aS'gray10_crop_grayscale_CFD-AM-252-114-N.jpg'
p35
aS'gray15_crop_grayscale_CFD-AF-202-122-N.jpg'
p36
aS'grayscale_gre116.jpg'
p37
aS'grayscale_art925.jpg'
p38
aS'grayscale_gre186.jpg'
p39
aS'grayscale_a212055.jpg'
p40
aS'gray10_crop_grayscale_CFD-AF-237-223-N.jpg'
p41
aS'gray15_crop_grayscale_CFD-BF-012-001-N.jpg'
p42
aS'grayscale_urban158.jpg'
p43
aS'gray20_crop_grayscale_CFD-WM-215-041-N.jpg'
p44
aS'gray15_crop_grayscale_CFD-AM-225-102-N.jpg'
p45
aS'gray20_crop_grayscale_CFD-AF-249-092-N.jpg'
p46
aS'grayscale_art1474.jpg'
p47
aS'gray25_crop_grayscale_CFD-BF-004-014-N.jpg'
p48
aS'grayscale_sky3.jpg'
p49
aS'grayscale_p1010263.jpg'
p50
aS'gray10_crop_grayscale_CFD-AM-228-214-N.jpg'
p51
aS'grayscale_par162.jpg'
p52
aS'grayscale_city65.jpg'
p53
aS'gray10_crop_grayscale_CFD-AF-244-168-N.jpg'
p54
aS'grayscale_a212018.jpg'
p55
aS'grayscale_a487047.jpg'
p56
aS'gray15_crop_grayscale_CFD-AM-227-184-N.jpg'
p57
aS'grayscale_p1010073.jpg'
p58
aS'gray15_crop_grayscale_CFD-AM-215-120-N.jpg'
p59
aS'grayscale_urban167.jpg'
p60
aS'grayscale_art945.jpg'
p61
aS'gray15_crop_grayscale_CFD-AM-245-111-N.jpg'
p62
asS'ratings'
p63
(lp64
(lp65
(NF0.0
tp66
aa(lp67
(NF0.0
tp68
a(I2
F0.002
tp69
a(I2
F1.017
tp70
aa(lp71
(NF0.0
tp72
a(I2
F0.002
tp73
a(I2
F1.002
tp74
aa(lp75
(NF0.0
tp76
a(I1
F0.234
tp77
a(I1
F1.016
tp78
aa(lp79
(NF0.0
tp80
a(I3
F0.351
tp81
a(I3
F1.016
tp82
aa(lp83
(NF0.0
tp84
a(I3
F0.401
tp85
a(I3
F1.016
tp86
aa(lp87
(NF0.0
tp88
a(I2
F0.335
tp89
a(I2
F1.017
tp90
aa(lp91
(NF0.0
tp92
aa(lp93
(NF0.0
tp94
a(I3
F0.368
tp95
a(I3
F1.017
tp96
aa(lp97
(NF0.0
tp98
a(I3
F0.384
tp99
a(I3
F1.017
tp100
aa(lp101
(NF0.0
tp102
a(I3
F0.367
tp103
a(I3
F1.016
tp104
aa(lp105
(NF0.0
tp106
a(I2
F0.352
tp107
a(I2
F1.0
tp108
aa(lp109
(NF0.0
tp110
a(I3
F0.368
tp111
a(I3
F1.001
tp112
aa(lp113
(NF0.0
tp114
a(I3
F0.251
tp115
a(I3
F1.015
tp116
aa(lp117
(NF0.0
tp118
aa(lp119
(NF0.0
tp120
a(I3
F0.302
tp121
a(I3
F1.017
tp122
aa(lp123
(NF0.0
tp124
aa(lp125
(NF0.0
tp126
a(I3
F0.352
tp127
a(I3
F1.0
tp128
aa(lp129
(NF0.0
tp130
a(I2
F0.302
tp131
a(I2
F1.017
tp132
aa(lp133
(NF0.0
tp134
a(I3
F0.119
tp135
a(I3
F1.001
tp136
aa(lp137
(NF0.0
tp138
a(I2
F0.352
tp139
a(I2
F1.017
tp140
aa(lp141
(NF0.0
tp142
aa(lp143
(NF0.0
tp144
a(I3
F0.202
tp145
a(I3
F1.016
tp146
aa(lp147
(NF0.0
tp148
a(I3
F0.085
tp149
a(I3
F1.016
tp150
aa(lp151
(NF0.0
tp152
a(I2
F0.303
tp153
a(I2
F1.001
tp154
aa(lp155
(NF0.0
tp156
a(I2
F0.268
tp157
a(I2
F1.016
tp158
aa(lp159
(NF0.0
tp160
a(I2
F0.269
tp161
a(I2
F1.001
tp162
aa(lp163
(NF0.0
tp164
a(I3
F0.252
tp165
a(I3
F1.0
tp166
aa(lp167
(NF0.0
tp168
a(I2
F0.218
tp169
a(I2
F1.016
tp170
aa(lp171
(NF0.0
tp172
a(I3
F0.252
tp173
a(I3
F1.017
tp174
aa(lp175
(NF0.0
tp176
a(I2
F0.002
tp177
a(I2
F1.017
tp178
aa(lp179
(NF0.0
tp180
a(I2
F0.168
tp181
a(I2
F1.017
tp182
aa(lp183
(NF0.0
tp184
a(I2
F0.035
tp185
a(I2
F1.0
tp186
aa(lp187
(NF0.0
tp188
a(I4
F0.402
tp189
a(I4
F1.017
tp190
aa(lp191
(NF0.0
tp192
a(I2
F0.367
tp193
a(I2
F1.016
tp194
aa(lp195
(NF0.0
tp196
a(I3
F0.351
tp197
a(I3
F1.016
tp198
aa(lp199
(NF0.0
tp200
aa(lp201
(NF0.0
tp202
a(I2
F0.285
tp203
a(I2
F1.001
tp204
aa(lp205
(NF0.0
tp206
aa(lp207
(NF0.0
tp208
a(I3
F0.118
tp209
a(I3
F1.016
tp210
aa(lp211
(NF0.0
tp212
a(I1
F0.134
tp213
a(I1
F1.016
tp214
aa(lp215
(NF0.0
tp216
a(I3
F0.003
tp217
a(I3
F1.016
tp218
aa(lp219
(NF0.0
tp220
a(I2
F0.235
tp221
a(I2
F1.0
tp222
aa(lp223
(NF0.0
tp224
a(I3
F0.385
tp225
a(I3
F1.016
tp226
aa(lp227
(NF0.0
tp228
a(I2
F0.25
tp229
a(I2
F1.015
tp230
aa(lp231
(NF0.0
tp232
aa(lp233
(NF0.0
tp234
a(I1
F0.218
tp235
a(I1
F1.0
tp236
aa(lp237
(NF0.0
tp238
a(I3
F0.351
tp239
a(I3
F1.016
tp240
aa(lp241
(NF0.0
tp242
a(I2
F0.302
tp243
a(I2
F1.001
tp244
aa(lp245
(NF0.0
tp246
a(I2
F0.351
tp247
a(I2
F1.017
tp248
aa(lp249
(NF0.0
tp250
a(I2
F0.002
tp251
a(I2
F1.016
tp252
aa(lp253
(NF0.0
tp254
a(I3
F0.003
tp255
a(I3
F1.016
tp256
aa(lp257
(NF0.0
tp258
aa(lp259
(NF0.0
tp260
a(I3
F0.301
tp261
a(I3
F1.016
tp262
aa(lp263
(NF0.0
tp264
a(I2
F0.368
tp265
a(I2
F1.0
tp266
aa(lp267
(NF0.0
tp268
a(I1
F0.385
tp269
a(I1
F1.016
tp270
aa(lp271
(NF0.0
tp272
aa(lp273
(NF0.0
tp274
a(I3
F0.402
tp275
a(I3
F1.0
tp276
aa(lp277
(NF0.0
tp278
a(I2
F0.268
tp279
a(I2
F1.017
tp280
aa(lp281
(NF0.0
tp282
a(I3
F0.003
tp283
a(I3
F1.016
tp284
aasS'run_time'
p285
F180.30662393569946
sS'total_iters'
p286
(lp287
I0
aI1
aI2
aI3
aI4
aI5
aI6
aI7
aI8
aI9
aI10
aI11
aI12
aI13
aI14
aI15
aI16
aI17
aI18
aI19
aI20
aI21
aI22
aI23
aI24
aI25
aI26
aI27
aI28
aI29
aI30
aI31
aI32
aI33
aI34
aI35
aI36
aI37
aI38
aI39
aI40
aI41
aI42
aI43
aI44
aI45
aI46
aI47
aI48
aI49
aI50
aI51
aI52
aI53
aI54
aI55
aI56
aI57
aI58
aI59
as.