(dp0
S'images'
p1
(lp2
S'gray10_crop_grayscale_CFD-AF-236-145-N.jpg'
p3
aS'grayscale_p1010536.jpg'
p4
aS'grayscale_city4.jpg'
p5
aS'grayscale_art1546.jpg'
p6
aS'grayscale_art798.jpg'
p7
aS'gray10_crop_grayscale_CFD-AM-205-153-N.jpg'
p8
aS'grayscale_city1.jpg'
p9
aS'gray20_crop_grayscale_CFD-AF-250-200-N.jpg'
p10
aS'gray20_crop_grayscale_CFD-BF-003-003-N.jpg'
p11
aS'gray20_crop_grayscale_CFD-WM-204-031-N.jpg'
p12
aS'gray10_crop_grayscale_CFD-AF-214-139-N.jpg'
p13
aS'grayscale_art1015.jpg'
p14
aS'grayscale_p1010542.jpg'
p15
aS'grayscale_par123.jpg'
p16
aS'grayscale_a212044.jpg'
p17
aS'gray15_crop_grayscale_CFD-AF-221-147-N.jpg'
p18
aS'grayscale_a588087.jpg'
p19
aS'gray20_crop_grayscale_CFD-AM-211-052-N.jpg'
p20
aS'grayscale_urb159.jpg'
p21
aS'gray10_crop_grayscale_CFD-AF-206-079-N.jpg'
p22
aS'grayscale_p9120498.jpg'
p23
aS'grayscale_city50.jpg'
p24
aS'grayscale_a804068.jpg'
p25
aS'grayscale_art1316.jpg'
p26
aS'grayscale_p1010266.jpg'
p27
aS'gray10_crop_grayscale_CFD-AF-215-70-N.jpg'
p28
aS'grayscale_bost105.jpg'
p29
aS'grayscale_art256.jpg'
p30
aS'gray15_crop_grayscale_CFD-AF-208-003-N.jpg'
p31
aS'gray15_crop_grayscale_CFD-AM-239-147-N.jpg'
p32
aS'grayscale_par151.jpg'
p33
aS'gray15_crop_grayscale_CFD-AM-206-086-N.jpg'
p34
aS'gray10_crop_grayscale_CFD-AM-247-165-N.jpg'
p35
aS'grayscale_urban157.jpg'
p36
aS'grayscale_street50.jpg'
p37
aS'grayscale_sky22.jpg'
p38
aS'grayscale_urb906.jpg'
p39
aS'grayscale_street02.jpg'
p40
aS'grayscale_art767.jpg'
p41
aS'gray10_crop_grayscale_CFD-AF-246-242-N.jpg'
p42
aS'grayscale_hexp23.jpg'
p43
aS'gray10_crop_grayscale_CFD-AM-229-224-N.jpg'
p44
aS'grayscale_urb911.jpg'
p45
aS'gray10_crop_grayscale_CFD-AM-230-150-N.jpg'
p46
aS'gray20_crop_grayscale_CFD-WM-201-063-N.jpg'
p47
aS'grayscale_p1010278.jpg'
p48
aS'gray10_crop_grayscale_CFD-AF-241-141-N.jpg'
p49
aS'gray15_crop_grayscale_CFD-AM-253-161-N.jpg'
p50
aS'grayscale_art1199.jpg'
p51
aS'gray20_crop_grayscale_CFD-AM-223-138-N.jpg'
p52
aS'gray10_crop_grayscale_CFD-AM-241-287-N.jpg'
p53
aS'grayscale_bost46.jpg'
p54
aS'gray15_crop_grayscale_CFD-AF-200-228-N.jpg'
p55
aS'gray10_crop_grayscale_CFD-AF-233-190-N.jpg'
p56
aS'grayscale_boston68.jpg'
p57
aS'gray15_crop_grayscale_CFD-AF-226-251-N.jpg'
p58
aS'gray20_crop_grayscale_CFD-WM-225-127-N.jpg'
p59
aS'grayscale_art840.jpg'
p60
aS'gray15_crop_grayscale_CFD-AM-213-056-N.jpg'
p61
aS'grayscale_hexp12.jpg'
p62
asS'ratings'
p63
(lp64
(lp65
(NF0.0
tp66
a(NF1.005
tp67
aa(lp68
(NF0.0
tp69
a(I3
F0.002
tp70
a(I3
F1.016
tp71
aa(lp72
(NF0.0
tp73
aa(lp74
(NF0.0
tp75
a(NF1.0
tp76
aa(lp77
(NF0.0
tp78
aa(lp79
(NF0.0
tp80
aa(lp81
(NF0.0
tp82
aa(lp83
(NF0.0
tp84
aa(lp85
(NF0.0
tp86
aa(lp87
(NF0.0
tp88
aa(lp89
(NF0.0
tp90
aa(lp91
(NF0.0
tp92
aa(lp93
(NF0.0
tp94
aa(lp95
(NF0.0
tp96
aa(lp97
(NF0.0
tp98
a(I2
F0.402
tp99
a(I2
F1.017
tp100
aa(lp101
(NF0.0
tp102
a(I3
F0.38
tp103
a(I3
F1.011
tp104
aa(lp105
(NF0.0
tp106
aa(lp107
(NF0.0
tp108
a(I3
F0.219
tp109
a(I3
F1.0
tp110
aa(lp111
(NF0.0
tp112
aa(lp113
(NF0.0
tp114
a(I2
F0.335
tp115
a(I2
F1.017
tp116
aa(lp117
(NF0.0
tp118
a(I3
F0.401
tp119
a(I3
F1.016
tp120
aa(lp121
(NF0.0
tp122
a(I2
F0.336
tp123
a(I2
F1.016
tp124
aa(lp125
(NF0.0
tp126
aa(lp127
(NF0.0
tp128
a(I2
F0.236
tp129
a(I2
F1.001
tp130
aa(lp131
(NF0.0
tp132
aa(lp133
(NF0.0
tp134
aa(lp135
(NF0.0
tp136
a(I2
F0.334
tp137
a(I2
F1.0
tp138
aa(lp139
(NF0.0
tp140
a(I3
F0.384
tp141
a(I3
F1.016
tp142
aa(lp143
(NF0.0
tp144
aa(lp145
(NF0.0
tp146
a(I4
F0.352
tp147
a(I4
F1.017
tp148
aa(lp149
(NF0.0
tp150
a(I1
F0.318
tp151
a(I1
F1.017
tp152
aa(lp153
(NF0.0
tp154
a(I3
F0.002
tp155
a(I3
F1.016
tp156
aa(lp157
(NF0.0
tp158
aa(lp159
(NF0.0
tp160
a(I3
F0.251
tp161
a(I3
F1.016
tp162
aa(lp163
(NF0.0
tp164
aa(lp165
(NF0.0
tp166
a(I2
F0.285
tp167
a(I2
F1.017
tp168
aa(lp169
(NF0.0
tp170
a(I1
F0.002
tp171
a(I1
F1.016
tp172
aa(lp173
(NF0.0
tp174
a(I3
F0.35
tp175
a(I3
F1.016
tp176
aa(lp177
(NF0.0
tp178
aa(lp179
(NF0.0
tp180
a(I3
F0.315
tp181
a(I2
F0.35
tp182
a(I2
F1.013
tp183
aa(lp184
(NF0.0
tp185
a(I3
F0.366
tp186
a(I3
F1.013
tp187
aa(lp188
(NF0.0
tp189
a(I3
F0.335
tp190
a(I3
F1.017
tp191
aa(lp192
(NF0.0
tp193
a(I3
F0.336
tp194
a(I3
F1.017
tp195
aa(lp196
(NF0.0
tp197
a(I1
F0.319
tp198
a(I1
F1.017
tp199
aa(lp200
(NF0.0
tp201
a(I4
F0.369
tp202
a(I4
F1.001
tp203
aa(lp204
(NF0.0
tp205
aa(lp206
(NF0.0
tp207
a(I1
F0.169
tp208
a(I1
F1.0
tp209
aa(lp210
(NF0.0
tp211
a(I4
F0.303
tp212
a(I4
F1.017
tp213
aa(lp214
(NF0.0
tp215
a(I2
F0.202
tp216
a(I2
F1.001
tp217
aa(lp218
(NF0.0
tp219
a(I2
F0.37
tp220
a(I2
F1.001
tp221
aa(lp222
(NF0.0
tp223
a(I4
F0.385
tp224
a(I4
F1.017
tp225
aa(lp226
(NF0.0
tp227
a(I2
F0.385
tp228
a(I2
F1.017
tp229
aa(lp230
(NF0.0
tp231
a(I2
F0.318
tp232
a(I2
F1.017
tp233
aa(lp234
(NF0.0
tp235
aa(lp236
(NF0.0
tp237
a(I3
F0.336
tp238
a(I3
F1.001
tp239
aa(lp240
(NF0.0
tp241
a(I3
F0.268
tp242
a(I3
F1.016
tp243
aa(lp244
(NF0.0
tp245
a(I3
F0.319
tp246
a(I3
F1.0
tp247
aa(lp248
(NF0.0
tp249
a(I3
F0.002
tp250
a(I3
F1.001
tp251
aa(lp252
(NF0.0
tp253
aa(lp254
(NF0.0
tp255
aasS'run_time'
p256
F173.9963619709015
sS'total_iters'
p257
(lp258
I0
aI1
aI2
aI3
aI4
aI5
aI6
aI7
aI8
aI9
aI10
aI11
aI12
aI13
aI14
aI15
aI16
aI17
aI18
aI19
aI20
aI21
aI22
aI23
aI24
aI25
aI26
aI27
aI28
aI29
aI30
aI31
aI32
aI33
aI34
aI35
aI36
aI37
aI38
aI39
aI40
aI41
aI42
aI43
aI44
aI45
aI46
aI47
aI48
aI49
aI50
aI51
aI52
aI53
aI54
aI55
aI56
aI57
aI58
aI59
as.