(dp0
S'cued'
p1
(lp2
S'grayscale_art1617.jpg'
p3
aS'gray15_crop_grayscale_CFD-AF-238-185-N.jpg'
p4
aS'gray20_crop_grayscale_CFD-WM-206-045-N.jpg'
p5
aS'grayscale_boston373.jpg'
p6
aS'grayscale_urb907.jpg'
p7
aS'grayscale_bost76.jpg'
p8
aS'grayscale_a806037.jpg'
p9
aS'grayscale_city60.jpg'
p10
aS'grayscale_p1010521.jpg'
p11
aS'grayscale_urb274.jpg'
p12
aS'grayscale_p1010619.jpg'
p13
aS'grayscale_par9.jpg'
p14
aS'gray15_crop_grayscale_CFD-AM-243-212-N.jpg'
p15
aS'gray15_crop_grayscale_CFD-AF-252-135-N.jpg'
p16
aS'gray10_crop_grayscale_CFD-AF-256-160-N.jpg'
p17
aS'grayscale_a487062.jpg'
p18
aS'gray20_crop_grayscale_CFD-WM-244-003-N.jpg'
p19
aS'gray20_crop_grayscale_CFD-BF-010-001-N.jpg'
p20
aS'grayscale_urb893.jpg'
p21
aS'grayscale_urban989.jpg'
p22
asS'cued_RT'
p23
(lp24
F0.48073387145996094
aF0.4445018768310547
aF0.48888683319091797
aF0.5294549465179443
aF0.48866915702819824
aF0.4990859031677246
aF0.3504159450531006
aF0.44072794914245605
asS'cue_Right'
p25
(lp26
I0
aI1
aI1
aI0
aI1
aI1
aI0
aI0
aI0
aI1
aI0
aI0
aI1
aI1
aI1
aI0
aI1
aI1
aI1
aI0
asS'run_time'
p27
F63.96434807777405
sS'uncued'
p28
(lp29
S'gray20_crop_grayscale_CFD-BF-006-017-N.jpg'
p30
aS'grayscale_archi337.jpg'
p31
aS'grayscale_urban1152.jpg'
p32
aS'gray20_crop_grayscale_CFD-BF-014-002-N.jpg'
p33
aS'gray10_crop_grayscale_CFD-AF-201-060-N.jpg'
p34
aS'gray15_crop_grayscale_CFD-AM-209-048-N.jpg'
p35
aS'gray15_crop_grayscale_CFD-AF-220-107-N.jpg'
p36
aS'gray10_crop_grayscale_CFD-AF-219-106-N.jpg'
p37
aS'gray10_crop_grayscale_CFD-AF-213-126-N.jpg'
p38
aS'gray20_crop_grayscale_CFD-AF-248-148-N.jpg'
p39
aS'gray15_crop_grayscale_CFD-AF-223-183-N.jpg'
p40
aS'gray20_crop_grayscale_CFD-WM-251-002-N.jpg'
p41
aS'grayscale_urban73.jpg'
p42
aS'grayscale_a462057.jpg'
p43
aS'grayscale_urban1124.jpg'
p44
aS'gray10_crop_grayscale_CFD-AM-219-101-N.jpg'
p45
aS'grayscale_p1010516.jpg'
p46
aS'grayscale_p1010589.jpg'
p47
aS'gray15_crop_grayscale_CFD-AF-227-207-N.jpg'
p48
aS'gray10_crop_grayscale_CFD-AF-228-173-N.jpg'
p49
asS'total_iters'
p50
I20
sS'uncued_RT'
p51
(lp52
F0.7886149883270264
aF0.3987088203430176
aF0.36747002601623535
aF0.46639585494995117
aF0.4908781051635742
aF0.5279130935668945
aF0.4578828811645508
aF0.48149681091308594
aF0.34247398376464844
aF0.20012211799621582
aF0.4603700637817383
aF0.4715580940246582
as.