(dp0
S'images'
p1
(lp2
S'grayscale_urb274.jpg'
p3
aS'grayscale_urban1124.jpg'
p4
aS'gray20_crop_grayscale_CFD-WM-251-002-N.jpg'
p5
aS'gray20_crop_grayscale_CFD-WM-244-003-N.jpg'
p6
aS'gray10_crop_grayscale_CFD-AF-201-060-N.jpg'
p7
aS'grayscale_art1751.jpg'
p8
aS'grayscale_p9120503.jpg'
p9
aS'grayscale_art1192.jpg'
p10
aS'gray20_crop_grayscale_CFD-BF-014-002-N.jpg'
p11
aS'grayscale_urb506.jpg'
p12
aS'gray10_crop_grayscale_CFD-AM-214-168-N.jpg'
p13
aS'gray10_crop_grayscale_CFD-AM-219-101-N.jpg'
p14
aS'gray20_crop_grayscale_CFD-AM-210-035-N.jpg'
p15
aS'grayscale_city8.jpg'
p16
aS'gray10_crop_grayscale_CFD-AF-256-160-N.jpg'
p17
aS'grayscale_p1010516.jpg'
p18
aS'grayscale_urb907.jpg'
p19
aS'grayscale_boston373.jpg'
p20
aS'gray15_crop_grayscale_CFD-AF-238-185-N.jpg'
p21
aS'gray15_crop_grayscale_CFD-AF-223-183-N.jpg'
p22
aS'grayscale_boston255.jpg'
p23
aS'gray20_crop_grayscale_CFD-AF-248-148-N.jpg'
p24
aS'grayscale_gre181.jpg'
p25
aS'grayscale_a806037.jpg'
p26
aS'gray15_crop_grayscale_CFD-AF-220-107-N.jpg'
p27
aS'gray10_crop_grayscale_CFD-AF-239-171-N.jpg'
p28
aS'grayscale_par94.jpg'
p29
aS'grayscale_a487062.jpg'
p30
aS'gray15_crop_grayscale_CFD-AM-243-212-N.jpg'
p31
aS'grayscale_urban73.jpg'
p32
aS'grayscale_urb893.jpg'
p33
aS'grayscale_p1010183.jpg'
p34
aS'grayscale_a462057.jpg'
p35
aS'grayscale_p1010589.jpg'
p36
aS'grayscale_a805043.jpg'
p37
aS'grayscale_p1010521.jpg'
p38
aS'grayscale_par87.jpg'
p39
aS'gray15_crop_grayscale_CFD-AF-252-135-N.jpg'
p40
aS'grayscale_urban1152.jpg'
p41
aS'grayscale_p1010186.jpg'
p42
aS'grayscale_p1010323.jpg'
p43
aS'gray10_crop_grayscale_CFD-AF-228-173-N.jpg'
p44
aS'gray20_crop_grayscale_CFD-BF-006-017-N.jpg'
p45
aS'gray20_crop_grayscale_CFD-WM-206-045-N.jpg'
p46
aS'gray20_crop_grayscale_CFD-BF-010-001-N.jpg'
p47
aS'grayscale_par9.jpg'
p48
aS'gray15_crop_grayscale_CFD-AF-227-207-N.jpg'
p49
aS'grayscale_art1717.jpg'
p50
aS'grayscale_bost76.jpg'
p51
aS'grayscale_archi296.jpg'
p52
aS'gray10_crop_grayscale_CFD-AF-213-126-N.jpg'
p53
aS'grayscale_archi337.jpg'
p54
aS'grayscale_art869.jpg'
p55
aS'gray10_crop_grayscale_CFD-AF-219-106-N.jpg'
p56
aS'grayscale_a812069.jpg'
p57
aS'gray15_crop_grayscale_CFD-AM-209-048-N.jpg'
p58
aS'grayscale_art1617.jpg'
p59
aS'grayscale_p1010619.jpg'
p60
aS'grayscale_city60.jpg'
p61
aS'gray10_crop_grayscale_CFD-AF-217-155-N.jpg'
p62
asS'ratings'
p63
(lp64
(lp65
(NF0.0
tp66
a(I3
F0.003
tp67
a(I3
F1.016
tp68
aa(lp69
(NF0.0
tp70
a(I3
F0.335
tp71
a(I3
F1.0
tp72
aa(lp73
(NF0.0
tp74
a(I3
F0.302
tp75
a(I3
F1.018
tp76
aa(lp77
(NF0.0
tp78
aa(lp79
(NF0.0
tp80
a(I1
F0.218
tp81
a(I1
F1.016
tp82
aa(lp83
(NF0.0
tp84
aa(lp85
(NF0.0
tp86
a(I4
F0.302
tp87
a(I4
F1.0
tp88
aa(lp89
(NF0.0
tp90
a(I2
F0.235
tp91
a(I2
F1.016
tp92
aa(lp93
(NF0.0
tp94
a(I3
F0.385
tp95
a(I3
F1.017
tp96
aa(lp97
(NF0.0
tp98
a(I1
F0.219
tp99
a(I1
F1.016
tp100
aa(lp101
(NF0.0
tp102
a(I3
F0.118
tp103
a(I3
F1.016
tp104
aa(lp105
(NF0.0
tp106
a(I3
F0.302
tp107
a(I3
F1.0
tp108
aa(lp109
(NF0.0
tp110
a(I2
F0.401
tp111
a(I2
F1.015
tp112
aa(lp113
(NF0.0
tp114
a(I2
F0.003
tp115
a(I2
F1.017
tp116
aa(lp117
(NF0.0
tp118
a(I3
F0.203
tp119
a(I3
F1.0
tp120
aa(lp121
(NF0.0
tp122
a(I2
F0.285
tp123
a(I2
F1.016
tp124
aa(lp125
(NF0.0
tp126
a(I2
F0.003
tp127
a(I2
F1.017
tp128
aa(lp129
(NF0.0
tp130
a(I2
F0.003
tp131
a(I2
F1.016
tp132
aa(lp133
(NF0.0
tp134
a(I4
F0.003
tp135
a(I4
F1.016
tp136
aa(lp137
(NF0.0
tp138
a(I2
F0.336
tp139
aa(lp140
(NF0.0
tp141
a(I3
F0.052
tp142
a(I3
F1.016
tp143
aa(lp144
(NF0.0
tp145
a(I3
F0.003
tp146
a(I3
F1.0
tp147
aa(lp148
(NF0.0
tp149
a(I1
F0.003
tp150
a(I1
F1.0
tp151
aa(lp152
(NF0.0
tp153
a(I3
F0.003
tp154
a(I3
F1.017
tp155
aa(lp156
(NF0.0
tp157
a(I3
F0.368
tp158
a(I3
F1.0
tp159
aa(lp160
(NF0.0
tp161
a(NF1.016
tp162
aa(lp163
(NF0.0
tp164
aa(lp165
(NF0.0
tp166
a(I3
F0.286
tp167
a(I3
F1.018
tp168
aa(lp169
(NF0.0
tp170
a(I2
F0.035
tp171
a(I2
F1.016
tp172
aa(lp173
(NF0.0
tp174
a(I3
F0.336
tp175
a(I3
F1.018
tp176
aa(lp177
(NF0.0
tp178
a(I2
F0.285
tp179
a(I2
F1.016
tp180
aa(lp181
(NF0.0
tp182
aa(lp183
(NF0.0
tp184
a(I2
F0.318
tp185
a(I2
F1.017
tp186
aa(lp187
(NF0.0
tp188
aa(lp189
(NF0.0
tp190
a(I1
F0.068
tp191
a(I1
F1.017
tp192
aa(lp193
(NF0.0
tp194
aa(lp195
(NF0.0
tp196
a(I1
F0.219
tp197
a(I1
F1.0
tp198
aa(lp199
(NF0.0
tp200
a(I3
F0.003
tp201
a(I3
F1.015
tp202
aa(lp203
(NF0.0
tp204
a(I2
F0.002
tp205
a(I2
F1.018
tp206
aa(lp207
(NF0.0
tp208
a(I3
F0.336
tp209
a(I3
F1.016
tp210
aa(lp211
(NF0.0
tp212
a(I2
F0.202
tp213
a(I2
F1.017
tp214
aa(lp215
(NF0.0
tp216
aa(lp217
(NF0.0
tp218
a(I2
F0.003
tp219
a(I2
F1.016
tp220
aa(lp221
(NF0.0
tp222
a(I2
F0.003
tp223
a(I2
F1.001
tp224
aa(lp225
(NF0.0
tp226
a(I2
F0.168
tp227
a(I2
F1.017
tp228
aa(lp229
(NF0.0
tp230
a(I2
F0.252
tp231
a(I2
F1.0
tp232
aa(lp233
(NF0.0
tp234
a(I3
F0.268
tp235
a(I3
F1.016
tp236
aa(lp237
(NF0.0
tp238
a(I2
F0.003
tp239
a(I2
F1.016
tp240
aa(lp241
(NF0.0
tp242
a(I2
F0.185
tp243
a(I2
F1.016
tp244
aa(lp245
(NF0.0
tp246
a(I2
F0.051
tp247
a(I2
F1.015
tp248
aa(lp249
(NF0.0
tp250
a(I3
F0.003
tp251
a(I3
F1.016
tp252
aa(lp253
(NF0.0
tp254
a(I2
F0.201
tp255
a(I2
F1.016
tp256
aa(lp257
(NF0.0
tp258
a(I3
F0.285
tp259
a(I3
F1.017
tp260
aa(lp261
(NF0.0
tp262
a(I3
F0.003
tp263
a(I3
F1.016
tp264
aa(lp265
(NF0.0
tp266
a(I3
F0.003
tp267
a(I3
F1.017
tp268
aa(lp269
(NF0.0
tp270
a(I3
F0.035
tp271
a(I3
F1.016
tp272
aa(lp273
(NF0.0
tp274
a(I2
F0.003
tp275
a(I2
F1.016
tp276
aa(lp277
(NF0.0
tp278
a(I2
F0.003
tp279
a(I2
F1.001
tp280
aa(lp281
(NF0.0
tp282
a(I3
F0.003
tp283
a(I3
F1.0
tp284
aa(lp285
(NF0.0
tp286
a(I4
F0.003
tp287
a(I4
F1.016
tp288
aasS'run_time'
p289
F180.95368885993958
sS'total_iters'
p290
(lp291
I0
aI1
aI2
aI3
aI4
aI5
aI6
aI7
aI8
aI9
aI10
aI11
aI12
aI13
aI14
aI15
aI16
aI17
aI18
aI19
aI20
aI21
aI22
aI23
aI24
aI25
aI26
aI27
aI28
aI29
aI30
aI31
aI32
aI33
aI34
aI35
aI36
aI37
aI38
aI39
aI40
aI41
aI42
aI43
aI44
aI45
aI46
aI47
aI48
aI49
aI50
aI51
aI52
aI53
aI54
aI55
aI56
aI57
aI58
aI59
as.