(lp0
S'Very boring'
p1
aS'Very tired'
p2
aS''
p3
accopy_reg
_reconstructor
p4
(cfuture.types.newstr
newstr
p5
c__builtin__
unicode
p6
Vright
p7
tp8
Rp9
ag4
(g5
g6
Vlooked at the hair and how much the face filled the space
p10
tp11
Rp12
a.