(dp0
S'images'
p1
(lp2
S'26437491.thl.jpg'
p3
aS'sunarfdklgdnjgeqfjg.jpg'
p4
aS'sunajxpkuhbizeveguy.jpg'
p5
aS'26427609.thl.jpg'
p6
aS'26374767.thl.jpg'
p7
aS'23019499.thl.jpg'
p8
aS'sunagpjzsbltchlwvou.jpg'
p9
aS'sunaletopenvvozhpxc.jpg'
p10
aS'sunaajtnvzzpsjdzres.jpg'
p11
aS'sunagountlxpzkytsmp.jpg'
p12
aS'sunauburywlkjszngcq.jpg'
p13
aS'26423905.thl.jpg'
p14
aS'sunafijbgncijwykrnl.jpg'
p15
aS'sunaajqmsaavkmgbsth.jpg'
p16
aS'26384871.thl.jpg'
p17
aS'22848828.thl.jpg'
p18
aS'26421382.thl.jpg'
p19
aS'sunabllobxadqcyttej.jpg'
p20
aS'sunaprnrbmgkomdbchr.jpg'
p21
aS'sunbdycacjfaujxitbw.jpg'
p22
aS'26429130.thl.jpg'
p23
aS'sunaknlirqjqiwbbeeg.jpg'
p24
aS'23057742.thl.jpg'
p25
aS'22827276.thl.jpg'
p26
aS'sunaawsdjisukbbginm.jpg'
p27
aS'26424133.thl.jpg'
p28
aS'sunadtlxenqqxsyjvix.jpg'
p29
aS'26460317.thl.jpg'
p30
aS'26427910.thl.jpg'
p31
aS'22849260.thl.jpg'
p32
aS'26374135.thl.jpg'
p33
aS'sunalqmfgeadpqsyzpd.jpg'
p34
aS'sunagoufulkpsxrmklt.jpg'
p35
aS'sunafgdqbclkwfocdhg.jpg'
p36
aS'22925624.thl.jpg'
p37
aS'22854108.thl.jpg'
p38
aS'sunalntxqqadigcletd.jpg'
p39
aS'23070064.thl.jpg'
p40
aS'sunaathajvxrgptwhoj.jpg'
p41
aS'26424291.thl.jpg'
p42
asS'ratings'
p43
(lp44
(lp45
(NF0.0
tp46
a(I1
F0.811
tp47
aa(lp48
(NF0.0
tp49
a(I4
F0.931
tp50
aa(lp51
(NF0.0
tp52
a(I3
F0.694
tp53
aa(lp54
(NF0.0
tp55
a(I1
F0.647
tp56
aa(lp57
(NF0.0
tp58
a(I1
F0.696
tp59
aa(lp60
(NF0.0
tp61
a(I2
F0.979
tp62
aa(lp63
(NF0.0
tp64
a(I4
F0.932
tp65
aa(lp66
(NF0.0
tp67
a(I2
F1.212
tp68
aa(lp69
(NF0.0
tp70
a(I4
F0.678
tp71
aa(lp72
(NF0.0
tp73
a(I4
F0.843
tp74
aa(lp75
(NF0.0
tp76
a(I2
F0.98
tp77
aa(lp78
(NF0.0
tp79
a(I3
F0.96
tp80
aa(lp81
(NF0.0
tp82
a(I4
F0.897
tp83
aa(lp84
(NF0.0
tp85
a(I4
F0.946
tp86
aa(lp87
(NF0.0
tp88
a(I1
F0.912
tp89
aa(lp90
(NF0.0
tp91
a(I2
F1.017
tp92
aa(lp93
(NF0.0
tp94
a(I3
F0.93
tp95
aa(lp96
(NF0.0
tp97
a(I4
F0.782
tp98
aa(lp99
(NF0.0
tp100
a(I3
F0.88
tp101
aa(lp102
(NF0.0
tp103
a(I4
F0.745
tp104
aa(lp105
(NF0.0
tp106
a(I4
F1.113
tp107
aa(lp108
(NF0.0
tp109
a(I4
F0.93
tp110
aa(lp111
(NF0.0
tp112
a(I3
F1.047
tp113
aa(lp114
(NF0.0
tp115
a(I4
F0.846
tp116
aa(lp117
(NF0.0
tp118
a(I2
F1.061
tp119
aa(lp120
(NF0.0
tp121
a(I3
F1.146
tp122
aa(lp123
(NF0.0
tp124
a(I2
F1.212
tp125
aa(lp126
(NF0.0
tp127
a(I2
F0.963
tp128
aa(lp129
(NF0.0
tp130
a(I1
F0.947
tp131
aa(lp132
(NF0.0
tp133
a(I3
F1.297
tp134
aa(lp135
(NF0.0
tp136
a(I3
F1.134
tp137
aa(lp138
(NF0.0
tp139
a(I4
F1.014
tp140
aa(lp141
(NF0.0
tp142
a(I3
F1.046
tp143
aa(lp144
(NF0.0
tp145
a(I3
F0.996
tp146
aa(lp147
(NF0.0
tp148
a(I3
F0.925
tp149
aa(lp150
(NF0.0
tp151
a(I2
F1.162
tp152
aa(lp153
(NF0.0
tp154
a(I4
F0.863
tp155
aa(lp156
(NF0.0
tp157
a(I3
F0.963
tp158
aa(lp159
(NF0.0
tp160
a(I4
F0.83
tp161
aa(lp162
(NF0.0
tp163
a(I3
F1.064
tp164
aasS'run_time'
p165
F122.34251403808594
sS'total_iters'
p166
(lp167
I0
aI1
aI2
aI3
aI4
aI5
aI6
aI7
aI8
aI9
aI10
aI11
aI12
aI13
aI14
aI15
aI16
aI17
aI18
aI19
aI20
aI21
aI22
aI23
aI24
aI25
aI26
aI27
aI28
aI29
aI30
aI31
aI32
aI33
aI34
aI35
aI36
aI37
aI38
aI39
as.