(dp0
S'cue_tuples'
p1
(lp2
(S'cue_R'
p3
S'L'
p4
I0
tp5
a(g3
g4
I1
tp6
a(g3
g4
I0
tp7
a(g3
g4
I0
tp8
a(g3
g4
I0
tp9
a(g3
g4
I0
tp10
a(g3
g4
I0
tp11
a(g3
g4
I0
tp12
a(g3
g4
I0
tp13
a(g3
g4
I0
tp14
asS'uncued'
p15
(lp16
S'23051010.thl_sunabtrnbvpppgczjim.jpg'
p17
aS'26428576.thl_sunammbnoambmhdxdwd.jpg'
p18
aS'23024623.thl_sunabmbnddafmywtjjj.jpg'
p19
aS'26451318.thl_sunbtpilbhhbmhmeuzq.jpg'
p20
aS'26427111.thl_sunakgbnzxmfohgehnu.jpg'
p21
aS'26426417.thl_sunajtrfunvzdfticna.jpg'
p22
aS'26419670.thl_sunagpancjmxqfazssf.jpg'
p23
aS'26431471.thl_sunapileznnbbmrwoei.jpg'
p24
aS'26424440.thl_sunaivflshbyfrfzhqb.jpg'
p25
aS'22908308.thl_sunaaylzyqlqrsmfwif.jpg'
p26
asS'cued'
p27
(lp28
S'23029830.thl_sunabrjdpmoedcdjbpo.jpg'
p29
aS'26427950.thl_sunalkiibhqpxfamlll.jpg'
p30
aS'26374709.thl_sunadfndyrtqqiasoig.jpg'
p31
aS'26433686.thl_sunasbbntuiheekqyaq.jpg'
p32
aS'26378986.thl_sunaeoghzrjarigmwua.jpg'
p33
aS'26428753.thl_sunanmoqeyprjjjfxjt.jpg'
p34
aS'26374146.thl_sunadcphrizvfpljiqt.jpg'
p35
aS'26431414.thl_sunaozisvwfbmlkfhzv.jpg'
p36
aS'26424443.thl_sunaiwduelojtwaqeyh.jpg'
p37
aS'26437028.thl_sunavhxgmgrqsaptynb.jpg'
p38
asS'uncued_RT'
p39
(lp40
F0.4139139652252197
asS'cued_RT'
p41
(lp42
F0.3622410297393799
aF0.3117201328277588
aF0.31172609329223633
aF0.32636094093322754
aF0.3967318534851074
aF0.3999049663543701
aF0.31459999084472656
aF0.3772709369659424
aF0.33318090438842773
as.