(dp0
S'cue_tuples'
p1
(lp2
(S'cue_L'
p3
S'F'
p4
I0
tp5
a(g3
g4
I0
tp6
a(g3
g4
I1
tp7
a(g3
g4
I0
tp8
a(g3
g4
I0
tp9
a(g3
g4
I0
tp10
a(g3
g4
I0
tp11
a(g3
g4
I0
tp12
a(g3
g4
I0
tp13
a(g3
g4
I0
tp14
asS'uncued'
p15
(lp16
S'22923068.thl_sunabcfpwlpolnutyju.jpg'
p17
aS'26373068.thl_sunacwggadqsfpovdjv.jpg'
p18
aS'22910936.thl_sunaazezcsunmhttzxz.jpg'
p19
aS'23065398.thl_sunabwmcbaxwioksdgw.jpg'
p20
aS'26391079.thl_sunafxokyavhgptyfye.jpg'
p21
aS'26388148.thl_sunafvcflzhlqloapyo.jpg'
p22
aS'22856256.thl_sunaampvucecsfbdafn.jpg'
p23
aS'26379430.thl_sunaeutbrtswvsozxyk.jpg'
p24
aS'26440073.thl_sunbbgtoeuzierkkajt.jpg'
p25
aS'26379647.thl_sunaezuszgtxnmsxdbk.jpg'
p26
asS'cued'
p27
(lp28
S'26420069.thl_sunagrmyoovzukhxmlo.jpg'
p29
aS'26429137.thl_sunaofikylqtxphvdem.jpg'
p30
aS'26428110.thl_sunamczizlzavhzhpay.jpg'
p31
aS'26378596.thl_sunaenwuebvlpdmntju.jpg'
p32
aS'26383637.thl_sunafbwnojpqeyzssoe.jpg'
p33
aS'26390325.thl_sunafvwfsmqkjrutjta.jpg'
p34
aS'26384554.thl_sunafcofuuzebuadceo.jpg'
p35
aS'22923524.thl_sunabclssnoeuigtawp.jpg'
p36
aS'26465824.thl_sundbixjudsgeuuehrn.jpg'
p37
aS'26375953.thl_sunadzuvtmtmgupotmf.jpg'
p38
asS'uncued_RT'
p39
(lp40
F0.35755395889282227
asS'cued_RT'
p41
(lp42
F0.30168795585632324
aF0.25473594665527344
aF0.2822089195251465
aF0.24996399879455566
aF0.3087470531463623
aF0.29165101051330566
aF0.3233530521392822
aF0.29817914962768555
aF0.2387549877166748
as.