(dp0
S'images'
p1
(lp2
S'23065398.thl.jpg'
p3
aS'sunafcofuuzebuadceo.jpg'
p4
aS'26428110.thl.jpg'
p5
aS'sunaivdylrawbmhryfp.jpg'
p6
aS'sunafhmnhsdurlvddpw.jpg'
p7
aS'26378596.thl.jpg'
p8
aS'22991767.thl.jpg'
p9
aS'sunabcuurugvxwparpk.jpg'
p10
aS'sunafbwnojpqeyzssoe.jpg'
p11
aS'22923068.thl.jpg'
p12
aS'sunabwmcbaxwioksdgw.jpg'
p13
aS'sunabcfpwlpolnutyju.jpg'
p14
aS'26394018.thl.jpg'
p15
aS'sunafvcflzhlqloapyo.jpg'
p16
aS'sunaezuszgtxnmsxdbk.jpg'
p17
aS'26420069.thl.jpg'
p18
aS'22856256.thl.jpg'
p19
aS'26432173.thl.jpg'
p20
aS'26439297.thl.jpg'
p21
aS'sunabctlikybqabezjv.jpg'
p22
aS'22854888.thl.jpg'
p23
aS'22923524.thl.jpg'
p24
aS'sunagrmyoovzukhxmlo.jpg'
p25
aS'sunadqmjrhfjyuzyvdd.jpg'
p26
aS'26379011.thl.jpg'
p27
aS'26421583.thl.jpg'
p28
aS'sunbagfpovqwbuexqdn.jpg'
p29
aS'sunaofikylqtxphvdem.jpg'
p30
aS'sunabrlndkruqokhury.jpg'
p31
aS'sunagcinxkccdtrjmlv.jpg'
p32
aS'26391079.thl.jpg'
p33
aS'sunafvwfsmqkjrutjta.jpg'
p34
aS'26423296.thl.jpg'
p35
aS'26433592.thl.jpg'
p36
aS'sunaakqepfoeqomfgxf.jpg'
p37
aS'23041782.thl.jpg'
p38
aS'sunbbgtoeuzierkkajt.jpg'
p39
aS'26379430.thl.jpg'
p40
aS'26383637.thl.jpg'
p41
aS'sunbvzmgrdvaakxusbu.jpg'
p42
asS'ratings'
p43
(lp44
(lp45
(NF0.0
tp46
a(I3
F0.999
tp47
aa(lp48
(NF0.0
tp49
a(I3
F0.715
tp50
aa(lp51
(NF0.0
tp52
a(I2
F0.811
tp53
aa(lp54
(NF0.0
tp55
a(I3
F0.879
tp56
aa(lp57
(NF0.0
tp58
a(I4
F0.863
tp59
aa(lp60
(NF0.0
tp61
a(I4
F0.83
tp62
aa(lp63
(NF0.0
tp64
a(I1
F0.846
tp65
aa(lp66
(NF0.0
tp67
a(I2
F0.967
tp68
aa(lp69
(NF0.0
tp70
a(I2
F1.196
tp71
aa(lp72
(NF0.0
tp73
a(I1
F0.714
tp74
aa(lp75
(NF0.0
tp76
a(I4
F0.963
tp77
aa(lp78
(NF0.0
tp79
a(I3
F0.961
tp80
aa(lp81
(NF0.0
tp82
a(I4
F0.713
tp83
aa(lp84
(NF0.0
tp85
a(I4
F0.913
tp86
aa(lp87
(NF0.0
tp88
a(I4
F1.03
tp89
aa(lp90
(NF0.0
tp91
a(I3
F1.13
tp92
aa(lp93
(NF0.0
tp94
a(I1
F0.78
tp95
aa(lp96
(NF0.0
tp97
a(I4
F0.83
tp98
aa(lp99
(NF0.0
tp100
a(I4
F0.763
tp101
aa(lp102
(NF0.0
tp103
a(I3
F1.146
tp104
aa(lp105
(NF0.0
tp106
a(I1
F0.647
tp107
aa(lp108
(NF0.0
tp109
a(I2
F0.928
tp110
aa(lp111
(NF0.0
tp112
a(I4
F0.764
tp113
aa(lp114
(NF0.0
tp115
a(I4
F0.845
tp116
aa(lp117
(NF0.0
tp118
a(I3
F1.147
tp119
aa(lp120
(NF0.0
tp121
a(I2
F0.88
tp122
aa(lp123
(NF0.0
tp124
a(I2
F1.064
tp125
aa(lp126
(NF0.0
tp127
a(I3
F1.181
tp128
aa(lp129
(NF0.0
tp130
a(I3
F1.18
tp131
aa(lp132
(NF0.0
tp133
a(I3
F1.33
tp134
aa(lp135
(NF0.0
tp136
a(I4
F0.879
tp137
aa(lp138
(NF0.0
tp139
a(I3
F0.962
tp140
aa(lp141
(NF0.0
tp142
a(I1
F1.064
tp143
aa(lp144
(NF0.0
tp145
a(I1
F0.93
tp146
aa(lp147
(NF0.0
tp148
a(I4
F0.93
tp149
aa(lp150
(NF0.0
tp151
a(I3
F0.949
tp152
aa(lp153
(NF0.0
tp154
a(I3
F1.108
tp155
aa(lp156
(NF0.0
tp157
a(I2
F0.948
tp158
aa(lp159
(NF0.0
tp160
a(I2
F1.146
tp161
aa(lp162
(NF0.0
tp163
a(I3
F1.062
tp164
aasS'run_time'
p165
F122.19379186630249
sS'total_iters'
p166
(lp167
I0
aI1
aI2
aI3
aI4
aI5
aI6
aI7
aI8
aI9
aI10
aI11
aI12
aI13
aI14
aI15
aI16
aI17
aI18
aI19
aI20
aI21
aI22
aI23
aI24
aI25
aI26
aI27
aI28
aI29
aI30
aI31
aI32
aI33
aI34
aI35
aI36
aI37
aI38
aI39
as.