(dp0
S'cue_tuples'
p1
(lp2
(S'cue_R'
p3
S'F'
p4
I0
tp5
a(g3
g4
I0
tp6
a(g3
g4
I0
tp7
a(g3
g4
I0
tp8
a(g3
g4
I0
tp9
a(g3
g4
I0
tp10
a(g3
g4
I1
tp11
a(g3
g4
I0
tp12
a(g3
g4
I0
tp13
a(g3
g4
I0
tp14
asS'uncued'
p15
(lp16
S'26373362.thl_sunacxtcahkymosigud.jpg'
p17
aS'26375611.thl_sunadrmfzmstgdjdcod.jpg'
p18
aS'26369944.thl_sunaccdtpgenvcbcbcf.jpg'
p19
aS'26422216.thl_sunahgtbwgsmtqeodwh.jpg'
p20
aS'26390189.thl_sunafvtpfczkzopbgue.jpg'
p21
aS'26464872.thl_suncnkvbhypnivcohyx.jpg'
p22
aS'26431734.thl_sunapmfmzadmosuogaz.jpg'
p23
aS'26426317.thl_sunajrujcsdxmfbssmc.jpg'
p24
aS'22923440.thl_sunabckqabszusgcykj.jpg'
p25
aS'26377183.thl_sunaeisnjeetzmkbuad.jpg'
p26
asS'cued'
p27
(lp28
S'26420979.thl_sunagtumacdlmciqamz.jpg'
p29
aS'26420830.thl_sunagsiwrmuixqgdimb.jpg'
p30
aS'26440422.thl_sunbbxkanhzjgbwyxqs.jpg'
p31
aS'26369999.thl_sunacdnquypmsshhsbk.jpg'
p32
aS'26421070.thl_sunaguchqqnrtodtezq.jpg'
p33
aS'23070748.thl_sunabxsbfwjccqxxzxq.jpg'
p34
aS'22852032.thl_sunaakjaacuzulqckgl.jpg'
p35
aS'26432148.thl_sunapqwoeotxshkukbh.jpg'
p36
aS'23028486.thl_sunabqowuarvqqcnipn.jpg'
p37
aS'23071000.thl_sunabxsuqbleluwczoy.jpg'
p38
asS'uncued_RT'
p39
(lp40
F0.3653740882873535
asS'cued_RT'
p41
(lp42
F0.3836991786956787
aF0.3077208995819092
aF0.29955101013183594
aF0.34696388244628906
aF0.29654812812805176
aF0.3448491096496582
aF0.3926868438720703
aF0.2927088737487793
aF0.30879688262939453
as.