(dp0
S'cue_tuples'
p1
(lp2
(S'cue_L'
p3
S'L'
p4
I0
tp5
a(g3
g4
I0
tp6
a(g3
g4
I0
tp7
a(g3
g4
I0
tp8
a(g3
g4
I0
tp9
a(g3
g4
I0
tp10
a(g3
g4
I0
tp11
a(g3
g4
I1
tp12
a(g3
g4
I0
tp13
a(g3
g4
I0
tp14
asS'uncued'
p15
(lp16
S'26442809.thl_sunbgzjryivyczuvkvm.jpg'
p17
aS'26421370.thl_sunagvprlbprarvgdvj.jpg'
p18
aS'26424784.thl_sunaixpqndlwhwjtjek.jpg'
p19
aS'26439913.thl_sunbbegcweqnetpdlrh.jpg'
p20
aS'26385058.thl_sunafgzgbisbopcyslr.jpg'
p21
aS'22887480.thl_sunaavtbadenwnzeutj.jpg'
p22
aS'26442719.thl_sunbgklxeqjhdbyfhhy.jpg'
p23
aS'26424478.thl_sunaiwfobocrruqznsv.jpg'
p24
aS'26428545.thl_sunamlotskmmsjeogby.jpg'
p25
aS'22869912.thl_sunaatpkocdkocwxpkb.jpg'
p26
asS'cued'
p27
(lp28
S'22857192.thl_sunaanjcbzdvtvblsdy.jpg'
p29
aS'26423242.thl_sunahqldjibofgsfdgb.jpg'
p30
aS'26441750.thl_sunbfzchmomnvzhbxdg.jpg'
p31
aS'26434233.thl_sunasrjlmglmjzbmqxb.jpg'
p32
aS'26440026.thl_sunbbfqwjpdxniyhies.jpg'
p33
aS'26441591.thl_sunbfyvfqiimvdaxlqn.jpg'
p34
aS'26432899.thl_sunaqyylsngywqzwfmx.jpg'
p35
aS'26379570.thl_sunaeuvjbmdpknaqqaj.jpg'
p36
aS'26282587.thl_sunabzuqsrgcsonqlkz.jpg'
p37
aS'23025307.thl_sunabmytpyhsgigllxu.jpg'
p38
asS'uncued_RT'
p39
(lp40
F0.44048500061035156
asS'cued_RT'
p41
(lp42
F0.2931220531463623
aF0.27678704261779785
aF0.2542259693145752
aF0.28115010261535645
aF0.30558300018310547
aF0.29759907722473145
aF0.2974247932434082
aF0.24981999397277832
aF0.26850295066833496
as.