(dp0
S'images'
p1
(lp2
S'sunaakxgygjfqrzpyoz.jpg'
p3
aS'sunabmytpyhsgigllxu.jpg'
p4
aS'sunafgzgbisbopcyslr.jpg'
p5
aS'26442809.thl.jpg'
p6
aS'22887480.thl.jpg'
p7
aS'sunbbegcweqnetpdlrh.jpg'
p8
aS'sunaakgekhjklxmvulj.jpg'
p9
aS'23007415.thl.jpg'
p10
aS'26432175.thl.jpg'
p11
aS'26440026.thl.jpg'
p12
aS'22866972.thl.jpg'
p13
aS'sunabzjxlmkwnwzimua.jpg'
p14
aS'sunaffstbkappprzxnv.jpg'
p15
aS'26424478.thl.jpg'
p16
aS'sunabasphceswhwwqvv.jpg'
p17
aS'sunabzuqsrgcsonqlkz.jpg'
p18
aS'26423242.thl.jpg'
p19
aS'26434233.thl.jpg'
p20
aS'26376346.thl.jpg'
p21
aS'sunaiwfobocrruqznsv.jpg'
p22
aS'sunaanjcbzdvtvblsdy.jpg'
p23
aS'26282587.thl.jpg'
p24
aS'sunavxokzybtomhbmvm.jpg'
p25
aS'sunagvprlbprarvgdvj.jpg'
p26
aS'22851864.thl.jpg'
p27
aS'sundahdxwmcdluscvot.jpg'
p28
aS'22921112.thl.jpg'
p29
aS'26432899.thl.jpg'
p30
aS'sunbfyvfqiimvdaxlqn.jpg'
p31
aS'sunabjuovqvyfuzvqwt.jpg'
p32
aS'sunarpsxqkduedrrzyi.jpg'
p33
aS'26428545.thl.jpg'
p34
aS'26374605.thl.jpg'
p35
aS'22949719.thl.jpg'
p36
aS'26424087.thl.jpg'
p37
aS'26421368.thl.jpg'
p38
aS'22869912.thl.jpg'
p39
aS'sunagvxkjokqimstxpe.jpg'
p40
aS'sunbbfqwjpdxniyhies.jpg'
p41
aS'sunbgklxeqjhdbyfhhy.jpg'
p42
asS'ratings'
p43
(lp44
(lp45
(NF0.0
tp46
a(I4
F1.514
tp47
aa(lp48
(NF0.0
tp49
a(I3
F0.962
tp50
aa(lp51
(NF0.0
tp52
a(I2
F0.978
tp53
aa(lp54
(NF0.0
tp55
a(I4
F0.713
tp56
aa(lp57
(NF0.0
tp58
a(I1
F0.947
tp59
aa(lp60
(NF0.0
tp61
a(I2
F1.184
tp62
aa(lp63
(NF0.0
tp64
a(I3
F1.195
tp65
aa(lp66
(NF0.0
tp67
a(I1
F1.147
tp68
aa(lp69
(NF0.0
tp70
a(I4
F1.029
tp71
aa(lp72
(NF0.0
tp73
a(I2
F1.147
tp74
aa(lp75
(NF0.0
tp76
a(I2
F1.346
tp77
aa(lp78
(NF0.0
tp79
a(I3
F1.37
tp80
aa(lp81
(NF0.0
tp82
a(I3
F1.064
tp83
aa(lp84
(NF0.0
tp85
a(I1
F1.179
tp86
aa(lp87
(NF0.0
tp88
a(I4
F1.318
tp89
aa(lp90
(NF0.0
tp91
a(I3
F1.181
tp92
aa(lp93
(NF0.0
tp94
a(I1
F1.18
tp95
aa(lp96
(NF0.0
tp97
a(I2
F1.43
tp98
aa(lp99
(NF0.0
tp100
a(I1
F0.913
tp101
aa(lp102
(NF0.0
tp103
a(I2
F1.197
tp104
aa(lp105
(NF0.0
tp106
a(I4
F0.88
tp107
aa(lp108
(NF0.0
tp109
a(I3
F1.482
tp110
aa(lp111
(NF0.0
tp112
a(I4
F0.896
tp113
aa(lp114
(NF0.0
tp115
a(I4
F1.211
tp116
aa(lp117
(NF0.0
tp118
a(I4
F0.894
tp119
aa(lp120
(NF0.0
tp121
a(I4
F1.146
tp122
aa(lp123
(NF0.0
tp124
a(I1
F0.846
tp125
aa(lp126
(NF0.0
tp127
a(I3
F0.864
tp128
aa(lp129
(NF0.0
tp130
a(I3
F1.062
tp131
aa(lp132
(NF0.0
tp133
a(I4
F0.963
tp134
aa(lp135
(NF0.0
tp136
a(I4
F1.48
tp137
aa(lp138
(NF0.0
tp139
a(I1
F0.797
tp140
aa(lp141
(NF0.0
tp142
a(I2
F1.497
tp143
aa(lp144
(NF0.0
tp145
a(I3
F0.996
tp146
aa(lp147
(NF0.0
tp148
a(I2
F1.446
tp149
aa(lp150
(NF0.0
tp151
a(I3
F1.163
tp152
aa(lp153
(NF0.0
tp154
a(I4
F0.83
tp155
aa(lp156
(NF0.0
tp157
a(I3
F1.148
tp158
aa(lp159
(NF0.0
tp160
a(I3
F0.877
tp161
aa(lp162
(NF0.0
tp163
a(I4
F1.248
tp164
aasS'run_time'
p165
F122.2425308227539
sS'total_iters'
p166
(lp167
I0
aI1
aI2
aI3
aI4
aI5
aI6
aI7
aI8
aI9
aI10
aI11
aI12
aI13
aI14
aI15
aI16
aI17
aI18
aI19
aI20
aI21
aI22
aI23
aI24
aI25
aI26
aI27
aI28
aI29
aI30
aI31
aI32
aI33
aI34
aI35
aI36
aI37
aI38
aI39
as.