(lp0
S'Neutral'
p1
aS'A little tired'
p2
accopy_reg
_reconstructor
p3
(cfuture.types.newstr
newstr
p4
c__builtin__
unicode
p5
VThe landscapes. They were easier to remember because they had distinctive features I could associate with places I had seen in real life
p6
tp7
Rp8
ag3
(g4
g5
Vyes, the right
p9
tp10
Rp11
ag3
(g4
g5
VI connected the landscapes with places I had seen in real life. I was unable to come up with a good strategy to remember the faces.
p12
tp13
Rp14
a.