(lp0
S'A little boring'
p1
aS'Very tired'
p2
accopy_reg
_reconstructor
p3
(cfuture.types.newstr
newstr
p4
c__builtin__
unicode
p5
Vfaces, not sure why
p6
tp7
Rp8
ag3
(g4
g5
Vmaybe right
p9
tp10
Rp11
ag3
(g4
g5
Vnaming the picture in my head, for example "laundry" or "bangs"
p12
tp13
Rp14
a.