(lp0
S'Neutral'
p1
aS'Very tired'
p2
accopy_reg
_reconstructor
p3
(cfuture.types.newstr
newstr
p4
c__builtin__
unicode
p5
VYes, the scenes because thye were eaier for me to make out initaly. 
p6
tp7
Rp8
ag3
(g4
g5
Vno
p9
tp10
Rp11
ag3
(g4
g5
Vrepeating what it was in my head
p12
tp13
Rp14
a.