(dp0
S'images'
p1
(lp2
S'sunabwjvmoaddlyxfjr.jpg'
p3
aS'sunalkiibhqpxfamlll.jpg'
p4
aS'00922960627fa.jpg'
p5
aS'00221940128fa.jpg'
p6
aS'sunafhmnhsdurlvddpw.jpg'
p7
aS'00791941205fa.jpg'
p8
aS'sunabppokiyglaxpcha.jpg'
p9
aS'00895960530fa.jpg'
p10
aS'sunaanlwnpqndclffxt.jpg'
p11
aS'00576941031fa.jpg'
p12
aS'00133931230fa.jpg'
p13
aS'00968960627fa.jpg'
p14
aS'sunacvjlsylseoghjup.jpg'
p15
aS'sunahwgbqkqcrwprgvh.jpg'
p16
aS'sunagwzdbtlixdhgolm.jpg'
p17
aS'sunacuatpqpqhyjhjqk.jpg'
p18
aS'sunafvcflzhlqloapyo.jpg'
p19
aS'00891960530fa.jpg'
p20
aS'sunaalcrrdbjgdztbiz.jpg'
p21
aS'sunamczizlzavhzhpay.jpg'
p22
aS'sunbagfpovqwbuexqdn.jpg'
p23
aS'00073931230fa.jpg'
p24
aS'00162931230fb.jpg'
p25
aS'sunapqkyghktgtosuuk.jpg'
p26
aS'00805941205fa.jpg'
p27
aS'00913960530fa.jpg'
p28
aS'sunaezuszgtxnmsxdbk.jpg'
p29
aS'00762941201fa.jpg'
p30
aS'sunajwqkfsykceonyig.jpg'
p31
aS'00280940422fb.jpg'
p32
aS'00719941201fa.jpg'
p33
aS'sunafcofuuzebuadceo.jpg'
p34
aS'00967960627fa.jpg'
p35
aS'sunahctntqrunhdxhtb.jpg'
p36
aS'sunaivdjruhkrfywfed.jpg'
p37
aS'sunadikxpvqeabxrvvc.jpg'
p38
aS'00609940928fa.jpg'
p39
aS'sunarfdklgdnjgeqfjg.jpg'
p40
aS'sunbloeoiozwjjsiamp.jpg'
p41
aS'00977960627fa.jpg'
p42
asS'ratings'
p43
(lp44
(lp45
(NF0.0
tp46
a(I2
F1.882
tp47
aa(lp48
(NF0.0
tp49
a(I4
F1.678
tp50
aa(lp51
(NF0.0
tp52
a(I1
F1.706
tp53
aa(lp54
(NF0.0
tp55
a(I3
F1.677
tp56
aa(lp57
(NF0.0
tp58
a(I4
F1.573
tp59
aa(lp60
(NF0.0
tp61
aa(lp62
(NF0.0
tp63
aa(lp64
(NF0.0
tp65
a(I2
F1.675
tp66
aa(lp67
(NF0.0
tp68
a(I3
F1.604
tp69
aa(lp70
(NF0.0
tp71
a(I2
F1.473
tp72
aa(lp73
(NF0.0
tp74
a(I1
F1.382
tp75
aa(lp76
(NF0.0
tp77
aa(lp78
(NF0.0
tp79
a(I4
F1.543
tp80
aa(lp81
(NF0.0
tp82
a(I3
F1.56
tp83
aa(lp84
(NF0.0
tp85
a(I4
F1.155
tp86
aa(lp87
(NF0.0
tp88
a(I2
F1.626
tp89
aa(lp90
(NF0.0
tp91
a(I4
F1.009
tp92
aa(lp93
(NF0.0
tp94
a(I2
F1.222
tp95
aa(lp96
(NF0.0
tp97
a(I1
F1.793
tp98
aa(lp99
(NF0.0
tp100
a(I2
F1.888
tp101
aa(lp102
(NF0.0
tp103
a(I4
F1.174
tp104
aa(lp105
(NF0.0
tp106
a(I3
F1.538
tp107
aa(lp108
(NF0.0
tp109
aa(lp110
(NF0.0
tp111
a(I2
F1.275
tp112
aa(lp113
(NF0.0
tp114
a(I3
F1.155
tp115
aa(lp116
(NF0.0
tp117
a(I2
F1.293
tp118
aa(lp119
(NF0.0
tp120
a(I2
F1.479
tp121
aa(lp122
(NF0.0
tp123
a(I2
F0.836
tp124
aa(lp125
(NF0.0
tp126
a(I3
F1.183
tp127
aa(lp128
(NF0.0
tp129
a(I1
F1.6
tp130
aa(lp131
(NF0.0
tp132
aa(lp133
(NF0.0
tp134
a(I2
F1.427
tp135
aa(lp136
(NF0.0
tp137
a(I3
F1.408
tp138
aa(lp139
(NF0.0
tp140
a(I2
F1.586
tp141
aa(lp142
(NF0.0
tp143
a(I4
F1.628
tp144
aa(lp145
(NF0.0
tp146
aa(lp147
(NF0.0
tp148
a(I3
F1.575
tp149
aa(lp150
(NF0.0
tp151
a(I2
F0.926
tp152
aa(lp153
(NF0.0
tp154
a(I4
F1.176
tp155
aa(lp156
(NF0.0
tp157
a(I3
F0.828
tp158
aasS'run_time'
p159
F122.47740507125854
sS'total_iters'
p160
(lp161
I0
aI1
aI2
aI3
aI4
aI5
aI6
aI7
aI8
aI9
aI10
aI11
aI12
aI13
aI14
aI15
aI16
aI17
aI18
aI19
aI20
aI21
aI22
aI23
aI24
aI25
aI26
aI27
aI28
aI29
aI30
aI31
aI32
aI33
aI34
aI35
aI36
aI37
aI38
aI39
as.