(dp0
S'images'
p1
(lp2
S'sunadfndyrtqqiasoig.jpg'
p3
aS'00878960530fa.jpg'
p4
aS'sunabueyoajufbkraki.jpg'
p5
aS'00986960627fa.jpg'
p6
aS'00554940519fa.jpg'
p7
aS'00262940128fa.jpg'
p8
aS'00568940928fa.jpg'
p9
aS'sunbprywzqxjcezkbch.jpg'
p10
aS'00993960627fa.jpg'
p11
aS'sunaakxgygjfqrzpyoz.jpg'
p12
aS'00783941205fa.jpg'
p13
aS'sunadrmfzmstgdjdcod.jpg'
p14
aS'sunbasypfgzjtomktmu.jpg'
p15
aS'sunabrlndkruqokhury.jpg'
p16
aS'00970960627fa.jpg'
p17
aS'sunaauglwmctnkxyird.jpg'
p18
aS'00794960620fa.jpg'
p19
aS'sunbgzjryivyczuvkvm.jpg'
p20
aS'sunarpsxqkduedrrzyi.jpg'
p21
aS'00211940128fa.jpg'
p22
aS'00943960627fa.jpg'
p23
aS'sunacfdkbsrughwqwtt.jpg'
p24
aS'sunagfvluwixdsozaql.jpg'
p25
aS'00751960620fa.jpg'
p26
aS'00694941121fa.jpg'
p27
aS'sunarceibpcyacbmfga.jpg'
p28
aS'00648941031fa.jpg'
p29
aS'sunaavchcbptaerhcfy.jpg'
p30
aS'sunaatjesvdupctftmn.jpg'
p31
aS'00093931230fa.jpg'
p32
aS'00076931230fa.jpg'
p33
aS'00933960627fa.jpg'
p34
aS'sunaiwfobocrruqznsv.jpg'
p35
aS'sunacxtcahkymosigud.jpg'
p36
aS'sunbaejotfklekvpxcz.jpg'
p37
aS'00746941201fa.jpg'
p38
aS'00305940422fa.jpg'
p39
aS'sunaqyylsngywqzwfmx.jpg'
p40
aS'sunaapxkpvrhpjplsok.jpg'
p41
aS'00784941205fb.jpg'
p42
asS'ratings'
p43
(lp44
(lp45
(NF0.0
tp46
aa(lp47
(NF0.0
tp48
a(I3
F1.326
tp49
aa(lp50
(NF0.0
tp51
a(I1
F1.427
tp52
aa(lp53
(NF0.0
tp54
a(I4
F1.372
tp55
aa(lp56
(NF0.0
tp57
a(I2
F1.273
tp58
aa(lp59
(NF0.0
tp60
a(I2
F1.275
tp61
aa(lp62
(NF0.0
tp63
a(I2
F1.172
tp64
aa(lp65
(NF0.0
tp66
a(I4
F1.476
tp67
aa(lp68
(NF0.0
tp69
a(I3
F1.29
tp70
aa(lp71
(NF0.0
tp72
a(I3
F1.024
tp73
aa(lp74
(NF0.0
tp75
a(I2
F1.475
tp76
aa(lp77
(NF0.0
tp78
a(I3
F1.307
tp79
aa(lp80
(NF0.0
tp81
a(I1
F1.555
tp82
aa(lp83
(NF0.0
tp84
a(I1
F1.149
tp85
aa(lp86
(NF0.0
tp87
a(I2
F1.293
tp88
aa(lp89
(NF0.0
tp90
a(I4
F1.442
tp91
aa(lp92
(NF0.0
tp93
a(I3
F1.075
tp94
aa(lp95
(NF0.0
tp96
a(I4
F0.959
tp97
aa(lp98
(NF0.0
tp99
a(I4
F1.527
tp100
aa(lp101
(NF0.0
tp102
aa(lp103
(NF0.0
tp104
a(I2
F1.206
tp105
aa(lp106
(NF0.0
tp107
a(I1
F1.638
tp108
aa(lp109
(NF0.0
tp110
a(I2
F1.573
tp111
aa(lp112
(NF0.0
tp113
a(I2
F0.869
tp114
aa(lp115
(NF0.0
tp116
a(I2
F1.088
tp117
aa(lp118
(NF0.0
tp119
a(I3
F1.239
tp120
aa(lp121
(NF0.0
tp122
a(I1
F1.923
tp123
aa(lp124
(NF0.0
tp125
a(I3
F1.29
tp126
aa(lp127
(NF0.0
tp128
a(I3
F0.956
tp129
aa(lp130
(NF0.0
tp131
a(I1
F1.676
tp132
aa(lp133
(NF0.0
tp134
aa(lp135
(NF0.0
tp136
a(I1
F1.203
tp137
aa(lp138
(NF0.0
tp139
a(I3
F1.256
tp140
aa(lp141
(NF0.0
tp142
a(I4
F1.161
tp143
aa(lp144
(NF0.0
tp145
a(I2
F1.157
tp146
aa(lp147
(NF0.0
tp148
a(I2
F1.308
tp149
aa(lp150
(NF0.0
tp151
a(I2
F0.937
tp152
aa(lp153
(NF0.0
tp154
a(I2
F1.236
tp155
aa(lp156
(NF0.0
tp157
a(I3
F1.644
tp158
aa(lp159
(NF0.0
tp160
a(I3
F1.325
tp161
aasS'run_time'
p162
F122.62602496147156
sS'total_iters'
p163
(lp164
I0
aI1
aI2
aI3
aI4
aI5
aI6
aI7
aI8
aI9
aI10
aI11
aI12
aI13
aI14
aI15
aI16
aI17
aI18
aI19
aI20
aI21
aI22
aI23
aI24
aI25
aI26
aI27
aI28
aI29
aI30
aI31
aI32
aI33
aI34
aI35
aI36
aI37
aI38
aI39
as.