(dp0
S'cue_tuples'
p1
(lp2
(S'cue_L'
p3
S'L'
p4
I0
tp5
a(g3
g4
I0
tp6
a(g3
g4
I1
tp7
a(g3
g4
I0
tp8
a(g3
g4
I0
tp9
a(g3
g4
I1
tp10
a(g3
g4
I0
tp11
a(g3
g4
I0
tp12
a(g3
g4
I0
tp13
a(g3
g4
I0
tp14
asS'uncued'
p15
(lp16
S'00970960627fa_sunbasypfgzjtomktmu.jpg'
p17
aS'00306940422fa_sunabueyoajufbkraki.jpg'
p18
aS'00568940928fa_sunacsdhbbsybcyxnel.jpg'
p19
aS'00993960627fa_sunbprywzqxjcezkbch.jpg'
p20
aS'00783941205fa_sunagjeesomrwjsfqie.jpg'
p21
aS'00554940519fa_sunacfdkbsrughwqwtt.jpg'
p22
aS'00955960627fb_sunauburywlkjszngcq.jpg'
p23
aS'00777941205fa_sunagcinxkccdtrjmlv.jpg'
p24
aS'00782941205fa_sunagfvluwixdsozaql.jpg'
p25
aS'00988960627fa_sunbmaiocftdtvnzgap.jpg'
p26
asS'cued'
p27
(lp28
S'00149931230fa_sunaauglwmctnkxyird.jpg'
p29
aS'00794960620fa_sunagtqhhwxjeuxdebe.jpg'
p30
aS'00694941121fa_sunadrmfzmstgdjdcod.jpg'
p31
aS'00973960627fa_sunbbgtoeuzierkkajt.jpg'
p32
aS'00986960627fa_sunbgzjryivyczuvkvm.jpg'
p33
aS'00120931230fa_sunaakxgygjfqrzpyoz.jpg'
p34
aS'00796941205fa_sunaguchqqnrtodtezq.jpg'
p35
aS'00648941031fa_sunadfndyrtqqiasoig.jpg'
p36
aS'00211940128fa_sunabasphceswhwwqvv.jpg'
p37
aS'00971960627fa_sunbbegcweqnetpdlrh.jpg'
p38
asS'uncued_RT'
p39
(lp40
F0.5102200508117676
aF0.5841810703277588
aF0.7169890403747559
aF0.46706700325012207
aF0.3992030620574951
aF0.5180730819702148
aF0.3256242275238037
aF0.4851360321044922
aF0.595221996307373
aF0.3488130569458008
asS'cued_RT'
p41
(lp42
s.