(dp0
S'images'
p1
(lp2
S'00263940128fb.jpg'
p3
aS'00787960620fa.jpg'
p4
aS'sunaletopenvvozhpxc.jpg'
p5
aS'sunasmmcxdddtmtazwx.jpg'
p6
aS'sunbddbivbptlrlauhy.jpg'
p7
aS'sunaknlirqjqiwbbeeg.jpg'
p8
aS'sunabkngeblodihjvbk.jpg'
p9
aS'sunaaelotvjgibjtjhs.jpg'
p10
aS'sunagvprlbprarvgdvj.jpg'
p11
aS'00681941121fa.jpg'
p12
aS'00101931230fb.jpg'
p13
aS'00822940307fa.jpg'
p14
aS'00969960627fa.jpg'
p15
aS'sunahmhrncocyhsjpxk.jpg'
p16
aS'sunaajqmsaavkmgbsth.jpg'
p17
aS'00070940307fa.jpg'
p18
aS'00816941205fa.jpg'
p19
aS'00266940128fb.jpg'
p20
aS'00482940519fa.jpg'
p21
aS'00835940307fa.jpg'
p22
aS'00507940519fa.jpg'
p23
aS'00771941205fa.jpg'
p24
aS'00750941201fa.jpg'
p25
aS'sunabclssnoeuigtawp.jpg'
p26
aS'sunaygrtwrwfezqjizr.jpg'
p27
aS'sunbaoizrfijvhpnnjn.jpg'
p28
aS'00901960530fa.jpg'
p29
aS'sunabjzyxcjnmztdonj.jpg'
p30
aS'sunacwggadqsfpovdjv.jpg'
p31
aS'00557940519fa.jpg'
p32
aS'00795941205fa.jpg'
p33
aS'00786941205fa.jpg'
p34
aS'01207940128fa.jpg'
p35
aS'00768941205fa.jpg'
p36
aS'sunabyfxcxhdebvdyfd.jpg'
p37
aS'00065931230fb.jpg'
p38
aS'00869940307fa.jpg'
p39
aS'00631940928fa.jpg'
p40
aS'00630940928fa.jpg'
p41
aS'sunadkazmlajmohnwfl.jpg'
p42
asS'ratings'
p43
(lp44
(lp45
(NF0.0
tp46
a(I2
F1.374
tp47
aa(lp48
(NF0.0
tp49
a(I3
F1.242
tp50
aa(lp51
(NF0.0
tp52
aa(lp53
(NF0.0
tp54
a(I1
F1.67
tp55
aa(lp56
(NF0.0
tp57
a(I3
F1.308
tp58
aa(lp59
(NF0.0
tp60
a(I3
F0.992
tp61
aa(lp62
(NF0.0
tp63
a(I3
F1.075
tp64
aa(lp65
(NF0.0
tp66
a(I3
F1.21
tp67
aa(lp68
(NF0.0
tp69
a(I4
F1.227
tp70
aa(lp71
(NF0.0
tp72
a(I2
F1.39
tp73
aa(lp74
(NF0.0
tp75
a(I3
F1.075
tp76
aa(lp77
(NF0.0
tp78
a(I4
F1.423
tp79
aa(lp80
(NF0.0
tp81
a(I4
F1.327
tp82
aa(lp83
(NF0.0
tp84
a(I2
F1.625
tp85
aa(lp86
(NF0.0
tp87
a(I1
F1.975
tp88
aa(lp89
(NF0.0
tp90
a(I1
F1.343
tp91
aa(lp92
(NF0.0
tp93
a(I2
F1.508
tp94
aa(lp95
(NF0.0
tp96
a(I2
F1.072
tp97
aa(lp98
(NF0.0
tp99
a(I2
F0.693
tp100
aa(lp101
(NF0.0
tp102
a(I2
F1.476
tp103
aa(lp104
(NF0.0
tp105
a(I3
F1.472
tp106
aa(lp107
(NF0.0
tp108
a(I2
F1.242
tp109
aa(lp110
(NF0.0
tp111
a(I2
F1.975
tp112
aa(lp113
(NF0.0
tp114
a(I3
F1.144
tp115
aa(lp116
(NF0.0
tp117
a(I3
F0.988
tp118
aa(lp119
(NF0.0
tp120
a(I3
F0.941
tp121
aa(lp122
(NF0.0
tp123
a(I2
F0.953
tp124
aa(lp125
(NF0.0
tp126
a(I1
F1.477
tp127
aa(lp128
(NF0.0
tp129
a(I1
F0.944
tp130
aa(lp131
(NF0.0
tp132
a(I1
F1.251
tp133
aa(lp134
(NF0.0
tp135
a(I1
F1.778
tp136
aa(lp137
(NF0.0
tp138
a(I1
F1.272
tp139
aa(lp140
(NF0.0
tp141
a(I3
F1.342
tp142
aa(lp143
(NF0.0
tp144
a(I2
F1.223
tp145
aa(lp146
(NF0.0
tp147
a(I3
F1.142
tp148
aa(lp149
(NF0.0
tp150
a(I4
F0.859
tp151
aa(lp152
(NF0.0
tp153
a(I3
F1.626
tp154
aa(lp155
(NF0.0
tp156
a(I2
F0.929
tp157
aa(lp158
(NF0.0
tp159
a(I3
F1.176
tp160
aa(lp161
(NF0.0
tp162
a(I3
F1.874
tp163
aasS'run_time'
p164
F122.49309778213501
sS'total_iters'
p165
(lp166
I0
aI1
aI2
aI3
aI4
aI5
aI6
aI7
aI8
aI9
aI10
aI11
aI12
aI13
aI14
aI15
aI16
aI17
aI18
aI19
aI20
aI21
aI22
aI23
aI24
aI25
aI26
aI27
aI28
aI29
aI30
aI31
aI32
aI33
aI34
aI35
aI36
aI37
aI38
aI39
as.