(dp0
S'cue_tuples'
p1
(lp2
(S'cue_L'
p3
S'F'
p4
I0
tp5
a(g3
g4
I0
tp6
a(g3
g4
I1
tp7
a(g3
g4
I0
tp8
a(g3
g4
I0
tp9
a(g3
g4
I0
tp10
a(g3
g4
I0
tp11
a(g3
g4
I0
tp12
a(g3
g4
I0
tp13
a(g3
g4
I0
tp14
asS'uncued'
p15
(lp16
S'00062931230fb_sunaaelotvjgibjtjhs.jpg'
p17
aS'00921960627fa_sunapqkpqdfvxlbqwyo.jpg'
p18
aS'00681941121fa_sunadqmjrhfjyuzyvdd.jpg'
p19
aS'00266940128fb_sunabkngeblodihjvbk.jpg'
p20
aS'00069931230fb_sunaaeowapdkwzqpgqr.jpg'
p21
aS'00070940307fa_sunaaeplwsfslcbtojr.jpg'
p22
aS'00947960627fa_sunasmmcxdddtmtazwx.jpg'
p23
aS'00835940307fa_sunaijsqpvodplbwxkf.jpg'
p24
aS'00978960627fa_sunbddbivbptlrlauhy.jpg'
p25
aS'00816941205fa_sunahmhrncocyhsjpxk.jpg'
p26
asS'cued'
p27
(lp28
S'00822940307fa_sunahqrxievfeusiqlt.jpg'
p29
aS'00101931230fb_sunaajqmsaavkmgbsth.jpg'
p30
aS'00752960620fa_sunafbwnojpqeyzssoe.jpg'
p31
aS'00969960627fa_sunbaoizrfijvhpnnjn.jpg'
p32
aS'00779941205fa_sunagdzlvkqtpnfxfcg.jpg'
p33
aS'00235940128fb_sunabclssnoeuigtawp.jpg'
p34
aS'00801941205fa_sunagvprlbprarvgdvj.jpg'
p35
aS'00966960627fa_sunaygrtwrwfezqjizr.jpg'
p36
aS'00263940128fb_sunabjuovqvyfuzvqwt.jpg'
p37
aS'00787960620fa_sunagoufulkpsxrmklt.jpg'
p38
asS'uncued_RT'
p39
(lp40
F0.7213690280914307
aF0.6305861473083496
aF0.6211769580841064
aF0.4491770267486572
aF0.5023629665374756
aF0.4333059787750244
aF0.5802521705627441
aF0.3986470699310303
aF0.35395288467407227
aF0.4471168518066406
asS'cued_RT'
p41
(lp42
s.