(dp0
S'images'
p1
(lp2
S'sunalcrtwiycqobgelp.jpg'
p3
aS'sunaaylzyqlqrsmfwif.jpg'
p4
aS'00880960530fa.jpg'
p5
aS'sunahqldjibofgsfdgb.jpg'
p6
aS'00663941121fa.jpg'
p7
aS'sunakodkcslgqhqlgwl.jpg'
p8
aS'sunajjxttslobudoqbv.jpg'
p9
aS'sunaakxjfbrrequcjmx.jpg'
p10
aS'sunafxokyavhgptyfye.jpg'
p11
aS'sunaajtnvzzpsjdzres.jpg'
p12
aS'00581940928fa.jpg'
p13
aS'00776941205fa.jpg'
p14
aS'sunagetqixeypsysbpn.jpg'
p15
aS'00184940128fa.jpg'
p16
aS'00260940128fa.jpg'
p17
aS'00780960530fa.jpg'
p18
aS'00095931230fa.jpg'
p19
aS'sunaakvmbftkrgqhjun.jpg'
p20
aS'sunadnjjzohjhbohlwq.jpg'
p21
aS'00942960627fa.jpg'
p22
aS'00963960627fa.jpg'
p23
aS'00077931230fb.jpg'
p24
aS'sunabllobxadqcyttej.jpg'
p25
aS'00108960530fa.jpg'
p26
aS'00908960530fa.jpg'
p27
aS'00949960627fb.jpg'
p28
aS'00860940307fa.jpg'
p29
aS'00887960530.jpg'
p30
aS'00789960620fa.jpg'
p31
aS'00847940307fa.jpg'
p32
aS'00938960627fa.jpg'
p33
aS'sunaazzyhbvqjpmazjq.jpg'
p34
aS'00979960627fa.jpg'
p35
aS'00302940422fa.jpg'
p36
aS'00909960530.jpg'
p37
aS'sunadtlxenqqxsyjvix.jpg'
p38
aS'00676941121fa.jpg'
p39
aS'00926960627Fa.jpg'
p40
aS'sunavspxmxubqaeidjt.jpg'
p41
aS'sunaedtgwjvvziytspa.jpg'
p42
asS'ratings'
p43
(lp44
(lp45
(NF0.0
tp46
a(I3
F1.556
tp47
aa(lp48
(NF0.0
tp49
a(I2
F1.244
tp50
aa(lp51
(NF0.0
tp52
a(I2
F1.912
tp53
aa(lp54
(NF0.0
tp55
a(I3
F1.206
tp56
aa(lp57
(NF0.0
tp58
a(I2
F1.29
tp59
aa(lp60
(NF0.0
tp61
a(I4
F1.141
tp62
aa(lp63
(NF0.0
tp64
a(I3
F1.245
tp65
aa(lp66
(NF0.0
tp67
a(I1
F1.309
tp68
aa(lp69
(NF0.0
tp70
a(I4
F1.208
tp71
aa(lp72
(NF0.0
tp73
a(I3
F1.26
tp74
aa(lp75
(NF0.0
tp76
a(I2
F1.918
tp77
aa(lp78
(NF0.0
tp79
a(I4
F1.375
tp80
aa(lp81
(NF0.0
tp82
a(I2
F1.476
tp83
aa(lp84
(NF0.0
tp85
a(I2
F1.412
tp86
aa(lp87
(NF0.0
tp88
a(I2
F1.092
tp89
aa(lp90
(NF0.0
tp91
a(I2
F1.059
tp92
aa(lp93
(NF0.0
tp94
a(I4
F1.27
tp95
aa(lp96
(NF0.0
tp97
a(I3
F1.463
tp98
aa(lp99
(NF0.0
tp100
a(I4
F1.171
tp101
aa(lp102
(NF0.0
tp103
a(I2
F1.175
tp104
aa(lp105
(NF0.0
tp106
a(I2
F1.342
tp107
aa(lp108
(NF0.0
tp109
a(I3
F1.192
tp110
aa(lp111
(NF0.0
tp112
a(I3
F1.458
tp113
aa(lp114
(NF0.0
tp115
a(I2
F1.342
tp116
aa(lp117
(NF0.0
tp118
a(I1
F1.237
tp119
aa(lp120
(NF0.0
tp121
a(I1
F1.508
tp122
aa(lp123
(NF0.0
tp124
a(I4
F1.423
tp125
aa(lp126
(NF0.0
tp127
a(I1
F1.658
tp128
aa(lp129
(NF0.0
tp130
a(I1
F0.971
tp131
aa(lp132
(NF0.0
tp133
a(I1
F1.657
tp134
aa(lp135
(NF0.0
tp136
a(I1
F1.024
tp137
aa(lp138
(NF0.0
tp139
a(I2
F1.691
tp140
aa(lp141
(NF0.0
tp142
a(I1
F0.959
tp143
aa(lp144
(NF0.0
tp145
a(I1
F0.971
tp146
aa(lp147
(NF0.0
tp148
a(I1
F0.957
tp149
aa(lp150
(NF0.0
tp151
a(I1
F1.512
tp152
aa(lp153
(NF0.0
tp154
a(I2
F1.47
tp155
aa(lp156
(NF0.0
tp157
a(I2
F1.392
tp158
aa(lp159
(NF0.0
tp160
a(I3
F1.813
tp161
aa(lp162
(NF0.0
tp163
a(I2
F1.108
tp164
aasS'run_time'
p165
F122.39407110214233
sS'total_iters'
p166
(lp167
I0
aI1
aI2
aI3
aI4
aI5
aI6
aI7
aI8
aI9
aI10
aI11
aI12
aI13
aI14
aI15
aI16
aI17
aI18
aI19
aI20
aI21
aI22
aI23
aI24
aI25
aI26
aI27
aI28
aI29
aI30
aI31
aI32
aI33
aI34
aI35
aI36
aI37
aI38
aI39
as.