(dp0
S'cue_tuples'
p1
(lp2
(S'cue_L'
p3
S'F'
p4
I0
tp5
a(g3
g4
I0
tp6
a(g3
g4
I0
tp7
a(g3
g4
I0
tp8
a(g3
g4
I0
tp9
a(g3
g4
I0
tp10
a(g3
g4
I0
tp11
a(g3
g4
I0
tp12
a(g3
g4
I0
tp13
a(g3
g4
I0
tp14
asS'uncued'
p15
(lp16
S'00868960307fa_sunajjxttslobudoqbv.jpg'
p17
aS'00108960530fa_sunaajtnvzzpsjdzres.jpg'
p18
aS'00077931230fb_sunaafgqutfaishsxyu.jpg'
p19
aS'00949960627fb_sunasnqkkyhilqkxiqm.jpg'
p20
aS'00884960530fa_sunakodkcslgqhqlgwl.jpg'
p21
aS'00184940128fa_sunaavtbadenwnzeutj.jpg'
p22
aS'00136931230fb_sunaanptmsknhirrzed.jpg'
p23
aS'00197940128fa_sunaaylzyqlqrsmfwif.jpg'
p24
aS'00887960530_sunalcrtwiycqobgelp.jpg'
p25
aS'00193940928fa_sunaaxjpzcnxligjtjq.jpg'
p26
asS'cued'
p27
(lp28
S'00937960627fa_sunaqsolmfydodnakub.jpg'
p29
aS'00122931230fa_sunaakxjfbrrequcjmx.jpg'
p30
aS'00095931230fa_sunaahzooisqkwlxwoz.jpg'
p31
aS'00792941205fa_sunagsiwrmuixqgdimb.jpg'
p32
aS'00663941121fa_sunadnjjzohjhbohlwq.jpg'
p33
aS'00581940928fa_sunacvzhvcksnwqcqbw.jpg'
p34
aS'00776941205fa_sunafxokyavhgptyfye.jpg'
p35
aS'00292940422fb_sunabrjdpmoedcdjbpo.jpg'
p36
aS'00780960530fa_sunagetqixeypsysbpn.jpg'
p37
aS'00819940307fa_sunahqldjibofgsfdgb.jpg'
p38
asS'uncued_RT'
p39
(lp40
F0.6541900634765625
aF0.5352678298950195
aF0.35239100456237793
aF0.5070741176605225
aF0.39331507682800293
aF0.48297905921936035
aF0.44320201873779297
aF0.3351140022277832
aF0.3106060028076172
aF0.33586597442626953
asS'cued_RT'
p41
(lp42
s.