(dp0
S'cue_tuples'
p1
(lp2
(S'cue_R'
p3
S'L'
p4
I0
tp5
a(g3
g4
I0
tp6
a(g3
g4
I0
tp7
a(g3
g4
I0
tp8
a(g3
g4
I1
tp9
a(g3
g4
I0
tp10
a(g3
g4
I0
tp11
a(g3
g4
I0
tp12
a(g3
g4
I0
tp13
a(g3
g4
I0
tp14
asS'uncued'
p15
(lp16
S'00245940128fa_sunabeyhmxodahoieyk.jpg'
p17
aS'00153931230fa_sunaauhozyxzeeqstxi.jpg'
p18
aS'00836940307fa_sunainqelldeebvxtcz.jpg'
p19
aS'00127931230fa_sunaampvucecsfbdafn.jpg'
p20
aS'00098931230fa_sunaajpqmulidejvjsr.jpg'
p21
aS'00931960627fa_sunaptrqvaooxfvktvw.jpg'
p22
aS'00785941205fa_sunaglqunwuycxydmyu.jpg'
p23
aS'00548940519fa_sunacerqowiaeoqkmsq.jpg'
p24
aS'00061931230fb_sunaaekxzjzrfgtkwjf.jpg'
p25
aS'00788941205fa_sunagountlxpzkytsmp.jpg'
p26
asS'cued'
p27
(lp28
S'00790941205fa_sunagpjzsbltchlwvou.jpg'
p29
aS'00959960627fa_sunavxokzybtomhbmvm.jpg'
p30
aS'00227940128fa_sunabckqabszusgcykj.jpg'
p31
aS'00296940422fa_sunabrwnslxalcohfre.jpg'
p32
aS'00990960627fa_sunbpflsdaxnddnwcqi.jpg'
p33
aS'00864940307fa_sunajawzbrlrwafowen.jpg'
p34
aS'00892960530fa_sunalntxqqadigcletd.jpg'
p35
aS'00191940128fb_sunaawsdjisukbbginm.jpg'
p36
aS'00564941031fa_sunacsaovnjezqwbykf.jpg'
p37
aS'00498960627fa_sunabzjxlmkwnwzimua.jpg'
p38
asS'uncued_RT'
p39
(lp40
F0.4884788990020752
asS'cued_RT'
p41
(lp42
F0.6934938430786133
aF0.40978002548217773
aF0.42707300186157227
aF0.3151369094848633
aF0.5261828899383545
aF0.36501502990722656
aF0.38684797286987305
aF0.328977108001709
aF0.46015405654907227
as.