(dp0
S'images'
p1
(lp2
S'sunaajpqmulidejvjsr.jpg'
p3
aS'00836940307fa.jpg'
p4
aS'00098931230fa.jpg'
p5
aS'00548940519fa.jpg'
p6
aS'sunagountlxpzkytsmp.jpg'
p7
aS'sunacsaovnjezqwbykf.jpg'
p8
aS'00313940422fa.jpg'
p9
aS'00790941205fa.jpg'
p10
aS'00788941205fa.jpg'
p11
aS'sunaawqdbpihmlbwyyn.jpg'
p12
aS'sunaaekxzjzrfgtkwjf.jpg'
p13
aS'sunabkmdplkdbvxriff.jpg'
p14
aS'00564941031fa.jpg'
p15
aS'sunaawsdjisukbbginm.jpg'
p16
aS'sunajawzbrlrwafowen.jpg'
p17
aS'sunaglqunwuycxydmyu.jpg'
p18
aS'sunabeyhmxodahoieyk.jpg'
p19
aS'00191940128fb.jpg'
p20
aS'sunagmwxxwymwojbvgi.jpg'
p21
aS'00857940307fa.jpg'
p22
aS'00227940128fa.jpg'
p23
aS'sunabckqabszusgcykj.jpg'
p24
aS'00749941201fa.jpg'
p25
aS'00990960627fa.jpg'
p26
aS'00931960627fa.jpg'
p27
aS'sunalntxqqadigcletd.jpg'
p28
aS'sunadcphrizvfpljiqt.jpg'
p29
aS'sunadsgmtznewzyasnk.jpg'
p30
aS'00761960627fa.jpg'
p31
aS'sunaetydippjxikifsb.jpg'
p32
aS'sunaeoghzrjarigmwua.jpg'
p33
aS'sunabgfhvifeijihhjw.jpg'
p34
aS'sunbbhqyyzmsxhsbjmp.jpg'
p35
aS'sunaaheqzstzxuadglu.jpg'
p36
aS'sunafpfpiiujzoesnqg.jpg'
p37
aS'00882960530fa.jpg'
p38
aS'00983960627fa.jpg'
p39
aS'sunabtrnbvpppgczjim.jpg'
p40
aS'sunafkmnlytenlsywia.jpg'
p41
aS'00119931230fb.jpg'
p42
asS'ratings'
p43
(lp44
(lp45
(NF0.0
tp46
a(I3
F1.64
tp47
aa(lp48
(NF0.0
tp49
a(I1
F1.438
tp50
aa(lp51
(NF0.0
tp52
a(I2
F1.274
tp53
aa(lp54
(NF0.0
tp55
a(I2
F1.125
tp56
aa(lp57
(NF0.0
tp58
a(I2
F1.241
tp59
aa(lp60
(NF0.0
tp61
a(I4
F1.028
tp62
aa(lp63
(NF0.0
tp64
a(I1
F1.662
tp65
aa(lp66
(NF0.0
tp67
a(I2
F1.419
tp68
aa(lp69
(NF0.0
tp70
a(I3
F1.109
tp71
aa(lp72
(NF0.0
tp73
a(I3
F1.317
tp74
aa(lp75
(NF0.0
tp76
a(I4
F1.072
tp77
aa(lp78
(NF0.0
tp79
a(I3
F1.257
tp80
aa(lp81
(NF0.0
tp82
a(I4
F1.461
tp83
aa(lp84
(NF0.0
tp85
a(I3
F1.69
tp86
aa(lp87
(NF0.0
tp88
a(I3
F1.14
tp89
aa(lp90
(NF0.0
tp91
a(I3
F1.221
tp92
aa(lp93
(NF0.0
tp94
a(I4
F1.358
tp95
aa(lp96
(NF0.0
tp97
aa(lp98
(NF0.0
tp99
a(I3
F1.325
tp100
aa(lp101
(NF0.0
tp102
a(I2
F1.154
tp103
aa(lp104
(NF0.0
tp105
a(I2
F1.06
tp106
aa(lp107
(NF0.0
tp108
a(I4
F1.004
tp109
aa(lp110
(NF0.0
tp111
a(I2
F0.887
tp112
aa(lp113
(NF0.0
tp114
a(I4
F1.142
tp115
aa(lp116
(NF0.0
tp117
a(I4
F1.045
tp118
aa(lp119
(NF0.0
tp120
a(I3
F1.31
tp121
aa(lp122
(NF0.0
tp123
a(I3
F0.777
tp124
aa(lp125
(NF0.0
tp126
a(I3
F1.425
tp127
aa(lp128
(NF0.0
tp129
a(I2
F1.107
tp130
aa(lp131
(NF0.0
tp132
a(I3
F1.258
tp133
aa(lp134
(NF0.0
tp135
a(I2
F1.559
tp136
aa(lp137
(NF0.0
tp138
a(I3
F1.507
tp139
aa(lp140
(NF0.0
tp141
a(I2
F1.425
tp142
aa(lp143
(NF0.0
tp144
a(I3
F0.988
tp145
aa(lp146
(NF0.0
tp147
aa(lp148
(NF0.0
tp149
a(I2
F1.077
tp150
aa(lp151
(NF0.0
tp152
a(I2
F1.174
tp153
aa(lp154
(NF0.0
tp155
a(I2
F1.576
tp156
aa(lp157
(NF0.0
tp158
a(I4
F1.09
tp159
aa(lp160
(NF0.0
tp161
a(I2
F0.985
tp162
aasS'run_time'
p163
F122.42586612701416
sS'total_iters'
p164
(lp165
I0
aI1
aI2
aI3
aI4
aI5
aI6
aI7
aI8
aI9
aI10
aI11
aI12
aI13
aI14
aI15
aI16
aI17
aI18
aI19
aI20
aI21
aI22
aI23
aI24
aI25
aI26
aI27
aI28
aI29
aI30
aI31
aI32
aI33
aI34
aI35
aI36
aI37
aI38
aI39
as.