(dp0
S'images'
p1
(lp2
S'sunatstrpjxhvtbaczf.jpg'
p3
aS'sunaiwduelojtwaqeyh.jpg'
p4
aS'sunabwmcbaxwioksdgw.jpg'
p5
aS'sunacjkmnpawfzbyvae.jpg'
p6
aS'00082931230fa.jpg'
p7
aS'sunaafvitpexrpvumsa.jpg'
p8
aS'01002960627fb.jpg'
p9
aS'sunapqwnqzxlsfvgsjm.jpg'
p10
aS'sunadoxcchtmsxewsau.jpg'
p11
aS'sunahpblecxtmuzkmxb.jpg'
p12
aS'sunanmoqeyprjjjfxjt.jpg'
p13
aS'00505960627fa.jpg'
p14
aS'00773941201fa.jpg'
p15
aS'00559940519fa.jpg'
p16
aS'00854940307fa.jpg'
p17
aS'00314940422fa.jpg'
p18
aS'00818940307fa.jpg'
p19
aS'sundahdxwmcdluscvot.jpg'
p20
aS'sunbwaafjdebjzttuvq.jpg'
p21
aS'00953960627fa.jpg'
p22
aS'sunaeomlfaabhpswasy.jpg'
p23
aS'00483940519fa.jpg'
p24
aS'00976960627fa.jpg'
p25
aS'00905960530fa.jpg'
p26
aS'sunaiycurtqsfkvcaso.jpg'
p27
aS'00294940422fb.jpg'
p28
aS'00111931230fb.jpg'
p29
aS'sunbesrwkdsffeogeqq.jpg'
p30
aS'00154931230fa.jpg'
p31
aS'00571940928fa.jpg'
p32
aS'00130931230fa.jpg'
p33
aS'sunaczwgyukesaajxnx.jpg'
p34
aS'sunaecpkgfewqqreqwe.jpg'
p35
aS'00825940307fa.jpg'
p36
aS'sunagtumacdlmciqamz.jpg'
p37
aS'sunabizydfotqddlnjp.jpg'
p38
aS'00744941201fa.jpg'
p39
aS'00705941205fa.jpg'
p40
aS'sunaenwuebvlpdmntju.jpg'
p41
aS'00787941205fa.jpg'
p42
asS'ratings'
p43
(lp44
(lp45
(NF0.0
tp46
a(I1
F1.322
tp47
aa(lp48
(NF0.0
tp49
a(I3
F1.189
tp50
aa(lp51
(NF0.0
tp52
a(I4
F1.156
tp53
aa(lp54
(NF0.0
tp55
a(I1
F1.328
tp56
aa(lp57
(NF0.0
tp58
a(I4
F1.292
tp59
aa(lp60
(NF0.0
tp61
a(I2
F1.327
tp62
aa(lp63
(NF0.0
tp64
a(I2
F1.226
tp65
aa(lp66
(NF0.0
tp67
a(I4
F1.041
tp68
aa(lp69
(NF0.0
tp70
a(I2
F1.742
tp71
aa(lp72
(NF0.0
tp73
a(I2
F1.194
tp74
aa(lp75
(NF0.0
tp76
a(I3
F1.87
tp77
aa(lp78
(NF0.0
tp79
a(I1
F1.12
tp80
aa(lp81
(NF0.0
tp82
a(I1
F1.075
tp83
aa(lp84
(NF0.0
tp85
a(I1
F1.603
tp86
aa(lp87
(NF0.0
tp88
a(I1
F1.425
tp89
aa(lp90
(NF0.0
tp91
a(I1
F1.374
tp92
aa(lp93
(NF0.0
tp94
a(I2
F1.477
tp95
aa(lp96
(NF0.0
tp97
a(I4
F1.485
tp98
aa(lp99
(NF0.0
tp100
a(I2
F1.281
tp101
aa(lp102
(NF0.0
tp103
a(I1
F1.376
tp104
aa(lp105
(NF0.0
tp106
a(I3
F1.207
tp107
aa(lp108
(NF0.0
tp109
a(I2
F1.057
tp110
aa(lp111
(NF0.0
tp112
a(I2
F1.358
tp113
aa(lp114
(NF0.0
tp115
a(I1
F1.088
tp116
aa(lp117
(NF0.0
tp118
a(I4
F1.223
tp119
aa(lp120
(NF0.0
tp121
a(I3
F1.178
tp122
aa(lp123
(NF0.0
tp124
a(I2
F1.06
tp125
aa(lp126
(NF0.0
tp127
aa(lp128
(NF0.0
tp129
a(I1
F1.111
tp130
aa(lp131
(NF0.0
tp132
a(I1
F0.729
tp133
aa(lp134
(NF0.0
tp135
a(I2
F1.158
tp136
aa(lp137
(NF0.0
tp138
a(I1
F0.97
tp139
aa(lp140
(NF0.0
tp141
a(I1
F0.758
tp142
aa(lp143
(NF0.0
tp144
a(I1
F0.687
tp145
aa(lp146
(NF0.0
tp147
a(I3
F1.238
tp148
aa(lp149
(NF0.0
tp150
a(I2
F1.358
tp151
aa(lp152
(NF0.0
tp153
a(I1
F1.387
tp154
aa(lp155
(NF0.0
tp156
a(I1
F1.705
tp157
aa(lp158
(NF0.0
tp159
a(I1
F1.275
tp160
aa(lp161
(NF0.0
tp162
a(I1
F1.562
tp163
aasS'run_time'
p164
F122.57615089416504
sS'total_iters'
p165
(lp166
I0
aI1
aI2
aI3
aI4
aI5
aI6
aI7
aI8
aI9
aI10
aI11
aI12
aI13
aI14
aI15
aI16
aI17
aI18
aI19
aI20
aI21
aI22
aI23
aI24
aI25
aI26
aI27
aI28
aI29
aI30
aI31
aI32
aI33
aI34
aI35
aI36
aI37
aI38
aI39
as.