(dp0
S'images'
p1
(lp2
S'00811960530fa.jpg'
p3
aS'00877960530fa.jpg'
p4
aS'00760960620fa.jpg'
p5
aS'sunapmfmzadmosuogaz.jpg'
p6
aS'sunahiphsekjihkafsl.jpg'
p7
aS'sunaqbmgkgqucajzrkp.jpg'
p8
aS'00815941205fa.jpg'
p9
aS'00859940307fa.jpg'
p10
aS'sunacepzfrmtkiqonpy.jpg'
p11
aS'00747941201fa.jpg'
p12
aS'sunaaexqbtdswxrqjvz.jpg'
p13
aS'sunaivdylrawbmhryfp.jpg'
p14
aS'sunajxpkuhbizeveguy.jpg'
p15
aS'sunaajspcoepticvplv.jpg'
p16
aS'00919960620fa.jpg'
p17
aS'00589940928fa.jpg'
p18
aS'00138931230fa.jpg'
p19
aS'sunajrujcsdxmfbssmc.jpg'
p20
aS'sunafvtpfczkzopbgue.jpg'
p21
aS'sunagvjurcwdbixvnyi.jpg'
p22
aS'sunantryfbloeaomfta.jpg'
p23
aS'00893960530Fa.jpg'
p24
aS'00807941205fa.jpg'
p25
aS'01007960627fa.jpg'
p26
aS'sunaddsaeicthrfbkhe.jpg'
p27
aS'sunahgtbwgsmtqeodwh.jpg'
p28
aS'01009960627fa.jpg'
p29
aS'sundbixjudsgeuuehrn.jpg'
p30
aS'sunacypmnujalygkunp.jpg'
p31
aS'sunagmhildamktmqjss.jpg'
p32
aS'sunaooaqzputrowwbsw.jpg'
p33
aS'00271940422fa.jpg'
p34
aS'sunabxsbfwjccqxxzxq.jpg'
p35
aS'00982960627fa.jpg'
p36
aS'00647941031fa.jpg'
p37
aS'sunabbafjowbzcvbucc.jpg'
p38
aS'00097931230fa.jpg'
p39
aS'00812941205fa.jpg'
p40
aS'sunaatpeezlljqaxlhj.jpg'
p41
aS'sunahuynahneraqftyz.jpg'
p42
asS'ratings'
p43
(lp44
(lp45
(NF0.0
tp46
a(I4
F1.351
tp47
aa(lp48
(NF0.0
tp49
a(I3
F1.625
tp50
aa(lp51
(NF0.0
tp52
a(I3
F1.238
tp53
aa(lp54
(NF0.0
tp55
a(I2
F1.526
tp56
aa(lp57
(NF0.0
tp58
a(I3
F1.077
tp59
aa(lp60
(NF0.0
tp61
a(I1
F1.117
tp62
aa(lp63
(NF0.0
tp64
a(I2
F1.274
tp65
aa(lp66
(NF0.0
tp67
a(I2
F1.112
tp68
aa(lp69
(NF0.0
tp70
a(I3
F1.308
tp71
aa(lp72
(NF0.0
tp73
a(I4
F1.376
tp74
aa(lp75
(NF0.0
tp76
a(I3
F1.289
tp77
aa(lp78
(NF0.0
tp79
a(I3
F1.137
tp80
aa(lp81
(NF0.0
tp82
a(I4
F1.79
tp83
aa(lp84
(NF0.0
tp85
a(I4
F1.21
tp86
aa(lp87
(NF0.0
tp88
aa(lp89
(NF0.0
tp90
a(I2
F1.306
tp91
aa(lp92
(NF0.0
tp93
a(I1
F1.142
tp94
aa(lp95
(NF0.0
tp96
a(I1
F1.053
tp97
aa(lp98
(NF0.0
tp99
a(I3
F1.375
tp100
aa(lp101
(NF0.0
tp102
a(I4
F1.253
tp103
aa(lp104
(NF0.0
tp105
a(I3
F1.576
tp106
aa(lp107
(NF0.0
tp108
a(I4
F1.388
tp109
aa(lp110
(NF0.0
tp111
a(I3
F1.225
tp112
aa(lp113
(NF0.0
tp114
a(I3
F1.343
tp115
aa(lp116
(NF0.0
tp117
a(I2
F1.244
tp118
aa(lp119
(NF0.0
tp120
a(I3
F1.078
tp121
aa(lp122
(NF0.0
tp123
a(I4
F1.043
tp124
aa(lp125
(NF0.0
tp126
a(I2
F1.343
tp127
aa(lp128
(NF0.0
tp129
a(I2
F1.087
tp130
aa(lp131
(NF0.0
tp132
a(I2
F1.055
tp133
aa(lp134
(NF0.0
tp135
a(I2
F1.272
tp136
aa(lp137
(NF0.0
tp138
a(I2
F1.158
tp139
aa(lp140
(NF0.0
tp141
a(I3
F1.136
tp142
aa(lp143
(NF0.0
tp144
a(I1
F1.127
tp145
aa(lp146
(NF0.0
tp147
a(I2
F1.055
tp148
aa(lp149
(NF0.0
tp150
a(I4
F0.804
tp151
aa(lp152
(NF0.0
tp153
a(I2
F1.224
tp154
aa(lp155
(NF0.0
tp156
a(I2
F0.842
tp157
aa(lp158
(NF0.0
tp159
a(I3
F0.69
tp160
aa(lp161
(NF0.0
tp162
a(I3
F1.254
tp163
aasS'run_time'
p164
F122.69234108924866
sS'total_iters'
p165
(lp166
I0
aI1
aI2
aI3
aI4
aI5
aI6
aI7
aI8
aI9
aI10
aI11
aI12
aI13
aI14
aI15
aI16
aI17
aI18
aI19
aI20
aI21
aI22
aI23
aI24
aI25
aI26
aI27
aI28
aI29
aI30
aI31
aI32
aI33
aI34
aI35
aI36
aI37
aI38
aI39
as.