(dp0
S'cue_tuples'
p1
(lp2
(S'cue_R'
p3
S'F'
p4
I0
tp5
a(g3
g4
I0
tp6
a(g3
g4
I0
tp7
a(g3
g4
I0
tp8
a(g3
g4
I0
tp9
a(g3
g4
I0
tp10
a(g3
g4
I0
tp11
a(g3
g4
I0
tp12
a(g3
g4
I0
tp13
a(g3
g4
I0
tp14
asS'uncued'
p15
(lp16
S'00630941031fa_sunadakkdovnuzlycvp.jpg'
p17
aS'00198940128fb_sunaazezcsunmhttzxz.jpg'
p18
aS'00564940928fa_sunacmpqqfbsvlzinzl.jpg'
p19
aS'00961960627fa_sunawotxrevnqvamsfp.jpg'
p20
aS'00071940128fa_sunaaexpnawiehinlpy.jpg'
p21
aS'00728941205fa_sunaejnvnpltdmhbcsi.jpg'
p22
aS'00903960620fa_sunanainkqdvktzoxyl.jpg'
p23
aS'00914960620fa_sunaozisvwfbmlkfhzv.jpg'
p24
aS'00793941205fa_sunagtjwilqjvxohypn.jpg'
p25
aS'00851940307fa_sunaivflshbyfrfzhqb.jpg'
p26
asS'cued'
p27
(lp28
S'00862940307fa_sunaizgnnplsvajzhkc.jpg'
p29
aS'00125931230fa_sunaalltyvjhbzhkmvg.jpg'
p30
aS'00997960627fa_sunbtpilbhhbmhmeuzq.jpg'
p31
aS'00894960620fa_sunalqmfgeadpqsyzpd.jpg'
p32
aS'00900960530fa_sunamlotskmmsjeogby.jpg'
p33
aS'00705960530fa_sunaduslxfzlbxlllnz.jpg'
p34
aS'00804960530fa_sunagwswhkvnsmuszlz.jpg'
p35
aS'00841940307fa_sunaisiwfgppimtnmxl.jpg'
p36
aS'00957960627fa_sunavhxgmgrqsaptynb.jpg'
p37
aS'00540940519fa_sunacdnquypmsshhsbk.jpg'
p38
asS'uncued_RT'
p39
(lp40
sS'cued_RT'
p41
(lp42
F0.634105920791626
aF0.5043299198150635
aF0.3606710433959961
aF0.32842302322387695
aF0.35051608085632324
aF0.43500614166259766
aF0.3275010585784912
aF0.33946704864501953
aF0.37688207626342773
aF0.42502593994140625
as.