(lp0
S'A little engaging'
p1
aS'A little tired'
p2
accopy_reg
_reconstructor
p3
(cfuture.types.newstr
newstr
p4
c__builtin__
unicode
p5
Vthe nature scenes because there were bigger and more distinct features you could remember
p6
tp7
Rp8
ag3
(g4
g5
Vyes; the left side
p9
tp10
Rp11
ag3
(g4
g5
Vto look at and try and remember one defining feature
p12
tp13
Rp14
a.