(dp0
S'images'
p1
(lp2
S'sunaqyylsngywqzwfmx.jpg'
p3
aS'sunarpsxqkduedrrzyi.jpg'
p4
aS'00747941201fa.jpg'
p5
aS'00568940928fa.jpg'
p6
aS'sunaahwnmtqsrhocysw.jpg'
p7
aS'sunaddsaeicthrfbkhe.jpg'
p8
aS'sunacsdhbbsybcyxnel.jpg'
p9
aS'sunakodkcslgqhqlgwl.jpg'
p10
aS'sunagjeesomrwjsfqie.jpg'
p11
aS'sunaakxgygjfqrzpyoz.jpg'
p12
aS'00095931230fa.jpg'
p13
aS'00822940307fa.jpg'
p14
aS'sunaajuzribjrizdshh.jpg'
p15
aS'sunapqkpqdfvxlbqwyo.jpg'
p16
aS'00876960620fa.jpg'
p17
aS'00959960627fa.jpg'
p18
aS'sunaahzooisqkwlxwoz.jpg'
p19
aS'sunaajpqmulidejvjsr.jpg'
p20
aS'00949960627fb.jpg'
p21
aS'sunaofikylqtxphvdem.jpg'
p22
aS'00142931230fb.jpg'
p23
aS'sunaeutbrtswvsozxyk.jpg'
p24
aS'sunajoveqhiprwqgoco.jpg'
p25
aS'sunahqrxievfeusiqlt.jpg'
p26
aS'sunahmhrncocyhsjpxk.jpg'
p27
aS'00910960530fa.jpg'
p28
aS'00109931230fa.jpg'
p29
aS'sunaaiqiqcggrskoqgy.jpg'
p30
aS'00816941205fa.jpg'
p31
aS'00805941205fa.jpg'
p32
aS'00120931230fa.jpg'
p33
aS'sunaapxkpvrhpjplsok.jpg'
p34
aS'sunbbegcweqnetpdlrh.jpg'
p35
aS'00841940307fa.jpg'
p36
aS'00081941031fa.jpg'
p37
aS'sunabasphceswhwwqvv.jpg'
p38
aS'00096931230fa.jpg'
p39
aS'00880960530fa.jpg'
p40
aS'sunagtqhhwxjeuxdebe.jpg'
p41
aS'sunaaftlyfudyzuhqzf.jpg'
p42
asS'ratings'
p43
(lp44
(lp45
(NF0.0
tp46
aa(lp47
(NF0.0
tp48
a(I1
F0.931
tp49
aa(lp50
(NF0.0
tp51
a(I1
F1.08
tp52
aa(lp53
(NF0.0
tp54
a(I1
F0.998
tp55
aa(lp56
(NF0.0
tp57
a(I4
F1.313
tp58
aa(lp59
(NF0.0
tp60
a(I3
F1.265
tp61
aa(lp62
(NF0.0
tp63
a(I1
F1.307
tp64
aa(lp65
(NF0.0
tp66
a(I4
F1.434
tp67
aa(lp68
(NF0.0
tp69
a(I2
F1.094
tp70
aa(lp71
(NF0.0
tp72
a(I3
F1.231
tp73
aa(lp74
(NF0.0
tp75
a(I4
F1.282
tp76
aa(lp77
(NF0.0
tp78
a(I1
F0.997
tp79
aa(lp80
(NF0.0
tp81
a(I1
F1.529
tp82
aa(lp83
(NF0.0
tp84
a(I4
F1.263
tp85
aa(lp86
(NF0.0
tp87
a(I3
F1.098
tp88
aa(lp89
(NF0.0
tp90
a(I1
F1.029
tp91
aa(lp92
(NF0.0
tp93
a(I2
F1.964
tp94
aa(lp95
(NF0.0
tp96
a(I2
F1.497
tp97
aa(lp98
(NF0.0
tp99
a(I2
F1.098
tp100
aa(lp101
(NF0.0
tp102
a(I4
F1.63
tp103
aa(lp104
(NF0.0
tp105
aa(lp106
(NF0.0
tp107
a(I1
F0.931
tp108
aa(lp109
(NF0.0
tp110
a(I1
F0.878
tp111
aa(lp112
(NF0.0
tp113
a(I1
F0.828
tp114
aa(lp115
(NF0.0
tp116
a(I4
F1.613
tp117
aa(lp118
(NF0.0
tp119
a(I1
F0.919
tp120
aa(lp121
(NF0.0
tp122
a(I1
F1.065
tp123
aa(lp124
(NF0.0
tp125
a(I1
F0.796
tp126
aa(lp127
(NF0.0
tp128
a(I3
F1.38
tp129
aa(lp130
(NF0.0
tp131
a(I1
F0.929
tp132
aa(lp133
(NF0.0
tp134
a(I2
F1.097
tp135
aa(lp136
(NF0.0
tp137
a(I1
F1.13
tp138
aa(lp139
(NF0.0
tp140
a(I1
F1.18
tp141
aa(lp142
(NF0.0
tp143
a(I4
F1.164
tp144
aa(lp145
(NF0.0
tp146
a(I1
F1.114
tp147
aa(lp148
(NF0.0
tp149
a(I2
F0.969
tp150
aa(lp151
(NF0.0
tp152
a(I4
F1.063
tp153
aa(lp154
(NF0.0
tp155
a(I2
F0.934
tp156
aa(lp157
(NF0.0
tp158
a(I1
F0.646
tp159
aa(lp160
(NF0.0
tp161
a(I1
F0.937
tp162
aasS'run_time'
p163
F123.09599685668945
sS'total_iters'
p164
(lp165
I0
aI1
aI2
aI3
aI4
aI5
aI6
aI7
aI8
aI9
aI10
aI11
aI12
aI13
aI14
aI15
aI16
aI17
aI18
aI19
aI20
aI21
aI22
aI23
aI24
aI25
aI26
aI27
aI28
aI29
aI30
aI31
aI32
aI33
aI34
aI35
aI36
aI37
aI38
aI39
as.