(dp0
S'cue_tuples'
p1
(lp2
(S'cue_L'
p3
S'F'
p4
I0
tp5
a(g3
g4
I0
tp6
a(g3
g4
I0
tp7
a(g3
g4
I0
tp8
a(g3
g4
I0
tp9
a(g3
g4
I0
tp10
a(g3
g4
I0
tp11
a(g3
g4
I0
tp12
a(g3
g4
I1
tp13
a(g3
g4
I0
tp14
asS'uncued'
p15
(lp16
S'00290940422fa_sunabqowuarvqqcnipn.jpg'
p17
aS'00935960627fa_sunaqbmgkgqucajzrkp.jpg'
p18
aS'00827940307fa_sunahtfxgsrmkiulnwk.jpg'
p19
aS'00979960627fa_sunbdycacjfaujxitbw.jpg'
p20
aS'00797960620fa_sunagufzbeteqdjxais.jpg'
p21
aS'00858940307fa_sunaixpqndlwhwjtjek.jpg'
p22
aS'00857940307fa_sunaiwfobocrruqznsv.jpg'
p23
aS'00908960530fa_sunanwjjyqqwzqrqagd.jpg'
p24
aS'00548940519fa_sunacerqowiaeoqkmsq.jpg'
p25
aS'00728941205fa_sunaejnvnpltdmhbcsi.jpg'
p26
asS'cued'
p27
(lp28
S'00061931230fb_sunaaekxzjzrfgtkwjf.jpg'
p29
aS'00819940307fa_sunahqldjibofgsfdgb.jpg'
p30
aS'00214940128fa_sunabbafjowbzcvbucc.jpg'
p31
aS'00316940422fa_sunabxmguapjekttvwm.jpg'
p32
aS'00136931230fb_sunaanptmsknhirrzed.jpg'
p33
aS'00070940307fa_sunaaeplwsfslcbtojr.jpg'
p34
aS'00071941031fa_sunaaexqbtdswxrqjvz.jpg'
p35
aS'00305940422fa_sunabtrnbvpppgczjim.jpg'
p36
aS'00790941205fa_sunagpjzsbltchlwvou.jpg'
p37
aS'00483940519fa_sunabyvpwkgsjtijdwj.jpg'
p38
asS'uncued_RT'
p39
(lp40
F0.7300090789794922
aF0.7044839859008789
aF1.359640121459961
aF0.8271219730377197
aF0.5159549713134766
aF0.6668651103973389
aF0.6523070335388184
aF0.47124695777893066
aF0.39098596572875977
aF0.7060751914978027
asS'cued_RT'
p41
(lp42
s.