(dp0
S'images'
p1
(lp2
S'sunabmbnddafmywtjjj.jpg'
p3
aS'00787960620fa.jpg'
p4
aS'00260940128fa.jpg'
p5
aS'00589940928fa.jpg'
p6
aS'00271940422fa.jpg'
p7
aS'00766960620fa.jpg'
p8
aS'sunabgfhvifeijihhjw.jpg'
p9
aS'00753941201fa.jpg'
p10
aS'sunaafjszryxyavjzln.jpg'
p11
aS'00895960530fa.jpg'
p12
aS'00264940128fb.jpg'
p13
aS'00267940128fb.jpg'
p14
aS'sunaffgsyyvoqdlkmnk.jpg'
p15
aS'00957960627fa.jpg'
p16
aS'00795941205fa.jpg'
p17
aS'sunamczizlzavhzhpay.jpg'
p18
aS'sunafcofuuzebuadceo.jpg'
p19
aS'00874940307fa.jpg'
p20
aS'sunavhxgmgrqsaptynb.jpg'
p21
aS'00986960627fa.jpg'
p22
aS'sunagtumacdlmciqamz.jpg'
p23
aS'01000960627fa.jpg'
p24
aS'00144931230fb.jpg'
p25
aS'00082931230fa.jpg'
p26
aS'00276940422fa.jpg'
p27
aS'sunaedtgwjvvziytspa.jpg'
p28
aS'sunaathajvxrgptwhoj.jpg'
p29
aS'00854940307fa.jpg'
p30
aS'sunagoufulkpsxrmklt.jpg'
p31
aS'00147931230fb.jpg'
p32
aS'00993960627fa.jpg'
p33
aS'00818940307fa.jpg'
p34
aS'sunaczwgyukesaajxnx.jpg'
p35
aS'00163931230fb.jpg'
p36
aS'00952960627fa.jpg'
p37
aS'00815941205fa.jpg'
p38
aS'00065931230fb.jpg'
p39
aS'sunahiphsekjihkafsl.jpg'
p40
aS'sunaafvitpexrpvumsa.jpg'
p41
aS'sunabmytpyhsgigllxu.jpg'
p42
asS'ratings'
p43
(lp44
(lp45
(NF0.0
tp46
a(I4
F1.396
tp47
aa(lp48
(NF0.0
tp49
a(I2
F1.929
tp50
aa(lp51
(NF0.0
tp52
a(I4
F1.763
tp53
aa(lp54
(NF0.0
tp55
a(I3
F1.867
tp56
aa(lp57
(NF0.0
tp58
a(I4
F0.876
tp59
aa(lp60
(NF0.0
tp61
a(I1
F1.112
tp62
aa(lp63
(NF0.0
tp64
aa(lp65
(NF0.0
tp66
a(I1
F0.914
tp67
aa(lp68
(NF0.0
tp69
a(I1
F1.266
tp70
aa(lp71
(NF0.0
tp72
a(I1
F1.041
tp73
aa(lp74
(NF0.0
tp75
a(I1
F1.013
tp76
aa(lp77
(NF0.0
tp78
a(I4
F1.293
tp79
aa(lp80
(NF0.0
tp81
a(I1
F0.79
tp82
aa(lp83
(NF0.0
tp84
a(I1
F0.847
tp85
aa(lp86
(NF0.0
tp87
a(I1
F0.766
tp88
aa(lp89
(NF0.0
tp90
a(I1
F0.963
tp91
aa(lp92
(NF0.0
tp93
a(I1
F0.859
tp94
aa(lp95
(NF0.0
tp96
a(I4
F1.479
tp97
aa(lp98
(NF0.0
tp99
a(I1
F0.778
tp100
aa(lp101
(NF0.0
tp102
a(I2
F1.897
tp103
aa(lp104
(NF0.0
tp105
a(I2
F1.381
tp106
aa(lp107
(NF0.0
tp108
a(I4
F1.196
tp109
aa(lp110
(NF0.0
tp111
a(I2
F1.68
tp112
aa(lp113
(NF0.0
tp114
a(I4
F1.196
tp115
aa(lp116
(NF0.0
tp117
a(I2
F0.972
tp118
aa(lp119
(NF0.0
tp120
a(I1
F0.917
tp121
aa(lp122
(NF0.0
tp123
a(I1
F0.896
tp124
aa(lp125
(NF0.0
tp126
a(I1
F0.93
tp127
aa(lp128
(NF0.0
tp129
a(I1
F1.346
tp130
aa(lp131
(NF0.0
tp132
a(I1
F0.823
tp133
aa(lp134
(NF0.0
tp135
a(I3
F1.08
tp136
aa(lp137
(NF0.0
tp138
a(I2
F1.412
tp139
aa(lp140
(NF0.0
tp141
a(I1
F1.117
tp142
aa(lp143
(NF0.0
tp144
a(I4
F1.06
tp145
aa(lp146
(NF0.0
tp147
a(I2
F1.363
tp148
aa(lp149
(NF0.0
tp150
a(I2
F1.329
tp151
aa(lp152
(NF0.0
tp153
a(I1
F1.18
tp154
aa(lp155
(NF0.0
tp156
a(I1
F1.062
tp157
aa(lp158
(NF0.0
tp159
a(I1
F0.961
tp160
aa(lp161
(NF0.0
tp162
a(I4
F1.064
tp163
aasS'run_time'
p164
F123.01216506958008
sS'total_iters'
p165
(lp166
I0
aI1
aI2
aI3
aI4
aI5
aI6
aI7
aI8
aI9
aI10
aI11
aI12
aI13
aI14
aI15
aI16
aI17
aI18
aI19
aI20
aI21
aI22
aI23
aI24
aI25
aI26
aI27
aI28
aI29
aI30
aI31
aI32
aI33
aI34
aI35
aI36
aI37
aI38
aI39
as.