(dp0
S'images'
p1
(lp2
S'00119931230fb.jpg'
p3
aS'sunamkmeblgteyggink.jpg'
p4
aS'sunajjxttslobudoqbv.jpg'
p5
aS'00898960530fa.jpg'
p6
aS'00208940128fa.jpg'
p7
aS'00620940928fa.jpg'
p8
aS'00812941205fa.jpg'
p9
aS'sunacdnquypmsshhsbk.jpg'
p10
aS'sunacvzhvcksnwqcqbw.jpg'
p11
aS'00063931230fa.jpg'
p12
aS'00581940928fa.jpg'
p13
aS'00778941205fa.jpg'
p14
aS'00235940128fb.jpg'
p15
aS'00145931230fb.jpg'
p16
aS'sunabxsuqbleluwczoy.jpg'
p17
aS'sunadtlxenqqxsyjvix.jpg'
p18
aS'00848940307fa.jpg'
p19
aS'sunaiozxhxgtfrmoagh.jpg'
p20
aS'00562941031fa.jpg'
p21
aS'sunaatjesvdupctftmn.jpg'
p22
aS'00540940519fa.jpg'
p23
aS'00868960307fa.jpg'
p24
aS'00288940422fa.jpg'
p25
aS'00705941205fa.jpg'
p26
aS'00953960627fa.jpg'
p27
aS'00138931230fa.jpg'
p28
aS'00958960627fa.jpg'
p29
aS'sunaaexpnawiehinlpy.jpg'
p30
aS'sunagcthdfirrcawoic.jpg'
p31
aS'sunabclssnoeuigtawp.jpg'
p32
aS'00926960627Fa.jpg'
p33
aS'00086931230fa.jpg'
p34
aS'sunaazzyhbvqjpmazjq.jpg'
p35
aS'sunahctntqrunhdxhtb.jpg'
p36
aS'sunaakxjfbrrequcjmx.jpg'
p37
aS'sunahedfrhtcwpneund.jpg'
p38
aS'sunafvwfsmqkjrutjta.jpg'
p39
aS'sunaiwduelojtwaqeyh.jpg'
p40
aS'sunatstrpjxhvtbaczf.jpg'
p41
aS'sunaaelyvurpntclgau.jpg'
p42
asS'ratings'
p43
(lp44
(lp45
(NF0.0
tp46
a(I2
F1.712
tp47
aa(lp48
(NF0.0
tp49
a(I2
F1.381
tp50
aa(lp51
(NF0.0
tp52
a(I3
F1.027
tp53
aa(lp54
(NF0.0
tp55
a(I2
F1.146
tp56
aa(lp57
(NF0.0
tp58
a(I2
F1.146
tp59
aa(lp60
(NF0.0
tp61
a(I4
F1.112
tp62
aa(lp63
(NF0.0
tp64
a(I2
F0.863
tp65
aa(lp66
(NF0.0
tp67
a(I1
F1.24
tp68
aa(lp69
(NF0.0
tp70
a(I1
F1.11
tp71
aa(lp72
(NF0.0
tp73
a(I2
F0.929
tp74
aa(lp75
(NF0.0
tp76
a(I1
F0.765
tp77
aa(lp78
(NF0.0
tp79
a(I4
F1.05
tp80
aa(lp81
(NF0.0
tp82
a(I2
F1.014
tp83
aa(lp84
(NF0.0
tp85
a(I2
F0.911
tp86
aa(lp87
(NF0.0
tp88
a(I1
F1.328
tp89
aa(lp90
(NF0.0
tp91
a(I4
F1.013
tp92
aa(lp93
(NF0.0
tp94
a(I2
F0.846
tp95
aa(lp96
(NF0.0
tp97
a(I2
F1.314
tp98
aa(lp99
(NF0.0
tp100
a(I3
F1.14
tp101
aa(lp102
(NF0.0
tp103
a(I1
F0.946
tp104
aa(lp105
(NF0.0
tp106
a(I3
F1.029
tp107
aa(lp108
(NF0.0
tp109
a(I2
F0.896
tp110
aa(lp111
(NF0.0
tp112
a(I1
F0.81
tp113
aa(lp114
(NF0.0
tp115
a(I4
F0.996
tp116
aa(lp117
(NF0.0
tp118
a(I4
F1.479
tp119
aa(lp120
(NF0.0
tp121
a(I2
F0.83
tp122
aa(lp123
(NF0.0
tp124
a(I1
F1.161
tp125
aa(lp126
(NF0.0
tp127
a(I3
F1.109
tp128
aa(lp129
(NF0.0
tp130
a(I4
F1.082
tp131
aa(lp132
(NF0.0
tp133
a(I2
F1.428
tp134
aa(lp135
(NF0.0
tp136
a(I1
F0.962
tp137
aa(lp138
(NF0.0
tp139
a(I1
F0.896
tp140
aa(lp141
(NF0.0
tp142
a(I2
F1.327
tp143
aa(lp144
(NF0.0
tp145
a(I2
F1.18
tp146
aa(lp147
(NF0.0
tp148
a(I2
F1.18
tp149
aa(lp150
(NF0.0
tp151
a(I4
F0.963
tp152
aa(lp153
(NF0.0
tp154
a(I2
F1.214
tp155
aa(lp156
(NF0.0
tp157
a(I1
F1.029
tp158
aa(lp159
(NF0.0
tp160
a(I4
F0.978
tp161
aa(lp162
(NF0.0
tp163
a(I4
F0.996
tp164
aasS'run_time'
p165
F123.0296778678894
sS'total_iters'
p166
(lp167
I0
aI1
aI2
aI3
aI4
aI5
aI6
aI7
aI8
aI9
aI10
aI11
aI12
aI13
aI14
aI15
aI16
aI17
aI18
aI19
aI20
aI21
aI22
aI23
aI24
aI25
aI26
aI27
aI28
aI29
aI30
aI31
aI32
aI33
aI34
aI35
aI36
aI37
aI38
aI39
as.