(dp0
S'images'
p1
(lp2
S'sunaguchqqnrtodtezq.jpg'
p3
aS'sunaooffzffbhcpirmm.jpg'
p4
aS'00836940307fa.jpg'
p5
aS'00761960627fa.jpg'
p6
aS'sunadbhmrgrrpyzglxs.jpg'
p7
aS'00796941205fa.jpg'
p8
aS'sunabcuurugvxwparpk.jpg'
p9
aS'00776941205fa.jpg'
p10
aS'00985960627fa.jpg'
p11
aS'00598940928fa.jpg'
p12
aS'00280940422fb.jpg'
p13
aS'00133931230fa.jpg'
p14
aS'00529940519fa.jpg'
p15
aS'01207940128fa.jpg'
p16
aS'00887960530.jpg'
p17
aS'sunadsgmtznewzyasnk.jpg'
p18
aS'00140931230fb.jpg'
p19
aS'00313940422fa.jpg'
p20
aS'sunaknlirqjqiwbbeeg.jpg'
p21
aS'00982960627fa.jpg'
p22
aS'sunbxarcshsnqsefemx.jpg'
p23
aS'00882960530fa.jpg'
p24
aS'00670941121fa.jpg'
p25
aS'sunabwjvmoaddlyxfjr.jpg'
p26
aS'sunacvbrcejzwmcgnoq.jpg'
p27
aS'00869940307fa.jpg'
p28
aS'00574940928fa.jpg'
p29
aS'sunaapllqyqlykszopd.jpg'
p30
aS'sunafxokyavhgptyfye.jpg'
p31
aS'sunadochqcucscehsgk.jpg'
p32
aS'01007960627fa.jpg'
p33
aS'sundbixjudsgeuuehrn.jpg'
p34
aS'sunafgdqbclkwfocdhg.jpg'
p35
aS'00783941205fa.jpg'
p36
aS'00633940928fa.jpg'
p37
aS'sunbesrwkdsffeogeqq.jpg'
p38
aS'sunaozisvwfbmlkfhzv.jpg'
p39
aS'sunacxeheuiigkcgquf.jpg'
p40
aS'sunalcrtwiycqobgelp.jpg'
p41
aS'00885960530fa.jpg'
p42
asS'ratings'
p43
(lp44
(lp45
(NF0.0
tp46
a(I4
F1.227
tp47
aa(lp48
(NF0.0
tp49
a(I4
F0.895
tp50
aa(lp51
(NF0.0
tp52
a(I3
F1.146
tp53
aa(lp54
(NF0.0
tp55
a(I3
F0.833
tp56
aa(lp57
(NF0.0
tp58
a(I4
F0.821
tp59
aa(lp60
(NF0.0
tp61
a(I4
F0.227
tp62
aa(lp63
(NF0.0
tp64
a(I4
F0.828
tp65
aa(lp66
(NF0.0
tp67
a(I2
F0.921
tp68
aa(lp69
(NF0.0
tp70
a(I3
F1.362
tp71
aa(lp72
(NF0.0
tp73
a(I4
F0.894
tp74
aa(lp75
(NF0.0
tp76
a(I1
F0.945
tp77
aa(lp78
(NF0.0
tp79
a(I1
F1.03
tp80
aa(lp81
(NF0.0
tp82
a(I1
F1.145
tp83
aa(lp84
(NF0.0
tp85
aa(lp86
(NF0.0
tp87
a(I4
F1.358
tp88
aa(lp89
(NF0.0
tp90
a(I1
F1.096
tp91
aa(lp92
(NF0.0
tp93
a(I1
F0.781
tp94
aa(lp95
(NF0.0
tp96
a(I1
F0.745
tp97
aa(lp98
(NF0.0
tp99
a(I4
F0.883
tp100
aa(lp101
(NF0.0
tp102
a(I1
F0.696
tp103
aa(lp104
(NF0.0
tp105
a(I4
F0.804
tp106
aa(lp107
(NF0.0
tp108
a(I1
F0.845
tp109
aa(lp110
(NF0.0
tp111
a(I1
F1.431
tp112
aa(lp113
(NF0.0
tp114
a(I2
F1.296
tp115
aa(lp116
(NF0.0
tp117
a(I2
F1.314
tp118
aa(lp119
(NF0.0
tp120
a(I2
F1.178
tp121
aa(lp122
(NF0.0
tp123
a(I2
F0.681
tp124
aa(lp125
(NF0.0
tp126
a(I2
F0.864
tp127
aa(lp128
(NF0.0
tp129
a(I3
F1.235
tp130
aa(lp131
(NF0.0
tp132
a(I1
F1.013
tp133
aa(lp134
(NF0.0
tp135
a(I1
F0.612
tp136
aa(lp137
(NF0.0
tp138
a(I1
F1.607
tp139
aa(lp140
(NF0.0
tp141
a(I4
F0.88
tp142
aa(lp143
(NF0.0
tp144
a(I2
F1.079
tp145
aa(lp146
(NF0.0
tp147
a(I1
F0.796
tp148
aa(lp149
(NF0.0
tp150
a(I1
F0.946
tp151
aa(lp152
(NF0.0
tp153
a(I3
F1.23
tp154
aa(lp155
(NF0.0
tp156
aa(lp157
(NF0.0
tp158
a(I4
F0.903
tp159
aa(lp160
(NF0.0
tp161
a(I2
F0.915
tp162
aasS'run_time'
p163
F123.0123999118805
sS'total_iters'
p164
(lp165
I0
aI1
aI2
aI3
aI4
aI5
aI6
aI7
aI8
aI9
aI10
aI11
aI12
aI13
aI14
aI15
aI16
aI17
aI18
aI19
aI20
aI21
aI22
aI23
aI24
aI25
aI26
aI27
aI28
aI29
aI30
aI31
aI32
aI33
aI34
aI35
aI36
aI37
aI38
aI39
as.