(dp0
S'cue_tuples'
p1
(lp2
(S'cue_R'
p3
S'F'
p4
I0
tp5
a(g3
g4
I0
tp6
a(g3
g4
I0
tp7
a(g3
g4
I0
tp8
a(g3
g4
I0
tp9
a(g3
g4
I0
tp10
a(g3
g4
I0
tp11
a(g3
g4
I0
tp12
a(g3
g4
I0
tp13
a(g3
g4
I0
tp14
asS'uncued'
p15
(lp16
S'00198940128fb_sunaazezcsunmhttzxz.jpg'
p17
aS'00983960627fa_sunbfyvfqiimvdaxlqn.jpg'
p18
aS'00725941201fa_sunaefgzwiramypjvtd.jpg'
p19
aS'00828940307fa_sunahuynahneraqftyz.jpg'
p20
aS'00931960627fa_sunaptrqvaooxfvktvw.jpg'
p21
aS'00262940128fa_sunabizydfotqddlnjp.jpg'
p22
aS'00786941205fa_sunagmhildamktmqjss.jpg'
p23
aS'00239940128fa_sunabctlikybqabezjv.jpg'
p24
aS'00543940519fa_sunacepzfrmtkiqonpy.jpg'
p25
aS'00972960627fa_sunbbfqwjpdxniyhies.jpg'
p26
asS'cued'
p27
(lp28
S'00787941205fa_sunagmwxxwymwojbvgi.jpg'
p29
aS'00663941121fa_sunadnjjzohjhbohlwq.jpg'
p30
aS'00793941205fa_sunagtjwilqjvxohypn.jpg'
p31
aS'00743941201fa_sunaeoghzrjarigmwua.jpg'
p32
aS'00804960530fa_sunagwswhkvnsmuszlz.jpg'
p33
aS'00194940128fb_sunaayehfdqcyxggsej.jpg'
p34
aS'00770941201fa_sunaflojskatpeqyzqp.jpg'
p35
aS'00936960627fa_sunaqgjuuwvdcyiccjt.jpg'
p36
aS'00308940422fb_sunabwfvcqqidycwypa.jpg'
p37
aS'00115931230fa_sunaakmxzhuceuiryah.jpg'
p38
asS'uncued_RT'
p39
(lp40
sS'cued_RT'
p41
(lp42
F0.6278290748596191
aF0.4542529582977295
aF0.3612349033355713
aF0.3979918956756592
aF0.2892799377441406
aF0.32947492599487305
aF0.34336304664611816
aF0.46178102493286133
aF0.3196389675140381
aF0.390887975692749
as.