(dp0
S'images'
p1
(lp2
S'sunabrlndkruqokhury.jpg'
p3
aS'sunbwdrdvsweerwsdrj.jpg'
p4
aS'sunadbdqzigzwipuipr.jpg'
p5
aS'sunaamdjwemxpmmtypi.jpg'
p6
aS'00809960620fa.jpg'
p7
aS'00785941205fa.jpg'
p8
aS'01003960627fb.jpg'
p9
aS'00227940128fa.jpg'
p10
aS'00919960620fa.jpg'
p11
aS'00069931230fb.jpg'
p12
aS'00675941121fa.jpg'
p13
aS'00730960620fa.jpg'
p14
aS'00694941121fa.jpg'
p15
aS'sunahbvlpavurqoxdeq.jpg'
p16
aS'sunadpnqovzckyikrjo.jpg'
p17
aS'sunaglqunwuycxydmyu.jpg'
p18
aS'sunadfndyrtqqiasoig.jpg'
p19
aS'00648941031fa.jpg'
p20
aS'sunabcfpwlpolnutyju.jpg'
p21
aS'00302940422fa.jpg'
p22
aS'sunawotxrevnqvamsfp.jpg'
p23
aS'sunaajqmsaavkmgbsth.jpg'
p24
aS'00911960530fa.jpg'
p25
aS'00294940422fb.jpg'
p26
aS'00871940307.jpg'
p27
aS'sunaafgqutfaishsxyu.jpg'
p28
aS'00126931230fb.jpg'
p29
aS'00191940128fb.jpg'
p30
aS'00296940422fa.jpg'
p31
aS'00877960530fa.jpg'
p32
aS'sunbvbrvgbpanfrawft.jpg'
p33
aS'sunaekgzpfilgjxpeyq.jpg'
p34
aS'00999960627fa.jpg'
p35
aS'sunaemcowdozyphwknd.jpg'
p36
aS'00306940422fa.jpg'
p37
aS'sunaooaqzputrowwbsw.jpg'
p38
aS'00976960627fa.jpg'
p39
aS'00963960627fa.jpg'
p40
aS'00741941201fa.jpg'
p41
aS'00933960627fa.jpg'
p42
asS'ratings'
p43
(lp44
(lp45
(NF0.0
tp46
a(I3
F0.879
tp47
aa(lp48
(NF0.0
tp49
a(I1
F1.292
tp50
aa(lp51
(NF0.0
tp52
a(I3
F1.466
tp53
aa(lp54
(NF0.0
tp55
a(I4
F1.007
tp56
aa(lp57
(NF0.0
tp58
a(I2
F0.996
tp59
aa(lp60
(NF0.0
tp61
a(I1
F0.863
tp62
aa(lp63
(NF0.0
tp64
a(I1
F0.828
tp65
aa(lp66
(NF0.0
tp67
a(I3
F1.028
tp68
aa(lp69
(NF0.0
tp70
a(I2
F0.83
tp71
aa(lp72
(NF0.0
tp73
a(I1
F1.062
tp74
aa(lp75
(NF0.0
tp76
a(I3
F1.064
tp77
aa(lp78
(NF0.0
tp79
a(I1
F0.861
tp80
aa(lp81
(NF0.0
tp82
a(I4
F1.146
tp83
aa(lp84
(NF0.0
tp85
a(I4
F0.928
tp86
aa(lp87
(NF0.0
tp88
a(I1
F1.008
tp89
aa(lp90
(NF0.0
tp91
a(I2
F1.83
tp92
aa(lp93
(NF0.0
tp94
a(I1
F1.314
tp95
aa(lp96
(NF0.0
tp97
a(I1
F1.639
tp98
aa(lp99
(NF0.0
tp100
a(I4
F0.928
tp101
aa(lp102
(NF0.0
tp103
a(I1
F1.254
tp104
aa(lp105
(NF0.0
tp106
a(I4
F0.801
tp107
aa(lp108
(NF0.0
tp109
a(I2
F0.995
tp110
aa(lp111
(NF0.0
tp112
a(I1
F0.926
tp113
aa(lp114
(NF0.0
tp115
a(I1
F0.794
tp116
aa(lp117
(NF0.0
tp118
a(I1
F0.897
tp119
aa(lp120
(NF0.0
tp121
a(I2
F1.117
tp122
aa(lp123
(NF0.0
tp124
a(I1
F0.83
tp125
aa(lp126
(NF0.0
tp127
a(I1
F0.896
tp128
aa(lp129
(NF0.0
tp130
a(I2
F0.779
tp131
aa(lp132
(NF0.0
tp133
a(I1
F0.713
tp134
aa(lp135
(NF0.0
tp136
a(I2
F1.796
tp137
aa(lp138
(NF0.0
tp139
a(I1
F1.165
tp140
aa(lp141
(NF0.0
tp142
a(I2
F0.813
tp143
aa(lp144
(NF0.0
tp145
a(I1
F0.861
tp146
aa(lp147
(NF0.0
tp148
a(I1
F1.645
tp149
aa(lp150
(NF0.0
tp151
a(I4
F1.129
tp152
aa(lp153
(NF0.0
tp154
aa(lp155
(NF0.0
tp156
a(I1
F1.747
tp157
aa(lp158
(NF0.0
tp159
a(I1
F0.69
tp160
aa(lp161
(NF0.0
tp162
a(I1
F0.963
tp163
aasS'run_time'
p164
F123.06247186660767
sS'total_iters'
p165
(lp166
I0
aI1
aI2
aI3
aI4
aI5
aI6
aI7
aI8
aI9
aI10
aI11
aI12
aI13
aI14
aI15
aI16
aI17
aI18
aI19
aI20
aI21
aI22
aI23
aI24
aI25
aI26
aI27
aI28
aI29
aI30
aI31
aI32
aI33
aI34
aI35
aI36
aI37
aI38
aI39
as.