(dp0
S'images'
p1
(lp2
S'00609940928fa.jpg'
p3
aS'sunabzjxlmkwnwzimua.jpg'
p4
aS'00559940519fa.jpg'
p5
aS'00754941201fa.jpg'
p6
aS'sunaiozxhxgtfrmoagh.jpg'
p7
aS'sunaczwgyukesaajxnx.jpg'
p8
aS'00630940928fa.jpg'
p9
aS'00745941205fa.jpg'
p10
aS'sunaafjszryxyavjzln.jpg'
p11
aS'sunbbxkanhzjgbwyxqs.jpg'
p12
aS'00505960627fa.jpg'
p13
aS'sunaffgsyyvoqdlkmnk.jpg'
p14
aS'00482940519fa.jpg'
p15
aS'00498960627fa.jpg'
p16
aS'sunbgzjryivyczuvkvm.jpg'
p17
aS'sunabyfxcxhdebvdyfd.jpg'
p18
aS'00122931230fa.jpg'
p19
aS'sunaqgjuuwvdcyiccjt.jpg'
p20
aS'sunablfqiwfqomjarht.jpg'
p21
aS'sunaakqepfoeqomfgxf.jpg'
p22
aS'sunabjuovqvyfuzvqwt.jpg'
p23
aS'00901960530fa.jpg'
p24
aS'00208940128fa.jpg'
p25
aS'sunammbnoambmhdxdwd.jpg'
p26
aS'00746941201fa.jpg'
p27
aS'sunabmbnddafmywtjjj.jpg'
p28
aS'00162931230fb.jpg'
p29
aS'00936960627fa.jpg'
p30
aS'sunaffstbkappprzxnv.jpg'
p31
aS'sunaapllqyqlykszopd.jpg'
p32
aS'sunaqyylsngywqzwfmx.jpg'
p33
aS'00841940307fa.jpg'
p34
aS'00942960627fa.jpg'
p35
aS'sunaavodbcpygkggnfp.jpg'
p36
aS'00911960530fa.jpg'
p37
aS'00955960627fb.jpg'
p38
aS'sunabzuqsrgcsonqlkz.jpg'
p39
aS'00753941201fa.jpg'
p40
aS'00965960627fa.jpg'
p41
aS'sunafowswglhxcsufpo.jpg'
p42
asS'ratings'
p43
(lp44
(lp45
(NF0.0
tp46
a(I2
F1.86
tp47
aa(lp48
(NF0.0
tp49
a(I1
F1.805
tp50
aa(lp51
(NF0.0
tp52
a(I1
F1.592
tp53
aa(lp54
(NF0.0
tp55
a(I2
F1.446
tp56
aa(lp57
(NF0.0
tp58
a(I1
F1.596
tp59
aa(lp60
(NF0.0
tp61
aa(lp62
(NF0.0
tp63
a(I2
F1.638
tp64
aa(lp65
(NF0.0
tp66
a(I3
F0.96
tp67
aa(lp68
(NF0.0
tp69
a(I1
F1.233
tp70
aa(lp71
(NF0.0
tp72
a(I2
F1.219
tp73
aa(lp74
(NF0.0
tp75
a(I2
F1.54
tp76
aa(lp77
(NF0.0
tp78
a(I1
F1.752
tp79
aa(lp80
(NF0.0
tp81
a(I3
F1.482
tp82
aa(lp83
(NF0.0
tp84
a(I4
F1.758
tp85
aa(lp86
(NF0.0
tp87
aa(lp88
(NF0.0
tp89
a(I1
F1.272
tp90
aa(lp91
(NF0.0
tp92
a(I2
F1.368
tp93
aa(lp94
(NF0.0
tp95
a(I1
F1.59
tp96
aa(lp97
(NF0.0
tp98
a(I1
F1.953
tp99
aa(lp100
(NF0.0
tp101
a(I2
F1.269
tp102
aa(lp103
(NF0.0
tp104
a(I2
F1.29
tp105
aa(lp106
(NF0.0
tp107
aa(lp108
(NF0.0
tp109
a(I2
F1.576
tp110
aa(lp111
(NF0.0
tp112
a(I1
F1.58
tp113
aa(lp114
(NF0.0
tp115
a(I1
F1.485
tp116
aa(lp117
(NF0.0
tp118
a(I1
F1.564
tp119
aa(lp120
(NF0.0
tp121
a(I2
F1.395
tp122
aa(lp123
(NF0.0
tp124
a(I1
F1.166
tp125
aa(lp126
(NF0.0
tp127
aa(lp128
(NF0.0
tp129
a(I1
F0.997
tp130
aa(lp131
(NF0.0
tp132
aa(lp133
(NF0.0
tp134
a(I2
F1.321
tp135
aa(lp136
(NF0.0
tp137
a(I3
F1.073
tp138
aa(lp139
(NF0.0
tp140
a(I1
F1.831
tp141
aa(lp142
(NF0.0
tp143
a(I3
F1.746
tp144
aa(lp145
(NF0.0
tp146
a(I1
F1.202
tp147
aa(lp148
(NF0.0
tp149
a(I1
F0.831
tp150
aa(lp151
(NF0.0
tp152
aa(lp153
(NF0.0
tp154
a(I2
F1.086
tp155
aa(lp156
(NF0.0
tp157
a(I1
F0.929
tp158
aasS'run_time'
p159
F123.34407091140747
sS'total_iters'
p160
(lp161
I0
aI1
aI2
aI3
aI4
aI5
aI6
aI7
aI8
aI9
aI10
aI11
aI12
aI13
aI14
aI15
aI16
aI17
aI18
aI19
aI20
aI21
aI22
aI23
aI24
aI25
aI26
aI27
aI28
aI29
aI30
aI31
aI32
aI33
aI34
aI35
aI36
aI37
aI38
aI39
as.