(dp0
S'cue_tuples'
p1
(lp2
(S'cue_L'
p3
S'L'
p4
I0
tp5
a(g3
g4
I1
tp6
a(g3
g4
I0
tp7
a(g3
g4
I0
tp8
a(g3
g4
I0
tp9
a(g3
g4
I1
tp10
a(g3
g4
I0
tp11
a(g3
g4
I0
tp12
a(g3
g4
I0
tp13
a(g3
g4
I0
tp14
asS'uncued'
p15
(lp16
S'00479940519fa_sunabxsbfwjccqxxzxq.jpg'
p17
aS'00562941031fa_sunacjnahdmqfnjfwqx.jpg'
p18
aS'00662941121fa_sunadkazmlajmohnwfl.jpg'
p19
aS'00741941201fa_sunaemcowdozyphwknd.jpg'
p20
aS'00985960627fa_sunbgklxeqjhdbyfhhy.jpg'
p21
aS'00316940422fa_sunabxmguapjekttvwm.jpg'
p22
aS'00779941205fa_sunagdzlvkqtpnfxfcg.jpg'
p23
aS'00949960627fb_sunasnqkkyhilqkxiqm.jpg'
p24
aS'00198940128fb_sunaazezcsunmhttzxz.jpg'
p25
aS'00071940128fa_sunaaexpnawiehinlpy.jpg'
p26
asS'cued'
p27
(lp28
S'00864940307fa_sunajawzbrlrwafowen.jpg'
p29
aS'00270940422fb_sunabllobxadqcyttej.jpg'
p30
aS'00983960627fa_sunbfyvfqiimvdaxlqn.jpg'
p31
aS'00305940422fa_sunabtrnbvpppgczjim.jpg'
p32
aS'00953960627fa_sunatstrpjxhvtbaczf.jpg'
p33
aS'00132931230fb_sunaanjcbzdvtvblsdy.jpg'
p34
aS'00564940928fa_sunacmpqqfbsvlzinzl.jpg'
p35
aS'00210940128fb_sunabanoxjtqxamkucc.jpg'
p36
aS'00747941201fa_sunaeutbrtswvsozxyk.jpg'
p37
aS'00834940307fa_sunaibnpvhkdpdnzcnz.jpg'
p38
asS'uncued_RT'
p39
(lp40
F0.5779922008514404
aF0.6932439804077148
aF0.5567460060119629
aF0.37669897079467773
aF0.42513203620910645
aF0.5570390224456787
aF0.37549710273742676
aF0.4095630645751953
aF0.4519529342651367
aF0.35309290885925293
asS'cued_RT'
p41
(lp42
s.