(dp0
S'cue_tuples'
p1
(lp2
(S'cue_L'
p3
S'F'
p4
I0
tp5
a(g3
g4
I0
tp6
a(g3
g4
I0
tp7
a(g3
g4
I0
tp8
a(g3
g4
I0
tp9
a(g3
g4
I0
tp10
a(g3
g4
I0
tp11
a(g3
g4
I0
tp12
a(g3
g4
I0
tp13
a(g3
g4
I0
tp14
asS'uncued'
p15
(lp16
S'00609940928fa_sunacycdoztxoluxjyk.jpg'
p17
aS'00267940128fb_sunablfqiwfqomjarht.jpg'
p18
aS'00630940928fa_sunaczwgyukesaajxnx.jpg'
p19
aS'00754941201fa_sunaffgsyyvoqdlkmnk.jpg'
p20
aS'00191940128fb_sunaawsdjisukbbginm.jpg'
p21
aS'00952960627fa_sunathzzbcwjykldrem.jpg'
p22
aS'00745941205fa_sunaeouogqolxvggaoq.jpg'
p23
aS'00498960627fa_sunabzjxlmkwnwzimua.jpg'
p24
aS'00126931230fb_sunaamdjwemxpmmtypi.jpg'
p25
aS'00116931230fa_sunaakqepfoeqomfgxf.jpg'
p26
asS'cued'
p27
(lp28
S'00818940307fa_sunahpblecxtmuzkmxb.jpg'
p29
aS'00901960530fa_sunammbnoambmhdxdwd.jpg'
p30
aS'00162931230fb_sunaavjinpnkappuonm.jpg'
p31
aS'00559940519fa_sunacjkmnpawfzbyvae.jpg'
p32
aS'00839940307fa_sunaipyohrqlwngaqif.jpg'
p33
aS'00163931230fb_sunaavodbcpygkggnfp.jpg'
p34
aS'00482940519fa_sunabyfxcxhdebvdyfd.jpg'
p35
aS'00271940422fa_sunabmbnddafmywtjjj.jpg'
p36
aS'00862940307fa_sunaizgnnplsvajzhkc.jpg'
p37
aS'00936960627fa_sunaqgjuuwvdcyiccjt.jpg'
p38
asS'uncued_RT'
p39
(lp40
F0.9017388820648193
aF0.43993091583251953
aF0.5839800834655762
aF0.3395981788635254
aF0.5495939254760742
aF0.48451995849609375
aF0.5806138515472412
aF0.3785839080810547
aF0.37891197204589844
aF0.40552401542663574
asS'cued_RT'
p41
(lp42
s.