(dp0
S'images'
p1
(lp2
S'sunaizeyhvjzknwjudw.jpg'
p3
aS'00316940422fa.jpg'
p4
aS'00071940128fa.jpg'
p5
aS'sunagdzlvkqtpnfxfcg.jpg'
p6
aS'sunabanoxjtqxamkucc.jpg'
p7
aS'sunabtrnbvpppgczjim.jpg'
p8
aS'sunacsaovnjezqwbykf.jpg'
p9
aS'sunaaexpnawiehinlpy.jpg'
p10
aS'00132931230fb.jpg'
p11
aS'00479940519fa.jpg'
p12
aS'00562941031fa.jpg'
p13
aS'sunaanjcbzdvtvblsdy.jpg'
p14
aS'sunaemcowdozyphwknd.jpg'
p15
aS'00662941121fa.jpg'
p16
aS'sunaazezcsunmhttzxz.jpg'
p17
aS'sunabxmguapjekttvwm.jpg'
p18
aS'00210940128fb.jpg'
p19
aS'00270940422fb.jpg'
p20
aS'00564940928fa.jpg'
p21
aS'sunabllobxadqcyttej.jpg'
p22
aS'00893960530Fa.jpg'
p23
aS'00983960627fa.jpg'
p24
aS'00095931230fa.jpg'
p25
aS'sunahawfngukizslzsd.jpg'
p26
aS'sunapqwoeotxshkukbh.jpg'
p27
aS'00294940422fb.jpg'
p28
aS'sunaeutbrtswvsozxyk.jpg'
p29
aS'00810941205fa.jpg'
p30
aS'sunadvithllcgmfxsrn.jpg'
p31
aS'00185940422fb.jpg'
p32
aS'sunacvbrcejzwmcgnoq.jpg'
p33
aS'00744941201fa.jpg'
p34
aS'00816941205fa.jpg'
p35
aS'sunalkiibhqpxfamlll.jpg'
p36
aS'sunacacflqoyxhsqzhe.jpg'
p37
aS'00978960627fa.jpg'
p38
aS'sunagvprlbprarvgdvj.jpg'
p39
aS'00730960620fa.jpg'
p40
aS'00260940128fa.jpg'
p41
aS'sunasmmcxdddtmtazwx.jpg'
p42
asS'ratings'
p43
(lp44
(lp45
(NF0.0
tp46
aa(lp47
(NF0.0
tp48
a(I3
F1.718
tp49
aa(lp50
(NF0.0
tp51
a(I1
F1.522
tp52
aa(lp53
(NF0.0
tp54
a(I3
F1.599
tp55
aa(lp56
(NF0.0
tp57
a(I3
F1.281
tp58
aa(lp59
(NF0.0
tp60
a(I4
F0.965
tp61
aa(lp62
(NF0.0
tp63
a(I2
F1.953
tp64
aa(lp65
(NF0.0
tp66
a(I2
F1.837
tp67
aa(lp68
(NF0.0
tp69
a(I1
F1.152
tp70
aa(lp71
(NF0.0
tp72
a(I2
F1.028
tp73
aa(lp74
(NF0.0
tp75
a(I1
F1.053
tp76
aa(lp77
(NF0.0
tp78
a(I2
F1.636
tp79
aa(lp80
(NF0.0
tp81
a(I1
F0.936
tp82
aa(lp83
(NF0.0
tp84
a(I1
F0.935
tp85
aa(lp86
(NF0.0
tp87
aa(lp88
(NF0.0
tp89
a(I1
F1.003
tp90
aa(lp91
(NF0.0
tp92
a(I2
F1.329
tp93
aa(lp94
(NF0.0
tp95
a(I3
F1.65
tp96
aa(lp97
(NF0.0
tp98
a(I1
F1.716
tp99
aa(lp100
(NF0.0
tp101
aa(lp102
(NF0.0
tp103
a(I1
F1.665
tp104
aa(lp105
(NF0.0
tp106
a(I1
F0.984
tp107
aa(lp108
(NF0.0
tp109
a(I2
F1.184
tp110
aa(lp111
(NF0.0
tp112
a(I3
F1.334
tp113
aa(lp114
(NF0.0
tp115
a(I2
F1.316
tp116
aa(lp117
(NF0.0
tp118
a(I1
F0.904
tp119
aa(lp120
(NF0.0
tp121
a(I2
F1.943
tp122
aa(lp123
(NF0.0
tp124
a(I1
F0.671
tp125
aa(lp126
(NF0.0
tp127
a(I1
F1.219
tp128
aa(lp129
(NF0.0
tp130
a(I1
F1.511
tp131
aa(lp132
(NF0.0
tp133
a(I1
F1.665
tp134
aa(lp135
(NF0.0
tp136
a(I1
F1.668
tp137
aa(lp138
(NF0.0
tp139
a(I1
F0.795
tp140
aa(lp141
(NF0.0
tp142
a(I1
F1.897
tp143
aa(lp144
(NF0.0
tp145
a(I2
F1.119
tp146
aa(lp147
(NF0.0
tp148
a(I1
F0.845
tp149
aa(lp150
(NF0.0
tp151
a(I3
F1.599
tp152
aa(lp153
(NF0.0
tp154
a(I2
F1.329
tp155
aa(lp156
(NF0.0
tp157
a(I1
F1.869
tp158
aa(lp159
(NF0.0
tp160
a(I2
F1.631
tp161
aasS'run_time'
p162
F122.94370698928833
sS'total_iters'
p163
(lp164
I0
aI1
aI2
aI3
aI4
aI5
aI6
aI7
aI8
aI9
aI10
aI11
aI12
aI13
aI14
aI15
aI16
aI17
aI18
aI19
aI20
aI21
aI22
aI23
aI24
aI25
aI26
aI27
aI28
aI29
aI30
aI31
aI32
aI33
aI34
aI35
aI36
aI37
aI38
aI39
as.