(dp0
S'cue_tuples'
p1
(lp2
(S'cue_L'
p3
S'F'
p4
I0
tp5
a(g3
g4
I0
tp6
a(g3
g4
I0
tp7
a(g3
g4
I0
tp8
a(g3
g4
I0
tp9
a(g3
g4
I0
tp10
a(g3
g4
I0
tp11
a(g3
g4
I0
tp12
a(g3
g4
I0
tp13
a(g3
g4
I0
tp14
asS'uncued'
p15
(lp16
S'00773960620fa_sunafvsxtzaizojicxx.jpg'
p17
aS'00796941205fa_sunaguchqqnrtodtezq.jpg'
p18
aS'00098931230fa_sunaajpqmulidejvjsr.jpg'
p19
aS'00869940307fa_sunajoveqhiprwqgoco.jpg'
p20
aS'00093931230fa_sunaahwnmtqsrhocysw.jpg'
p21
aS'00576941031fa_sunacvjlsylseoghjup.jpg'
p22
aS'00903960620fa_sunanainkqdvktzoxyl.jpg'
p23
aS'00211940128fa_sunabasphceswhwwqvv.jpg'
p24
aS'00705960530fa_sunaduslxfzlbxlllnz.jpg'
p25
aS'00878960530fa_sunakgbnzxmfohgehnu.jpg'
p26
asS'cued'
p27
(lp28
S'00898960530fa_sunamkmeblgteyggink.jpg'
p29
aS'00062931230fb_sunaaelotvjgibjtjhs.jpg'
p30
aS'00630941031fa_sunadakkdovnuzlycvp.jpg'
p31
aS'00859940307fa_sunaiycurtqsfkvcaso.jpg'
p32
aS'00149931230fa_sunaauglwmctnkxyird.jpg'
p33
aS'00532960627fa_sunaccdtpgenvcbcbcf.jpg'
p34
aS'00483940519fa_sunabyvpwkgsjtijdwj.jpg'
p35
aS'00081941031fa_sunaaftlyfudyzuhqzf.jpg'
p36
aS'00777941205fa_sunagcinxkccdtrjmlv.jpg'
p37
aS'00761960627fa_sunafgdqbclkwfocdhg.jpg'
p38
asS'uncued_RT'
p39
(lp40
F0.5190320014953613
aF0.3686099052429199
aF0.3488919734954834
aF0.3604090213775635
aF0.39334797859191895
aF0.4412882328033447
aF0.4492480754852295
aF0.3377699851989746
aF0.4922771453857422
aF0.36019110679626465
asS'cued_RT'
p41
(lp42
s.