(dp0
S'images'
p1
(lp2
S'00102931230fa.jpg'
p3
aS'00900960530fa.jpg'
p4
aS'00913960530fa.jpg'
p5
aS'00809960620fa.jpg'
p6
aS'00063931230fa.jpg'
p7
aS'sunadzuvtmtmgupotmf.jpg'
p8
aS'sunalntxqqadigcletd.jpg'
p9
aS'00993960627fa.jpg'
p10
aS'00540940519fa.jpg'
p11
aS'sunabckqabszusgcykj.jpg'
p12
aS'00895960530fa.jpg'
p13
aS'sunabwfvcqqidycwypa.jpg'
p14
aS'00868960307fa.jpg'
p15
aS'sunadrmfzmstgdjdcod.jpg'
p16
aS'sunaaeplwsfslcbtojr.jpg'
p17
aS'00935960627fa.jpg'
p18
aS'00070940307fa.jpg'
p19
aS'sunagjeesomrwjsfqie.jpg'
p20
aS'sunaajspcoepticvplv.jpg'
p21
aS'sunagrmyoovzukhxmlo.jpg'
p22
aS'sunagtumacdlmciqamz.jpg'
p23
aS'01009960627fa.jpg'
p24
aS'sundahdxwmcdluscvot.jpg'
p25
aS'sunaooffzffbhcpirmm.jpg'
p26
aS'sunaloffvbvysigxent.jpg'
p27
aS'00092931230fa.jpg'
p28
aS'sunapqwnqzxlsfvgsjm.jpg'
p29
aS'sunaaekxzjzrfgtkwjf.jpg'
p30
aS'00857940307fa.jpg'
p31
aS'sunarpsxqkduedrrzyi.jpg'
p32
aS'00828940307fa.jpg'
p33
aS'sunagwzdbtlixdhgolm.jpg'
p34
aS'sunarfdklgdnjgeqfjg.jpg'
p35
aS'00676941121fa.jpg'
p36
aS'sunanaacmmosxrfwmvl.jpg'
p37
aS'sunahgtbwgsmtqeodwh.jpg'
p38
aS'sunabrlndkruqokhury.jpg'
p39
aS'00766960620fa.jpg'
p40
aS'00870940307fa.jpg'
p41
aS'sunabwjvmoaddlyxfjr.jpg'
p42
asS'ratings'
p43
(lp44
(lp45
(NF0.0
tp46
a(I2
F1.49
tp47
aa(lp48
(NF0.0
tp49
a(I2
F1.071
tp50
aa(lp51
(NF0.0
tp52
a(I3
F1.476
tp53
aa(lp54
(NF0.0
tp55
a(I2
F1.596
tp56
aa(lp57
(NF0.0
tp58
a(I2
F1.341
tp59
aa(lp60
(NF0.0
tp61
a(I2
F1.742
tp62
aa(lp63
(NF0.0
tp64
a(I2
F1.827
tp65
aa(lp66
(NF0.0
tp67
a(I2
F1.386
tp68
aa(lp69
(NF0.0
tp70
a(I2
F1.62
tp71
aa(lp72
(NF0.0
tp73
a(I3
F1.776
tp74
aa(lp75
(NF0.0
tp76
a(I2
F1.109
tp77
aa(lp78
(NF0.0
tp79
a(I1
F1.592
tp80
aa(lp81
(NF0.0
tp82
a(I1
F1.368
tp83
aa(lp84
(NF0.0
tp85
a(I4
F1.222
tp86
aa(lp87
(NF0.0
tp88
a(I4
F1.191
tp89
aa(lp90
(NF0.0
tp91
a(I2
F1.773
tp92
aa(lp93
(NF0.0
tp94
a(I3
F1.406
tp95
aa(lp96
(NF0.0
tp97
a(I3
F1.707
tp98
aa(lp99
(NF0.0
tp100
a(I3
F1.176
tp101
aa(lp102
(NF0.0
tp103
a(I2
F1.307
tp104
aa(lp105
(NF0.0
tp106
a(I2
F1.107
tp107
aa(lp108
(NF0.0
tp109
a(I2
F1.191
tp110
aa(lp111
(NF0.0
tp112
a(I4
F1.156
tp113
aa(lp114
(NF0.0
tp115
a(I4
F0.826
tp116
aa(lp117
(NF0.0
tp118
a(I3
F1.18
tp119
aa(lp120
(NF0.0
tp121
a(I2
F0.944
tp122
aa(lp123
(NF0.0
tp124
a(I1
F1.673
tp125
aa(lp126
(NF0.0
tp127
a(I1
F1.422
tp128
aa(lp129
(NF0.0
tp130
aa(lp131
(NF0.0
tp132
a(I2
F1.609
tp133
aa(lp134
(NF0.0
tp135
a(I2
F1.811
tp136
aa(lp137
(NF0.0
tp138
a(I1
F1.349
tp139
aa(lp140
(NF0.0
tp141
a(I1
F1.126
tp142
aa(lp143
(NF0.0
tp144
a(I2
F1.704
tp145
aa(lp146
(NF0.0
tp147
aa(lp148
(NF0.0
tp149
a(I3
F1.742
tp150
aa(lp151
(NF0.0
tp152
a(I2
F1.237
tp153
aa(lp154
(NF0.0
tp155
a(I2
F1.158
tp156
aa(lp157
(NF0.0
tp158
a(I1
F1.239
tp159
aa(lp160
(NF0.0
tp161
a(I1
F1.608
tp162
aasS'run_time'
p163
F123.09270191192627
sS'total_iters'
p164
(lp165
I0
aI1
aI2
aI3
aI4
aI5
aI6
aI7
aI8
aI9
aI10
aI11
aI12
aI13
aI14
aI15
aI16
aI17
aI18
aI19
aI20
aI21
aI22
aI23
aI24
aI25
aI26
aI27
aI28
aI29
aI30
aI31
aI32
aI33
aI34
aI35
aI36
aI37
aI38
aI39
as.