(dp0
S'images'
p1
(lp2
S'00131931230fb.jpg'
p3
aS'sunagjzcrjvmxzqzljx.jpg'
p4
aS'sunafxokyavhgptyfye.jpg'
p5
aS'sunaalltyvjhbzhkmvg.jpg'
p6
aS'sunaivdjruhkrfywfed.jpg'
p7
aS'00776941205fa.jpg'
p8
aS'00858940307fa.jpg'
p9
aS'sunaangbuylfvckqqoo.jpg'
p10
aS'sunajrujcsdxmfbssmc.jpg'
p11
aS'00097931230fa.jpg'
p12
aS'sunbmaiocftdtvnzgap.jpg'
p13
aS'00807941205fa.jpg'
p14
aS'sunarceibpcyacbmfga.jpg'
p15
aS'sunaamsdyakblkfoydx.jpg'
p16
aS'00090931230fa.jpg'
p17
aS'00967960627fa.jpg'
p18
aS'sunahtfxgsrmkiulnwk.jpg'
p19
aS'sunawotxrevnqvamsfp.jpg'
p20
aS'00961960627fa.jpg'
p21
aS'sunaakvmbftkrgqhjun.jpg'
p22
aS'sunaedtgwjvvziytspa.jpg'
p23
aS'00905960530fa.jpg'
p24
aS'00988960627fa.jpg'
p25
aS'00908960530fa.jpg'
p26
aS'00871940307.jpg'
p27
aS'sunbwyuesflwdpqtgoy.jpg'
p28
aS'00109931230fa.jpg'
p29
aS'sunbvzmgrdvaakxusbu.jpg'
p30
aS'00548940519fa.jpg'
p31
aS'sunbbhqyyzmsxhsbjmp.jpg'
p32
aS'sunabrjdpmoedcdjbpo.jpg'
p33
aS'sunbwdrdvsweerwsdrj.jpg'
p34
aS'00931960627fa.jpg'
p35
aS'sunahwgbqkqcrwprgvh.jpg'
p36
aS'00153931230fa.jpg'
p37
aS'00719941201fa.jpg'
p38
aS'sunabcuurugvxwparpk.jpg'
p39
aS'sunaajuzribjrizdshh.jpg'
p40
aS'sunavxokzybtomhbmvm.jpg'
p41
aS'sunaafbmtoniaasysgu.jpg'
p42
asS'ratings'
p43
(lp44
(lp45
(NF0.0
tp46
a(I3
F1.579
tp47
aa(lp48
(NF0.0
tp49
a(I2
F1.813
tp50
aa(lp51
(NF0.0
tp52
a(I2
F1.063
tp53
aa(lp54
(NF0.0
tp55
a(I2
F0.87
tp56
aa(lp57
(NF0.0
tp58
a(I1
F1.25
tp59
aa(lp60
(NF0.0
tp61
a(I3
F0.892
tp62
aa(lp63
(NF0.0
tp64
a(I2
F1.175
tp65
aa(lp66
(NF0.0
tp67
a(I1
F1.275
tp68
aa(lp69
(NF0.0
tp70
a(I2
F1.31
tp71
aa(lp72
(NF0.0
tp73
a(I3
F1.241
tp74
aa(lp75
(NF0.0
tp76
a(I1
F0.877
tp77
aa(lp78
(NF0.0
tp79
a(I2
F1.675
tp80
aa(lp81
(NF0.0
tp82
a(I1
F1.605
tp83
aa(lp84
(NF0.0
tp85
a(I1
F1.534
tp86
aa(lp87
(NF0.0
tp88
a(I3
F1.176
tp89
aa(lp90
(NF0.0
tp91
a(I3
F1.225
tp92
aa(lp93
(NF0.0
tp94
a(I2
F1.473
tp95
aa(lp96
(NF0.0
tp97
a(I1
F1.026
tp98
aa(lp99
(NF0.0
tp100
a(I2
F1.941
tp101
aa(lp102
(NF0.0
tp103
aa(lp104
(NF0.0
tp105
a(I2
F1.36
tp106
aa(lp107
(NF0.0
tp108
a(I3
F1.342
tp109
aa(lp110
(NF0.0
tp111
a(I4
F1.189
tp112
aa(lp113
(NF0.0
tp114
a(I3
F1.193
tp115
aa(lp116
(NF0.0
tp117
a(I2
F1.175
tp118
aa(lp119
(NF0.0
tp120
a(I1
F1.711
tp121
aa(lp122
(NF0.0
tp123
a(I2
F1.182
tp124
aa(lp125
(NF0.0
tp126
a(I2
F1.361
tp127
aa(lp128
(NF0.0
tp129
a(I2
F1.315
tp130
aa(lp131
(NF0.0
tp132
a(I1
F0.72
tp133
aa(lp134
(NF0.0
tp135
a(I2
F1.148
tp136
aa(lp137
(NF0.0
tp138
a(I1
F0.959
tp139
aa(lp140
(NF0.0
tp141
a(I2
F1.604
tp142
aa(lp143
(NF0.0
tp144
a(I1
F1.652
tp145
aa(lp146
(NF0.0
tp147
a(I3
F1.61
tp148
aa(lp149
(NF0.0
tp150
a(I2
F0.958
tp151
aa(lp152
(NF0.0
tp153
a(I1
F1.94
tp154
aa(lp155
(NF0.0
tp156
a(I1
F1.562
tp157
aa(lp158
(NF0.0
tp159
a(I2
F1.166
tp160
aa(lp161
(NF0.0
tp162
a(I1
F1.639
tp163
aasS'run_time'
p164
F123.1090669631958
sS'total_iters'
p165
(lp166
I0
aI1
aI2
aI3
aI4
aI5
aI6
aI7
aI8
aI9
aI10
aI11
aI12
aI13
aI14
aI15
aI16
aI17
aI18
aI19
aI20
aI21
aI22
aI23
aI24
aI25
aI26
aI27
aI28
aI29
aI30
aI31
aI32
aI33
aI34
aI35
aI36
aI37
aI38
aI39
as.