(dp0
S'cue_tuples'
p1
(lp2
(S'cue_L'
p3
S'L'
p4
I0
tp5
a(g3
g4
I0
tp6
a(g3
g4
I0
tp7
a(g3
g4
I1
tp8
a(g3
g4
I0
tp9
a(g3
g4
I0
tp10
a(g3
g4
I0
tp11
a(g3
g4
I0
tp12
a(g3
g4
I1
tp13
a(g3
g4
I0
tp14
asS'uncued'
p15
(lp16
S'00788941205fa_sunagountlxpzkytsmp.jpg'
p17
aS'00950960627fa_sunasrjlmglmjzbmqxb.jpg'
p18
aS'00815941205fa_sunahiphsekjihkafsl.jpg'
p19
aS'00906960530fa_sunantryfbloeaomfta.jpg'
p20
aS'00133931230fa_sunaanlwnpqndclffxt.jpg'
p21
aS'00290940422fa_sunabqowuarvqqcnipn.jpg'
p22
aS'00910960530fa_sunaofikylqtxphvdem.jpg'
p23
aS'00636941031fa_sunaddtdkycxbqlpfqa.jpg'
p24
aS'00790941205fa_sunagpjzsbltchlwvou.jpg'
p25
aS'00774941201fa_sunafvtpfczkzopbgue.jpg'
p26
asS'cued'
p27
(lp28
S'00957960627fa_sunavhxgmgrqsaptynb.jpg'
p29
aS'00209940128fb_sunabaergayifsgacxt.jpg'
p30
aS'00785941205fa_sunaglqunwuycxydmyu.jpg'
p31
aS'00786941205fa_sunagmhildamktmqjss.jpg'
p32
aS'00751960620fa_sunaezuszgtxnmsxdbk.jpg'
p33
aS'00882960530fa_sunaknlirqjqiwbbeeg.jpg'
p34
aS'00775941205fa_sunafvwfsmqkjrutjta.jpg'
p35
aS'00921960627fa_sunapqkpqdfvxlbqwyo.jpg'
p36
aS'00681941121fa_sunadqmjrhfjyuzyvdd.jpg'
p37
aS'00529940519fa_sunacbeefkxpymwevpk.jpg'
p38
asS'uncued_RT'
p39
(lp40
F0.7230219841003418
aF0.5236589908599854
aF0.3885631561279297
aF0.5091671943664551
aF0.4663400650024414
aF0.310042142868042
aF0.3628270626068115
aF0.3377559185028076
aF0.31465601921081543
aF0.33672094345092773
asS'cued_RT'
p41
(lp42
s.