(lp0
S'Very engaging'
p1
aS'Neutral'
p2
accopy_reg
_reconstructor
p3
(cfuture.types.newstr
newstr
p4
c__builtin__
unicode
p5
VYes - the scenes were easier because of the contrasts in color and the shapes or distinct features made them easier to recognize/recall.
p6
tp7
Rp8
ag3
(g4
g5
VYes - the right side
p9
tp10
Rp11
ag3
(g4
g5
VHair, mouth and eyes for the faces. Shapes and patterns for the scenes.
p12
tp13
Rp14
a.