(dp0
S'images'
p1
(lp2
S'00838940307fa.jpg'
p3
aS'sunaahzooisqkwlxwoz.jpg'
p4
aS'sunaaeplwsfslcbtojr.jpg'
p5
aS'sunaakmxzhuceuiryah.jpg'
p6
aS'sunbbxkanhzjgbwyxqs.jpg'
p7
aS'00280940422fb.jpg'
p8
aS'sunahuynahneraqftyz.jpg'
p9
aS'00911960530fa.jpg'
p10
aS'00752960620fa.jpg'
p11
aS'00096931230fa.jpg'
p12
aS'00763941205fa.jpg'
p13
aS'sunaaiqiqcggrskoqgy.jpg'
p14
aS'sunaduslxfzlbxlllnz.jpg'
p15
aS'sunaivdjruhkrfywfed.jpg'
p16
aS'sunbwtlihsuptkrckid.jpg'
p17
aS'00933960627fa.jpg'
p18
aS'sunapwjkcxdaeqehfql.jpg'
p19
aS'sunbvzmgrdvaakxusbu.jpg'
p20
aS'00316940422fa.jpg'
p21
aS'00557940519fa.jpg'
p22
aS'sunaauglwmctnkxyird.jpg'
p23
aS'sunagufzbeteqdjxais.jpg'
p24
aS'sunadpnqovzckyikrjo.jpg'
p25
aS'00847940307fa.jpg'
p26
aS'sunabxmguapjekttvwm.jpg'
p27
aS'00081941031fa.jpg'
p28
aS'sunaaxjpzcnxligjtjq.jpg'
p29
aS'00115931230fa.jpg'
p30
aS'00977960627fa.jpg'
p31
aS'00070940307fa.jpg'
p32
aS'sunafhmnhsdurlvddpw.jpg'
p33
aS'00146960620fb.jpg'
p34
aS'00630940928fa.jpg'
p35
aS'sunafbwnojpqeyzssoe.jpg'
p36
aS'00705960530fa.jpg'
p37
aS'00676941121fa.jpg'
p38
aS'00996960627fa.jpg'
p39
aS'01000960627fa.jpg'
p40
aS'01004960627fa.jpg'
p41
aS'sunaooaqzputrowwbsw.jpg'
p42
asS'ratings'
p43
(lp44
(lp45
(NF0.0
tp46
aa(lp47
(NF0.0
tp48
a(I2
F1.364
tp49
aa(lp50
(NF0.0
tp51
aa(lp52
(NF0.0
tp53
aa(lp54
(NF0.0
tp55
a(I4
F1.696
tp56
aa(lp57
(NF0.0
tp58
a(I3
F1.767
tp59
aa(lp60
(NF0.0
tp61
aa(lp62
(NF0.0
tp63
a(I2
F1.335
tp64
aa(lp65
(NF0.0
tp66
a(I3
F1.906
tp67
aa(lp68
(NF0.0
tp69
a(I4
F1.379
tp70
aa(lp71
(NF0.0
tp72
a(I2
F1.897
tp73
aa(lp74
(NF0.0
tp75
a(I4
F1.649
tp76
aa(lp77
(NF0.0
tp78
a(I2
F1.831
tp79
aa(lp80
(NF0.0
tp81
a(I4
F1.372
tp82
aa(lp83
(NF0.0
tp84
a(I4
F1.207
tp85
aa(lp86
(NF0.0
tp87
a(I3
F1.481
tp88
aa(lp89
(NF0.0
tp90
aa(lp91
(NF0.0
tp92
a(I2
F1.463
tp93
aa(lp94
(NF0.0
tp95
aa(lp96
(NF0.0
tp97
a(I4
F1.143
tp98
aa(lp99
(NF0.0
tp100
a(I2
F1.263
tp101
aa(lp102
(NF0.0
tp103
aa(lp104
(NF0.0
tp105
a(I3
F1.219
tp106
aa(lp107
(NF0.0
tp108
a(I2
F1.196
tp109
aa(lp110
(NF0.0
tp111
a(I4
F1.314
tp112
aa(lp113
(NF0.0
tp114
a(I2
F1.047
tp115
aa(lp116
(NF0.0
tp117
a(I4
F1.863
tp118
aa(lp119
(NF0.0
tp120
a(I2
F1.063
tp121
aa(lp122
(NF0.0
tp123
a(I3
F1.68
tp124
aa(lp125
(NF0.0
tp126
a(I2
F1.896
tp127
aa(lp128
(NF0.0
tp129
aa(lp130
(NF0.0
tp131
a(I2
F1.23
tp132
aa(lp133
(NF0.0
tp134
a(I2
F1.237
tp135
aa(lp136
(NF0.0
tp137
a(I2
F1.586
tp138
aa(lp139
(NF0.0
tp140
a(I2
F0.981
tp141
aa(lp142
(NF0.0
tp143
a(I2
F0.764
tp144
aa(lp145
(NF0.0
tp146
a(I2
F1.479
tp147
aa(lp148
(NF0.0
tp149
a(I1
F1.18
tp150
aa(lp151
(NF0.0
tp152
aa(lp153
(NF0.0
tp154
a(I1
F1.495
tp155
aasS'run_time'
p156
F122.84565901756287
sS'total_iters'
p157
(lp158
I0
aI1
aI2
aI3
aI4
aI5
aI6
aI7
aI8
aI9
aI10
aI11
aI12
aI13
aI14
aI15
aI16
aI17
aI18
aI19
aI20
aI21
aI22
aI23
aI24
aI25
aI26
aI27
aI28
aI29
aI30
aI31
aI32
aI33
aI34
aI35
aI36
aI37
aI38
aI39
as.