(dp0
S'images'
p1
(lp2
S'sunafvtpfczkzopbgue.jpg'
p3
aS'00949960627fb.jpg'
p4
aS'sunapmfmzadmosuogaz.jpg'
p5
aS'sunabmbnddafmywtjjj.jpg'
p6
aS'00778941205fa.jpg'
p7
aS'sunbaoizrfijvhpnnjn.jpg'
p8
aS'00130931230fa.jpg'
p9
aS'sunaqbmgkgqucajzrkp.jpg'
p10
aS'00609940928fa.jpg'
p11
aS'00866940307fa.jpg'
p12
aS'00271940422fa.jpg'
p13
aS'00138931230fa.jpg'
p14
aS'00154931230fa.jpg'
p15
aS'00730960620fa.jpg'
p16
aS'sunajawzbrlrwafowen.jpg'
p17
aS'sunaeomlfaabhpswasy.jpg'
p18
aS'00108960530fa.jpg'
p19
aS'sunacycdoztxoluxjyk.jpg'
p20
aS'00197940128fa.jpg'
p21
aS'00968960627fa.jpg'
p22
aS'00158931230fb.jpg'
p23
aS'00935960627fa.jpg'
p24
aS'00864940307fa.jpg'
p25
aS'sunaamvxnvouicstkjb.jpg'
p26
aS'00749941201fa.jpg'
p27
aS'00239940128fa.jpg'
p28
aS'00774941201fa.jpg'
p29
aS'00919960620fa.jpg'
p30
aS'00221940128fa.jpg'
p31
aS'00931960627fa.jpg'
p32
aS'00985960627fa.jpg'
p33
aS'sunabcfpwlpolnutyju.jpg'
p34
aS'sunaibnpvhkdpdnzcnz.jpg'
p35
aS'00787941205fa.jpg'
p36
aS'00124931230fa.jpg'
p37
aS'00800941205fb.jpg'
p38
aS'sunaaylzyqlqrsmfwif.jpg'
p39
aS'00294940422fb.jpg'
p40
aS'sunaptrqvaooxfvktvw.jpg'
p41
aS'sunaekgzpfilgjxpeyq.jpg'
p42
asS'ratings'
p43
(lp44
(lp45
(NF0.0
tp46
aa(lp47
(NF0.0
tp48
a(I1
F1.397
tp49
aa(lp50
(NF0.0
tp51
a(I1
F1.745
tp52
aa(lp53
(NF0.0
tp54
a(I1
F1.664
tp55
aa(lp56
(NF0.0
tp57
a(I3
F1.501
tp58
aa(lp59
(NF0.0
tp60
a(I2
F1.139
tp61
aa(lp62
(NF0.0
tp63
a(I2
F1.5
tp64
aa(lp65
(NF0.0
tp66
a(I1
F1.014
tp67
aa(lp68
(NF0.0
tp69
a(I2
F1.222
tp70
aa(lp71
(NF0.0
tp72
a(I3
F1.43
tp73
aa(lp74
(NF0.0
tp75
a(I3
F1.094
tp76
aa(lp77
(NF0.0
tp78
a(I2
F1.264
tp79
aa(lp80
(NF0.0
tp81
a(I2
F1.296
tp82
aa(lp83
(NF0.0
tp84
a(I2
F1.071
tp85
aa(lp86
(NF0.0
tp87
a(I2
F1.314
tp88
aa(lp89
(NF0.0
tp90
a(I3
F1.447
tp91
aa(lp92
(NF0.0
tp93
a(I2
F1.547
tp94
aa(lp95
(NF0.0
tp96
a(I2
F1.215
tp97
aa(lp98
(NF0.0
tp99
a(I2
F1.678
tp100
aa(lp101
(NF0.0
tp102
a(I3
F1.194
tp103
aa(lp104
(NF0.0
tp105
a(I4
F1.23
tp106
aa(lp107
(NF0.0
tp108
a(I3
F1.312
tp109
aa(lp110
(NF0.0
tp111
a(I2
F1.462
tp112
aa(lp113
(NF0.0
tp114
a(I2
F1.049
tp115
aa(lp116
(NF0.0
tp117
a(I2
F1.768
tp118
aa(lp119
(NF0.0
tp120
a(I2
F1.43
tp121
aa(lp122
(NF0.0
tp123
a(I3
F0.83
tp124
aa(lp125
(NF0.0
tp126
a(I2
F1.147
tp127
aa(lp128
(NF0.0
tp129
a(I4
F1.213
tp130
aa(lp131
(NF0.0
tp132
a(I1
F1.097
tp133
aa(lp134
(NF0.0
tp135
a(I2
F1.513
tp136
aa(lp137
(NF0.0
tp138
a(I2
F1.398
tp139
aa(lp140
(NF0.0
tp141
a(I2
F1.262
tp142
aa(lp143
(NF0.0
tp144
a(I2
F0.964
tp145
aa(lp146
(NF0.0
tp147
a(I4
F1.344
tp148
aa(lp149
(NF0.0
tp150
a(I1
F1.514
tp151
aa(lp152
(NF0.0
tp153
a(I2
F1.796
tp154
aa(lp155
(NF0.0
tp156
a(I2
F0.858
tp157
aa(lp158
(NF0.0
tp159
a(I1
F0.98
tp160
aa(lp161
(NF0.0
tp162
a(I1
F0.691
tp163
aasS'run_time'
p164
F123.16210579872131
sS'total_iters'
p165
(lp166
I0
aI1
aI2
aI3
aI4
aI5
aI6
aI7
aI8
aI9
aI10
aI11
aI12
aI13
aI14
aI15
aI16
aI17
aI18
aI19
aI20
aI21
aI22
aI23
aI24
aI25
aI26
aI27
aI28
aI29
aI30
aI31
aI32
aI33
aI34
aI35
aI36
aI37
aI38
aI39
as.