(dp0
S'cue_tuples'
p1
(lp2
(S'cue_L'
p3
S'F'
p4
I0
tp5
a(g3
g4
I1
tp6
a(g3
g4
I0
tp7
a(g3
g4
I0
tp8
a(g3
g4
I0
tp9
a(g3
g4
I0
tp10
a(g3
g4
I1
tp11
a(g3
g4
I0
tp12
a(g3
g4
I0
tp13
a(g3
g4
I0
tp14
asS'uncued'
p15
(lp16
S'00262940128fa_sunabizydfotqddlnjp.jpg'
p17
aS'00198940128fb_sunaazezcsunmhttzxz.jpg'
p18
aS'00681941121fa_sunadqmjrhfjyuzyvdd.jpg'
p19
aS'00955960627fb_sunauburywlkjszngcq.jpg'
p20
aS'00119931230fb_sunaakvmbftkrgqhjun.jpg'
p21
aS'00746941201fa_sunaetydippjxikifsb.jpg'
p22
aS'00961960627fa_sunawotxrevnqvamsfp.jpg'
p23
aS'00987960627fa_sunbloeoiozwjjsiamp.jpg'
p24
aS'01009960627fa_sunbxzweleltykebgan.jpg'
p25
aS'00751960620fa_sunaezuszgtxnmsxdbk.jpg'
p26
asS'cued'
p27
(lp28
S'00905960530fa_sunanmoqeyprjjjfxjt.jpg'
p29
aS'00162931230fb_sunaavjinpnkappuonm.jpg'
p30
aS'00132931230fb_sunaanjcbzdvtvblsdy.jpg'
p31
aS'00836940307fa_sunainqelldeebvxtcz.jpg'
p32
aS'00498960627fa_sunabzjxlmkwnwzimua.jpg'
p33
aS'00914960620fa_sunaozisvwfbmlkfhzv.jpg'
p34
aS'00925960627fa_sunapqwnqzxlsfvgsjm.jpg'
p35
aS'00505960627fa_sunabzuqsrgcsonqlkz.jpg'
p36
aS'00242940128fa_sunabcuurugvxwparpk.jpg'
p37
aS'00532960627fa_sunaccdtpgenvcbcbcf.jpg'
p38
asS'uncued_RT'
p39
(lp40
F0.7550430297851562
aF0.7918429374694824
aF0.471729040145874
aF0.4240071773529053
aF0.4023730754852295
aF0.5409719944000244
aF0.6110320091247559
aF0.4216458797454834
aF0.36841583251953125
aF0.3506770133972168
asS'cued_RT'
p41
(lp42
s.