(dp0
S'cue_tuples'
p1
(lp2
(S'cue_R'
p3
S'L'
p4
I0
tp5
a(g3
g4
I0
tp6
a(g3
g4
I0
tp7
a(g3
g4
I1
tp8
a(g3
g4
I0
tp9
a(g3
g4
I0
tp10
a(g3
g4
I0
tp11
a(g3
g4
I0
tp12
a(g3
g4
I0
tp13
a(g3
g4
I0
tp14
asS'uncued'
p15
(lp16
S'00848940307fa_sunaivdylrawbmhryfp.jpg'
p17
aS'00909960530_sunaobtizabegtwfwul.jpg'
p18
aS'00770941201fa_sunaflojskatpeqyzqp.jpg'
p19
aS'00779941205fa_sunagdzlvkqtpnfxfcg.jpg'
p20
aS'00071941031fa_sunaaexqbtdswxrqjvz.jpg'
p21
aS'00825940307fa_sunahrltmuwbiehihpe.jpg'
p22
aS'00841940307fa_sunaisiwfgppimtnmxl.jpg'
p23
aS'00958960627fa_sunavspxmxubqaeidjt.jpg'
p24
aS'00978960627fa_sunbddbivbptlrlauhy.jpg'
p25
aS'00818940307fa_sunahpblecxtmuzkmxb.jpg'
p26
asS'cued'
p27
(lp28
S'00771941205fa_sunafowswglhxcsufpo.jpg'
p29
aS'00302940422fa_sunabtlfmiwtljmoues.jpg'
p30
aS'00574940928fa_sunacvbrcejzwmcgnoq.jpg'
p31
aS'00080931230fb_sunaafjszryxyavjzln.jpg'
p32
aS'00793941205fa_sunagtjwilqjvxohypn.jpg'
p33
aS'00638941031fa_sunadfktsqjthoglcsm.jpg'
p34
aS'00742941201fa_sunaenwuebvlpdmntju.jpg'
p35
aS'00760960620fa_sunaffstbkappprzxnv.jpg'
p36
aS'00754941201fa_sunaffgsyyvoqdlkmnk.jpg'
p37
aS'00635941031fa_sunaddsaeicthrfbkhe.jpg'
p38
asS'uncued_RT'
p39
(lp40
F0.5915789604187012
asS'cued_RT'
p41
(lp42
F0.3745269775390625
aF0.5315289497375488
aF0.3535192012786865
aF0.563474178314209
aF0.5515189170837402
aF0.30936598777770996
aF0.46835899353027344
aF0.42919182777404785
aF0.31001806259155273
as.