(dp0
S'images'
p1
(lp2
S'00877960530fa.jpg'
p3
aS'sunacepzfrmtkiqonpy.jpg'
p4
aS'00745941205fa.jpg'
p5
aS'sunarpsxqkduedrrzyi.jpg'
p6
aS'sunaglqunwuycxydmyu.jpg'
p7
aS'sunarfdklgdnjgeqfjg.jpg'
p8
aS'00112931230fa.jpg'
p9
aS'00744941201fa.jpg'
p10
aS'sunbdycacjfaujxitbw.jpg'
p11
aS'sunaajuzribjrizdshh.jpg'
p12
aS'00227940128fa.jpg'
p13
aS'00979960627fa.jpg'
p14
aS'sunawksfbacycuhbrsc.jpg'
p15
aS'00862940307fa.jpg'
p16
aS'00942960627fa.jpg'
p17
aS'sunagwswhkvnsmuszlz.jpg'
p18
aS'sunaprnrbmgkomdbchr.jpg'
p19
aS'sunapqkpqdfvxlbqwyo.jpg'
p20
aS'00921960627fa.jpg'
p21
aS'sunajxpkuhbizeveguy.jpg'
p22
aS'sunavxokzybtomhbmvm.jpg'
p23
aS'00795941205fa.jpg'
p24
aS'00871940307.jpg'
p25
aS'sunajrujcsdxmfbssmc.jpg'
p26
aS'sunaakjaacuzulqckgl.jpg'
p27
aS'sunaeouogqolxvggaoq.jpg'
p28
aS'sunaafewhewbxmjiurz.jpg'
p29
aS'00988960627fa.jpg'
p30
aS'00101931230fb.jpg'
p31
aS'00313940422fa.jpg'
p32
aS'00116931230fa.jpg'
p33
aS'sunaizgnnplsvajzhkc.jpg'
p34
aS'sunabueyoajufbkraki.jpg'
p35
aS'00804960530fa.jpg'
p36
aS'00959960627fa.jpg'
p37
aS'sunagtumacdlmciqamz.jpg'
p38
aS'00943960627fa.jpg'
p39
aS'sunabwjvmoaddlyxfjr.jpg'
p40
aS'sunabxsuqbleluwczoy.jpg'
p41
aS'00858940307fa.jpg'
p42
asS'ratings'
p43
(lp44
(lp45
(NF0.0
tp46
a(I2
F1.53
tp47
aa(lp48
(NF0.0
tp49
a(I1
F1.345
tp50
aa(lp51
(NF0.0
tp52
a(I2
F1.414
tp53
aa(lp54
(NF0.0
tp55
a(I2
F1.111
tp56
aa(lp57
(NF0.0
tp58
a(I4
F1.396
tp59
aa(lp60
(NF0.0
tp61
a(I2
F0.929
tp62
aa(lp63
(NF0.0
tp64
a(I2
F1.262
tp65
aa(lp66
(NF0.0
tp67
a(I2
F1.4
tp68
aa(lp69
(NF0.0
tp70
a(I4
F1.463
tp71
aa(lp72
(NF0.0
tp73
a(I2
F1.012
tp74
aa(lp75
(NF0.0
tp76
a(I2
F0.912
tp77
aa(lp78
(NF0.0
tp79
a(I3
F1.428
tp80
aa(lp81
(NF0.0
tp82
a(I2
F1.012
tp83
aa(lp84
(NF0.0
tp85
a(I4
F0.913
tp86
aa(lp87
(NF0.0
tp88
a(I2
F1.046
tp89
aa(lp90
(NF0.0
tp91
a(I2
F0.964
tp92
aa(lp93
(NF0.0
tp94
a(I3
F1.313
tp95
aa(lp96
(NF0.0
tp97
a(I4
F1.194
tp98
aa(lp99
(NF0.0
tp100
a(I3
F1.296
tp101
aa(lp102
(NF0.0
tp103
a(I2
F1.342
tp104
aa(lp105
(NF0.0
tp106
a(I3
F1.645
tp107
aa(lp108
(NF0.0
tp109
a(I2
F1.162
tp110
aa(lp111
(NF0.0
tp112
a(I3
F1.263
tp113
aa(lp114
(NF0.0
tp115
aa(lp116
(NF0.0
tp117
a(I2
F0.863
tp118
aa(lp119
(NF0.0
tp120
a(I3
F1.411
tp121
aa(lp122
(NF0.0
tp123
a(I4
F0.76
tp124
aa(lp125
(NF0.0
tp126
a(I3
F0.995
tp127
aa(lp128
(NF0.0
tp129
a(I4
F0.895
tp130
aa(lp131
(NF0.0
tp132
a(I2
F0.996
tp133
aa(lp134
(NF0.0
tp135
a(I2
F0.713
tp136
aa(lp137
(NF0.0
tp138
a(I1
F0.946
tp139
aa(lp140
(NF0.0
tp141
a(I2
F0.927
tp142
aa(lp143
(NF0.0
tp144
a(I2
F0.896
tp145
aa(lp146
(NF0.0
tp147
a(I1
F1.413
tp148
aa(lp149
(NF0.0
tp150
a(I1
F1.046
tp151
aa(lp152
(NF0.0
tp153
a(I2
F0.761
tp154
aa(lp155
(NF0.0
tp156
a(I4
F1.212
tp157
aa(lp158
(NF0.0
tp159
a(I3
F1.479
tp160
aa(lp161
(NF0.0
tp162
a(I2
F0.779
tp163
aasS'run_time'
p164
F122.84607195854187
sS'total_iters'
p165
(lp166
I0
aI1
aI2
aI3
aI4
aI5
aI6
aI7
aI8
aI9
aI10
aI11
aI12
aI13
aI14
aI15
aI16
aI17
aI18
aI19
aI20
aI21
aI22
aI23
aI24
aI25
aI26
aI27
aI28
aI29
aI30
aI31
aI32
aI33
aI34
aI35
aI36
aI37
aI38
aI39
as.