(dp0
S'cued'
p1
(lp2
S'277_96.jpg'
p3
aS'275_94.jpg'
p4
asS'cued_RT'
p5
(lp6
sS'cue_Right'
p7
(lp8
I0
aI0
asS'run_time'
p9
F6.197696924209595
sS'uncued'
p10
(lp11
S'280_99.jpg'
p12
aS'274_93.jpg'
p13
asS'total_iters'
p14
I2
sS'uncued_RT'
p15
(lp16
F0.47139596939086914
aF0.3939170837402344
as.