(dp0
S'cued'
p1
(lp2
S'277_96.jpg'
p3
aS'275_94.jpg'
p4
asS'cued_RT'
p5
(lp6
sS'cue_Right'
p7
(lp8
I0
aI0
asS'run_time'
p9
F6.147531986236572
sS'uncued'
p10
(lp11
S'271_100.jpg'
p12
aS'274_93.jpg'
p13
asS'total_iters'
p14
I2
sS'uncued_RT'
p15
(lp16
F0.46486520767211914
aF0.41205692291259766
as.