(dp0
S'images'
p1
(lp2
S'00086931230fa.jpg'
p3
aS'00101931230fb.jpg'
p4
aS'00119931230fb.jpg'
p5
aS'sunaaeowapdkwzqpgqr.jpg'
p6
aS'sunaajspcoepticvplv.jpg'
p7
aS'sunaiwfobocrruqznsv.jpg'
p8
aS'00768941205fa.jpg'
p9
aS'sunaflojskatpeqyzqp.jpg'
p10
aS'00071940128fa.jpg'
p11
aS'00777941205fa.jpg'
p12
aS'sunapqwoeotxshkukbh.jpg'
p13
aS'00102931230fa.jpg'
p14
aS'00770941201fa.jpg'
p15
aS'00133931230fa.jpg'
p16
aS'00773960620fa.jpg'
p17
aS'sunafvsxtzaizojicxx.jpg'
p18
aS'00889960530fa.jpg'
p19
aS'00069931230fb.jpg'
p20
aS'sunahctntqrunhdxhtb.jpg'
p21
aS'sunaqsolmfydodnakub.jpg'
p22
aS'sunarpsxqkduedrrzyi.jpg'
p23
aS'00650941031fa.jpg'
p24
aS'00864940307fa.jpg'
p25
aS'sunagcthdfirrcawoic.jpg'
p26
aS'sunagcinxkccdtrjmlv.jpg'
p27
aS'00163931230fb.jpg'
p28
aS'sunaprnrbmgkomdbchr.jpg'
p29
aS'sunaagcpoejbuzyvddd.jpg'
p30
aS'sunaazzyhbvqjpmazjq.jpg'
p31
aS'00959960627fa.jpg'
p32
aS'sunbfzchmomnvzhbxdg.jpg'
p33
aS'sunafcofuuzebuadceo.jpg'
p34
aS'sunacerqowiaeoqkmsq.jpg'
p35
aS'sunaaeplwsfslcbtojr.jpg'
p36
aS'sunabkmdplkdbvxriff.jpg'
p37
aS'sunaknlirqjqiwbbeeg.jpg'
p38
aS'sunakgbnzxmfohgehnu.jpg'
p39
aS'00801941205fa.jpg'
p40
aS'00260940128fa.jpg'
p41
aS'suncnkvbhypnivcohyx.jpg'
p42
asS'ratings'
p43
(lp44
(lp45
(NF0.0
tp46
a(I1
F1.087
tp47
aa(lp48
(NF0.0
tp49
a(I1
F1.221
tp50
aa(lp51
(NF0.0
tp52
a(I1
F1.823
tp53
aa(lp54
(NF0.0
tp55
a(I4
F1.382
tp56
aa(lp57
(NF0.0
tp58
a(I4
F0.789
tp59
aa(lp60
(NF0.0
tp61
a(I3
F1.593
tp62
aa(lp63
(NF0.0
tp64
a(I2
F1.584
tp65
aa(lp66
(NF0.0
tp67
a(I4
F1.325
tp68
aa(lp69
(NF0.0
tp70
a(I1
F0.997
tp71
aa(lp72
(NF0.0
tp73
a(I1
F0.852
tp74
aa(lp75
(NF0.0
tp76
a(I4
F0.965
tp77
aa(lp78
(NF0.0
tp79
a(I1
F1.101
tp80
aa(lp81
(NF0.0
tp82
a(I2
F1.246
tp83
aa(lp84
(NF0.0
tp85
a(I1
F1.109
tp86
aa(lp87
(NF0.0
tp88
a(I1
F1.058
tp89
aa(lp90
(NF0.0
tp91
a(I4
F0.978
tp92
aa(lp93
(NF0.0
tp94
a(I2
F1.274
tp95
aa(lp96
(NF0.0
tp97
a(I2
F1.968
tp98
aa(lp99
(NF0.0
tp100
a(I3
F1.571
tp101
aa(lp102
(NF0.0
tp103
a(I3
F1.403
tp104
aa(lp105
(NF0.0
tp106
a(I3
F1.718
tp107
aa(lp108
(NF0.0
tp109
a(I1
F1.761
tp110
aa(lp111
(NF0.0
tp112
a(I2
F1.569
tp113
aa(lp114
(NF0.0
tp115
a(I2
F1.379
tp116
aa(lp117
(NF0.0
tp118
a(I2
F1.23
tp119
aa(lp120
(NF0.0
tp121
a(I1
F0.948
tp122
aa(lp123
(NF0.0
tp124
a(I2
F1.64
tp125
aa(lp126
(NF0.0
tp127
a(I1
F1.116
tp128
aa(lp129
(NF0.0
tp130
aa(lp131
(NF0.0
tp132
a(I2
F1.218
tp133
aa(lp134
(NF0.0
tp135
a(I2
F1.483
tp136
aa(lp137
(NF0.0
tp138
a(I2
F1.227
tp139
aa(lp140
(NF0.0
tp141
aa(lp142
(NF0.0
tp143
a(I2
F1.917
tp144
aa(lp145
(NF0.0
tp146
a(I1
F1.587
tp147
aa(lp148
(NF0.0
tp149
a(I1
F1.063
tp150
aa(lp151
(NF0.0
tp152
a(I1
F1.479
tp153
aa(lp154
(NF0.0
tp155
a(I2
F1.188
tp156
aa(lp157
(NF0.0
tp158
a(I2
F1.082
tp159
aa(lp160
(NF0.0
tp161
a(I2
F1.159
tp162
aasS'run_time'
p163
F123.17642521858215
sS'total_iters'
p164
(lp165
I0
aI1
aI2
aI3
aI4
aI5
aI6
aI7
aI8
aI9
aI10
aI11
aI12
aI13
aI14
aI15
aI16
aI17
aI18
aI19
aI20
aI21
aI22
aI23
aI24
aI25
aI26
aI27
aI28
aI29
aI30
aI31
aI32
aI33
aI34
aI35
aI36
aI37
aI38
aI39
as.