(dp0
S'cue_tuples'
p1
(lp2
(S'cue_L'
p3
S'L'
p4
I0
tp5
a(g3
g4
I0
tp6
a(g3
g4
I0
tp7
a(g3
g4
I0
tp8
a(g3
g4
I0
tp9
a(g3
g4
I0
tp10
a(g3
g4
I0
tp11
a(g3
g4
I0
tp12
a(g3
g4
I0
tp13
a(g3
g4
I0
tp14
asS'uncued'
p15
(lp16
S'00943960627fa_sunarpsxqkduedrrzyi.jpg'
p17
aS'00119931230fb_sunaakvmbftkrgqhjun.jpg'
p18
aS'00889960530fa_sunaletopenvvozhpxc.jpg'
p19
aS'00773960620fa_sunafvsxtzaizojicxx.jpg'
p20
aS'00753941201fa_sunafcofuuzebuadceo.jpg'
p21
aS'00768941205fa_sunafkmnlytenlsywia.jpg'
p22
aS'00777941205fa_sunagcinxkccdtrjmlv.jpg'
p23
aS'00937960627fa_sunaqsolmfydodnakub.jpg'
p24
aS'00540940519fa_sunacdnquypmsshhsbk.jpg'
p25
aS'00149931230fa_sunaauglwmctnkxyird.jpg'
p26
asS'cued'
p27
(lp28
S'00770941201fa_sunaflojskatpeqyzqp.jpg'
p29
aS'00102931230fa_sunaajspcoepticvplv.jpg'
p30
aS'00086931230fa_sunaafynehyrzpsoaml.jpg'
p31
aS'00965960627fa_sunaydywdmvlfddbxbk.jpg'
p32
aS'00719960620fa_sunadzuvtmtmgupotmf.jpg'
p33
aS'00125931230fa_sunaalltyvjhbzhkmvg.jpg'
p34
aS'00069931230fb_sunaaeowapdkwzqpgqr.jpg'
p35
aS'00926960627Fa_sunapqwoeotxshkukbh.jpg'
p36
aS'00810941205fa_sunahctntqrunhdxhtb.jpg'
p37
aS'00133931230fa_sunaanlwnpqndclffxt.jpg'
p38
asS'uncued_RT'
p39
(lp40
F0.4183769226074219
aF0.4585268497467041
aF0.6160030364990234
aF0.54457688331604
aF0.4981861114501953
aF0.4539971351623535
aF0.6394050121307373
aF0.6578450202941895
aF0.8104250431060791
aF0.44980812072753906
asS'cued_RT'
p41
(lp42
s.