(dp0
S'images'
p1
(lp2
S'sunabizydfotqddlnjp.jpg'
p3
aS'sunaffstbkappprzxnv.jpg'
p4
aS'00562941031fa.jpg'
p5
aS'sunbddbivbptlrlauhy.jpg'
p6
aS'sunaatpeezlljqaxlhj.jpg'
p7
aS'00529940519fa.jpg'
p8
aS'00743941201fa.jpg'
p9
aS'00752960620fa.jpg'
p10
aS'sunbpvgllfdejxcpjqp.jpg'
p11
aS'00073931230fa.jpg'
p12
aS'sunaangbuylfvckqqoo.jpg'
p13
aS'sunafvtpfczkzopbgue.jpg'
p14
aS'00819940307fa.jpg'
p15
aS'sunaafbmtoniaasysgu.jpg'
p16
aS'sunabrlndkruqokhury.jpg'
p17
aS'00294940422fb.jpg'
p18
aS'sunaahwnmtqsrhocysw.jpg'
p19
aS'sunaloffvbvysigxent.jpg'
p20
aS'sunavxokzybtomhbmvm.jpg'
p21
aS'00153931230fa.jpg'
p22
aS'00131931230fb.jpg'
p23
aS'sunafbwnojpqeyzssoe.jpg'
p24
aS'00893960530Fa.jpg'
p25
aS'00960960627fa.jpg'
p26
aS'sunadtlxenqqxsyjvix.jpg'
p27
aS'sunacbeefkxpymwevpk.jpg'
p28
aS'sunainqelldeebvxtcz.jpg'
p29
aS'00574940928fa.jpg'
p30
aS'00093931230fa.jpg'
p31
aS'sunaanjcbzdvtvblsdy.jpg'
p32
aS'sunamczizlzavhzhpay.jpg'
p33
aS'00557940519fa.jpg'
p34
aS'sunahmhrncocyhsjpxk.jpg'
p35
aS'sunapwjkcxdaeqehfql.jpg'
p36
aS'sunaaelyvurpntclgau.jpg'
p37
aS'sunadflbrkckmepztql.jpg'
p38
aS'00793941205fa.jpg'
p39
aS'sunacsaovnjezqwbykf.jpg'
p40
aS'sunaivdjruhkrfywfed.jpg'
p41
aS'sunasnqkkyhilqkxiqm.jpg'
p42
asS'ratings'
p43
(lp44
(lp45
(NF0.0
tp46
a(I1
F1.543
tp47
aa(lp48
(NF0.0
tp49
a(I1
F1.553
tp50
aa(lp51
(NF0.0
tp52
a(I2
F1.275
tp53
aa(lp54
(NF0.0
tp55
a(I2
F1.471
tp56
aa(lp57
(NF0.0
tp58
a(I1
F1.0
tp59
aa(lp60
(NF0.0
tp61
a(I1
F1.236
tp62
aa(lp63
(NF0.0
tp64
a(I3
F1.316
tp65
aa(lp66
(NF0.0
tp67
a(I2
F1.333
tp68
aa(lp69
(NF0.0
tp70
a(I1
F1.933
tp71
aa(lp72
(NF0.0
tp73
a(I3
F1.257
tp74
aa(lp75
(NF0.0
tp76
a(I1
F1.496
tp77
aa(lp78
(NF0.0
tp79
a(I1
F1.148
tp80
aa(lp81
(NF0.0
tp82
a(I3
F1.071
tp83
aa(lp84
(NF0.0
tp85
a(I2
F1.667
tp86
aa(lp87
(NF0.0
tp88
a(I1
F1.297
tp89
aa(lp90
(NF0.0
tp91
a(I2
F1.233
tp92
aa(lp93
(NF0.0
tp94
a(I2
F1.591
tp95
aa(lp96
(NF0.0
tp97
a(I3
F1.091
tp98
aa(lp99
(NF0.0
tp100
a(I1
F1.672
tp101
aa(lp102
(NF0.0
tp103
a(I2
F1.15
tp104
aa(lp105
(NF0.0
tp106
a(I3
F1.069
tp107
aa(lp108
(NF0.0
tp109
aa(lp110
(NF0.0
tp111
a(I2
F1.022
tp112
aa(lp113
(NF0.0
tp114
a(I3
F1.12
tp115
aa(lp116
(NF0.0
tp117
a(I1
F1.186
tp118
aa(lp119
(NF0.0
tp120
a(I2
F1.448
tp121
aa(lp122
(NF0.0
tp123
aa(lp124
(NF0.0
tp125
a(I3
F1.07
tp126
aa(lp127
(NF0.0
tp128
a(I2
F1.355
tp129
aa(lp130
(NF0.0
tp131
a(I1
F1.278
tp132
aa(lp133
(NF0.0
tp134
a(I1
F1.222
tp135
aa(lp136
(NF0.0
tp137
a(I4
F1.164
tp138
aa(lp139
(NF0.0
tp140
a(I1
F1.157
tp141
aa(lp142
(NF0.0
tp143
a(I1
F1.138
tp144
aa(lp145
(NF0.0
tp146
a(I1
F0.892
tp147
aa(lp148
(NF0.0
tp149
a(I1
F1.258
tp150
aa(lp151
(NF0.0
tp152
a(I2
F1.235
tp153
aa(lp154
(NF0.0
tp155
a(I1
F1.403
tp156
aa(lp157
(NF0.0
tp158
a(I1
F1.052
tp159
aa(lp160
(NF0.0
tp161
a(I1
F0.798
tp162
aasS'run_time'
p163
F123.41011691093445
sS'total_iters'
p164
(lp165
I0
aI1
aI2
aI3
aI4
aI5
aI6
aI7
aI8
aI9
aI10
aI11
aI12
aI13
aI14
aI15
aI16
aI17
aI18
aI19
aI20
aI21
aI22
aI23
aI24
aI25
aI26
aI27
aI28
aI29
aI30
aI31
aI32
aI33
aI34
aI35
aI36
aI37
aI38
aI39
as.