(dp0
S'cue_tuples'
p1
(lp2
(S'cue_L'
p3
S'F'
p4
I0
tp5
a(g3
g4
I0
tp6
a(g3
g4
I0
tp7
a(g3
g4
I0
tp8
a(g3
g4
I0
tp9
a(g3
g4
I1
tp10
a(g3
g4
I0
tp11
a(g3
g4
I0
tp12
a(g3
g4
I0
tp13
a(g3
g4
I0
tp14
asS'uncued'
p15
(lp16
S'00529940519fa_sunacbeefkxpymwevpk.jpg'
p17
aS'00743941201fa_sunaeoghzrjarigmwua.jpg'
p18
aS'00562941031fa_sunacjnahdmqfnjfwqx.jpg'
p19
aS'00705941205fa_sunadtlxenqqxsyjvix.jpg'
p20
aS'00073931230fa_sunaafbmtoniaasysgu.jpg'
p21
aS'00760960620fa_sunaffstbkappprzxnv.jpg'
p22
aS'00957960627fa_sunavhxgmgrqsaptynb.jpg'
p23
aS'00913960530fa_sunaooffzffbhcpirmm.jpg'
p24
aS'00752960620fa_sunafbwnojpqeyzssoe.jpg'
p25
aS'00720960620fa_sunaecpkgfewqqreqwe.jpg'
p26
asS'cued'
p27
(lp28
S'00893960530Fa_sunaloffvbvysigxent.jpg'
p29
aS'00294940422fb_sunabrlndkruqokhury.jpg'
p30
aS'00977960627fa_sunbbxkanhzjgbwyxqs.jpg'
p31
aS'00960960627fa_sunawksfbacycuhbrsc.jpg'
p32
aS'00774941201fa_sunafvtpfczkzopbgue.jpg'
p33
aS'00131931230fb_sunaangbuylfvckqqoo.jpg'
p34
aS'00910960530fa_sunaofikylqtxphvdem.jpg'
p35
aS'00819940307fa_sunahqldjibofgsfdgb.jpg'
p36
aS'00120931230fa_sunaakxgygjfqrzpyoz.jpg'
p37
aS'00262940128fa_sunabizydfotqddlnjp.jpg'
p38
asS'uncued_RT'
p39
(lp40
F3.3106770515441895
aF0.6773509979248047
aF0.40810489654541016
aF0.41959214210510254
aF0.5933001041412354
aF0.6926419734954834
aF0.6157200336456299
aF0.34923601150512695
aF0.3360710144042969
aF0.44547486305236816
asS'cued_RT'
p41
(lp42
s.