(dp0
S'images'
p1
(lp2
S'00750941201fa.jpg'
p3
aS'sunagtumacdlmciqamz.jpg'
p4
aS'00999960627fa.jpg'
p5
aS'sunagjzcrjvmxzqzljx.jpg'
p6
aS'00795941205fa.jpg'
p7
aS'sunadkazmlajmohnwfl.jpg'
p8
aS'00807941205fa.jpg'
p9
aS'00559940519fa.jpg'
p10
aS'00132931230fb.jpg'
p11
aS'00095931230fa.jpg'
p12
aS'sunaahzooisqkwlxwoz.jpg'
p13
aS'00576941031fa.jpg'
p14
aS'sunbbhqyyzmsxhsbjmp.jpg'
p15
aS'sunabckqabszusgcykj.jpg'
p16
aS'sunaemcowdozyphwknd.jpg'
p17
aS'00662941121fa.jpg'
p18
aS'00741941201fa.jpg'
p19
aS'sunaeuzwggvibufclwf.jpg'
p20
aS'sunavspxmxubqaeidjt.jpg'
p21
aS'sunaafgqutfaishsxyu.jpg'
p22
aS'00958960627fa.jpg'
p23
aS'00973960627fa.jpg'
p24
aS'00498960627fa.jpg'
p25
aS'00302940422fa.jpg'
p26
aS'sunaahedjlmtqekgyvj.jpg'
p27
aS'sunabrwnslxalcohfre.jpg'
p28
aS'00971960627fa.jpg'
p29
aS'sunathzzbcwjykldrem.jpg'
p30
aS'00532960627fa.jpg'
p31
aS'sunbtpilbhhbmhmeuzq.jpg'
p32
aS'00109931230fa.jpg'
p33
aS'sunaauhozyxzeeqstxi.jpg'
p34
aS'00878960530fa.jpg'
p35
aS'sunabtrnbvpppgczjim.jpg'
p36
aS'sunbwaafjdebjzttuvq.jpg'
p37
aS'sunabrjdpmoedcdjbpo.jpg'
p38
aS'sunaqbmgkgqucajzrkp.jpg'
p39
aS'00663941121fa.jpg'
p40
aS'00892960530fa.jpg'
p41
aS'00762941201fa.jpg'
p42
asS'ratings'
p43
(lp44
(lp45
(NF0.0
tp46
a(I4
F1.157
tp47
aa(lp48
(NF0.0
tp49
a(I2
F1.186
tp50
aa(lp51
(NF0.0
tp52
a(I2
F1.57
tp53
aa(lp54
(NF0.0
tp55
a(I2
F1.754
tp56
aa(lp57
(NF0.0
tp58
a(I3
F1.098
tp59
aa(lp60
(NF0.0
tp61
a(I2
F1.296
tp62
aa(lp63
(NF0.0
tp64
aa(lp65
(NF0.0
tp66
a(I4
F1.181
tp67
aa(lp68
(NF0.0
tp69
a(I4
F1.407
tp70
aa(lp71
(NF0.0
tp72
a(I3
F1.282
tp73
aa(lp74
(NF0.0
tp75
a(I1
F1.026
tp76
aa(lp77
(NF0.0
tp78
a(I1
F1.283
tp79
aa(lp80
(NF0.0
tp81
a(I1
F1.22
tp82
aa(lp83
(NF0.0
tp84
a(I2
F1.364
tp85
aa(lp86
(NF0.0
tp87
a(I1
F1.125
tp88
aa(lp89
(NF0.0
tp90
a(I4
F0.924
tp91
aa(lp92
(NF0.0
tp93
a(I3
F1.099
tp94
aa(lp95
(NF0.0
tp96
a(I2
F1.801
tp97
aa(lp98
(NF0.0
tp99
a(I1
F1.057
tp100
aa(lp101
(NF0.0
tp102
a(I2
F1.188
tp103
aa(lp104
(NF0.0
tp105
a(I3
F1.347
tp106
aa(lp107
(NF0.0
tp108
a(I2
F1.255
tp109
aa(lp110
(NF0.0
tp111
a(I3
F0.98
tp112
aa(lp113
(NF0.0
tp114
a(I1
F1.18
tp115
aa(lp116
(NF0.0
tp117
a(I2
F1.189
tp118
aa(lp119
(NF0.0
tp120
a(I1
F1.069
tp121
aa(lp122
(NF0.0
tp123
a(I3
F1.447
tp124
aa(lp125
(NF0.0
tp126
a(I3
F1.612
tp127
aa(lp128
(NF0.0
tp129
a(I2
F1.606
tp130
aa(lp131
(NF0.0
tp132
a(I1
F1.153
tp133
aa(lp134
(NF0.0
tp135
a(I3
F1.767
tp136
aa(lp137
(NF0.0
tp138
a(I2
F1.697
tp139
aa(lp140
(NF0.0
tp141
a(I2
F1.822
tp142
aa(lp143
(NF0.0
tp144
a(I1
F1.015
tp145
aa(lp146
(NF0.0
tp147
a(I1
F1.254
tp148
aa(lp149
(NF0.0
tp150
a(I2
F1.166
tp151
aa(lp152
(NF0.0
tp153
a(I1
F0.817
tp154
aa(lp155
(NF0.0
tp156
a(I1
F1.318
tp157
aa(lp158
(NF0.0
tp159
a(I3
F1.559
tp160
aa(lp161
(NF0.0
tp162
aasS'run_time'
p163
F123.39342188835144
sS'total_iters'
p164
(lp165
I0
aI1
aI2
aI3
aI4
aI5
aI6
aI7
aI8
aI9
aI10
aI11
aI12
aI13
aI14
aI15
aI16
aI17
aI18
aI19
aI20
aI21
aI22
aI23
aI24
aI25
aI26
aI27
aI28
aI29
aI30
aI31
aI32
aI33
aI34
aI35
aI36
aI37
aI38
aI39
as.