(dp0
S'cue_tuples'
p1
(lp2
(S'cue_L'
p3
S'F'
p4
I0
tp5
a(g3
g4
I0
tp6
a(g3
g4
I0
tp7
a(g3
g4
I0
tp8
a(g3
g4
I0
tp9
a(g3
g4
I0
tp10
a(g3
g4
I0
tp11
a(g3
g4
I0
tp12
a(g3
g4
I0
tp13
a(g3
g4
I0
tp14
asS'uncued'
p15
(lp16
S'00313940422fa_sunabwjvmoaddlyxfjr.jpg'
p17
aS'00227940128fa_sunabckqabszusgcykj.jpg'
p18
aS'00784941205fb_sunagjzcrjvmxzqzljx.jpg'
p19
aS'00662941121fa_sunadkazmlajmohnwfl.jpg'
p20
aS'00142931230fb_sunaapxkpvrhpjplsok.jpg'
p21
aS'00999960627fa_sunbvbrvgbpanfrawft.jpg'
p22
aS'00809960620fa_sunahbvlpavurqoxdeq.jpg'
p23
aS'00741941201fa_sunaemcowdozyphwknd.jpg'
p24
aS'00795941205fa_sunagtumacdlmciqamz.jpg'
p25
aS'00973960627fa_sunbbgtoeuzierkkajt.jpg'
p26
asS'cued'
p27
(lp28
S'00976960627fa_sunbbhqyyzmsxhsbjmp.jpg'
p29
aS'00532960627fa_sunaccdtpgenvcbcbcf.jpg'
p30
aS'00296940422fa_sunabrwnslxalcohfre.jpg'
p31
aS'00750941201fa_sunaeuzwggvibufclwf.jpg'
p32
aS'00812941205fa_sunahgtbwgsmtqeodwh.jpg'
p33
aS'00097931230fa_sunaajayojuslbbnneg.jpg'
p34
aS'00095931230fa_sunaahzooisqkwlxwoz.jpg'
p35
aS'00905960530fa_sunanmoqeyprjjjfxjt.jpg'
p36
aS'00971960627fa_sunbbegcweqnetpdlrh.jpg'
p37
aS'00958960627fa_sunavspxmxubqaeidjt.jpg'
p38
asS'uncued_RT'
p39
(lp40
F0.31470489501953125
aF0.395374059677124
aF0.5512599945068359
aF0.5343518257141113
aF0.4441111087799072
aF0.32924890518188477
aF0.5562839508056641
aF0.3717038631439209
aF0.4770340919494629
aF0.7063398361206055
asS'cued_RT'
p41
(lp42
s.