(dp0
S'cue_tuples'
p1
(lp2
(S'cue_R'
p3
S'L'
p4
I0
tp5
a(g3
g4
I1
tp6
a(g3
g4
I1
tp7
a(g3
g4
I0
tp8
a(g3
g4
I0
tp9
a(g3
g4
I0
tp10
a(g3
g4
I1
tp11
a(g3
g4
I0
tp12
a(g3
g4
I0
tp13
a(g3
g4
I0
tp14
asS'uncued'
p15
(lp16
S'00972960627fa_sunbbfqwjpdxniyhies.jpg'
p17
aS'00638941031fa_sunadfktsqjthoglcsm.jpg'
p18
aS'00158931230fb_sunaavchcbptaerhcfy.jpg'
p19
aS'00766960620fa_sunafijbgncijwykrnl.jpg'
p20
aS'00968960627fa_sunbagfpovqwbuexqdn.jpg'
p21
aS'00235940128fb_sunabclssnoeuigtawp.jpg'
p22
aS'00264940128fb_sunabjzyxcjnmztdonj.jpg'
p23
aS'00880960530fa_sunakmnfgklupjijsgf.jpg'
p24
aS'00221940128fa_sunabcfpwlpolnutyju.jpg'
p25
aS'00198940128fb_sunaazezcsunmhttzxz.jpg'
p26
asS'cued'
p27
(lp28
S'00988960627fa_sunbmaiocftdtvnzgap.jpg'
p29
aS'00316940422fa_sunabxmguapjekttvwm.jpg'
p30
aS'00841940307fa_sunaisiwfgppimtnmxl.jpg'
p31
aS'00481940519fa_sunabxsuqbleluwczoy.jpg'
p32
aS'00554940519fa_sunacfdkbsrughwqwtt.jpg'
p33
aS'00065931230fb_sunaaemixhfquhnxxlm.jpg'
p34
aS'00122931230fa_sunaakxjfbrrequcjmx.jpg'
p35
aS'00145931230fb_sunaatjesvdupctftmn.jpg'
p36
aS'00505960627fa_sunabzuqsrgcsonqlkz.jpg'
p37
aS'00779941205fa_sunagdzlvkqtpnfxfcg.jpg'
p38
asS'uncued_RT'
p39
(lp40
F0.3752110004425049
aF0.40378308296203613
aF0.3184940814971924
asS'cued_RT'
p41
(lp42
F4.208992958068848
aF0.45195698738098145
aF0.4465010166168213
aF0.7106988430023193
aF0.3367018699645996
aF0.44675517082214355
aF0.31860995292663574
as.