(dp0
S'images'
p1
(lp2
S'00198940128fb.jpg'
p3
aS'00065931230fb.jpg'
p4
aS'sunabxsuqbleluwczoy.jpg'
p5
aS'00638941031fa.jpg'
p6
aS'sunabzuqsrgcsonqlkz.jpg'
p7
aS'sunakmnfgklupjijsgf.jpg'
p8
aS'sunaaemixhfquhnxxlm.jpg'
p9
aS'sunaakxjfbrrequcjmx.jpg'
p10
aS'00554940519fa.jpg'
p11
aS'sunabxmguapjekttvwm.jpg'
p12
aS'sunaavchcbptaerhcfy.jpg'
p13
aS'00122931230fa.jpg'
p14
aS'00145931230fb.jpg'
p15
aS'00972960627fa.jpg'
p16
aS'sunagfvluwixdsozaql.jpg'
p17
aS'00235940128fb.jpg'
p18
aS'00968960627fa.jpg'
p19
aS'sunafijbgncijwykrnl.jpg'
p20
aS'sunaamdjwemxpmmtypi.jpg'
p21
aS'00782941205fa.jpg'
p22
aS'00481940519fa.jpg'
p23
aS'sunaazezcsunmhttzxz.jpg'
p24
aS'sunbagfpovqwbuexqdn.jpg'
p25
aS'sunacvzhvcksnwqcqbw.jpg'
p26
aS'sunalcrtwiycqobgelp.jpg'
p27
aS'sunacjkmnpawfzbyvae.jpg'
p28
aS'sunajawzbrlrwafowen.jpg'
p29
aS'sunabasphceswhwwqvv.jpg'
p30
aS'sunbprywzqxjcezkbch.jpg'
p31
aS'sunapqkyghktgtosuuk.jpg'
p32
aS'00929960627fa.jpg'
p33
aS'00866940307fa.jpg'
p34
aS'00869940307fa.jpg'
p35
aS'00543940519fa.jpg'
p36
aS'00123931230fb.jpg'
p37
aS'00242940128fa.jpg'
p38
aS'00089931230fa.jpg'
p39
aS'sunaejnvnpltdmhbcsi.jpg'
p40
aS'00811960530fa.jpg'
p41
aS'00548940519fa.jpg'
p42
asS'ratings'
p43
(lp44
(lp45
(NF0.0
tp46
a(I2
F1.082
tp47
aa(lp48
(NF0.0
tp49
a(I3
F0.955
tp50
aa(lp51
(NF0.0
tp52
a(I4
F0.93
tp53
aa(lp54
(NF0.0
tp55
a(I1
F1.332
tp56
aa(lp57
(NF0.0
tp58
a(I3
F1.199
tp59
aa(lp60
(NF0.0
tp61
a(I4
F0.854
tp62
aa(lp63
(NF0.0
tp64
a(I4
F1.238
tp65
aa(lp66
(NF0.0
tp67
a(I2
F1.853
tp68
aa(lp69
(NF0.0
tp70
a(I4
F1.087
tp71
aa(lp72
(NF0.0
tp73
a(I4
F1.118
tp74
aa(lp75
(NF0.0
tp76
a(I4
F1.2
tp77
aa(lp78
(NF0.0
tp79
a(I1
F0.863
tp80
aa(lp81
(NF0.0
tp82
a(I1
F0.93
tp83
aa(lp84
(NF0.0
tp85
a(I1
F0.722
tp86
aa(lp87
(NF0.0
tp88
a(I1
F1.656
tp89
aa(lp90
(NF0.0
tp91
a(I2
F1.635
tp92
aa(lp93
(NF0.0
tp94
a(I2
F1.323
tp95
aa(lp96
(NF0.0
tp97
a(I1
F1.501
tp98
aa(lp99
(NF0.0
tp100
a(I1
F1.015
tp101
aa(lp102
(NF0.0
tp103
a(I3
F1.303
tp104
aa(lp105
(NF0.0
tp106
a(I3
F0.684
tp107
aa(lp108
(NF0.0
tp109
a(I2
F1.582
tp110
aa(lp111
(NF0.0
tp112
a(I3
F1.281
tp113
aa(lp114
(NF0.0
tp115
a(I3
F1.096
tp116
aa(lp117
(NF0.0
tp118
a(I3
F1.368
tp119
aa(lp120
(NF0.0
tp121
a(I1
F1.246
tp122
aa(lp123
(NF0.0
tp124
a(I2
F1.549
tp125
aa(lp126
(NF0.0
tp127
a(I2
F1.234
tp128
aa(lp129
(NF0.0
tp130
a(I3
F1.266
tp131
aa(lp132
(NF0.0
tp133
a(I1
F1.205
tp134
aa(lp135
(NF0.0
tp136
a(I1
F0.857
tp137
aa(lp138
(NF0.0
tp139
a(I1
F0.786
tp140
aa(lp141
(NF0.0
tp142
a(I1
F0.702
tp143
aa(lp144
(NF0.0
tp145
a(I1
F1.23
tp146
aa(lp147
(NF0.0
tp148
a(I3
F0.933
tp149
aa(lp150
(NF0.0
tp151
a(I1
F0.785
tp152
aa(lp153
(NF0.0
tp154
a(I1
F0.635
tp155
aa(lp156
(NF0.0
tp157
a(I2
F1.441
tp158
aa(lp159
(NF0.0
tp160
a(I2
F0.968
tp161
aa(lp162
(NF0.0
tp163
a(I3
F1.017
tp164
aasS'run_time'
p165
F123.32617211341858
sS'total_iters'
p166
(lp167
I0
aI1
aI2
aI3
aI4
aI5
aI6
aI7
aI8
aI9
aI10
aI11
aI12
aI13
aI14
aI15
aI16
aI17
aI18
aI19
aI20
aI21
aI22
aI23
aI24
aI25
aI26
aI27
aI28
aI29
aI30
aI31
aI32
aI33
aI34
aI35
aI36
aI37
aI38
aI39
as.