(dp0
S'images'
p1
(lp2
S'00908960530fa.jpg'
p3
aS'sunabbwggenhfbftyvi.jpg'
p4
aS'00868960307fa.jpg'
p5
aS'sunaduslxfzlbxlllnz.jpg'
p6
aS'00271940422fa.jpg'
p7
aS'00598941031fa.jpg'
p8
aS'sunaavjinpnkappuonm.jpg'
p9
aS'00670941121fa.jpg'
p10
aS'00969960627fa.jpg'
p11
aS'sunagetqixeypsysbpn.jpg'
p12
aS'sunabmbnddafmywtjjj.jpg'
p13
aS'sunajjxttslobudoqbv.jpg'
p14
aS'00111931230fb.jpg'
p15
aS'00885960530fa.jpg'
p16
aS'00818940307fa.jpg'
p17
aS'sunahpblecxtmuzkmxb.jpg'
p18
aS'sunadrmfzmstgdjdcod.jpg'
p19
aS'00218940128fa.jpg'
p20
aS'00857940307fa.jpg'
p21
aS'00780960530fa.jpg'
p22
aS'sunakwlvxjpddialozd.jpg'
p23
aS'sunalkiibhqpxfamlll.jpg'
p24
aS'00800941205fb.jpg'
p25
aS'sunaajtnvzzpsjdzres.jpg'
p26
aS'sunaanptmsknhirrzed.jpg'
p27
aS'sunbfyvfqiimvdaxlqn.jpg'
p28
aS'00895960530fa.jpg'
p29
aS'00963960627fa.jpg'
p30
aS'00982960627fa.jpg'
p31
aS'sunadcphrizvfpljiqt.jpg'
p32
aS'00783941205fa.jpg'
p33
aS'00859940307fa.jpg'
p34
aS'00675941121fa.jpg'
p35
aS'sunaffgsyyvoqdlkmnk.jpg'
p36
aS'00098931230fa.jpg'
p37
aS'sunajxpkuhbizeveguy.jpg'
p38
aS'00082931230fa.jpg'
p39
aS'sunahuynahneraqftyz.jpg'
p40
aS'00915960620fa.jpg'
p41
aS'sunagpancjmxqfazssf.jpg'
p42
asS'ratings'
p43
(lp44
(lp45
(NF0.0
tp46
a(I2
F1.339
tp47
aa(lp48
(NF0.0
tp49
a(I3
F1.532
tp50
aa(lp51
(NF0.0
tp52
a(I1
F1.449
tp53
aa(lp54
(NF0.0
tp55
a(I2
F1.801
tp56
aa(lp57
(NF0.0
tp58
a(I3
F1.079
tp59
aa(lp60
(NF0.0
tp61
a(I4
F0.836
tp62
aa(lp63
(NF0.0
tp64
a(I1
F1.202
tp65
aa(lp66
(NF0.0
tp67
a(I3
F1.348
tp68
aa(lp69
(NF0.0
tp70
a(I3
F1.139
tp71
aa(lp72
(NF0.0
tp73
a(I4
F1.113
tp74
aa(lp75
(NF0.0
tp76
a(I1
F1.28
tp77
aa(lp78
(NF0.0
tp79
a(I1
F0.884
tp80
aa(lp81
(NF0.0
tp82
a(I4
F1.071
tp83
aa(lp84
(NF0.0
tp85
a(I1
F0.986
tp86
aa(lp87
(NF0.0
tp88
a(I3
F0.912
tp89
aa(lp90
(NF0.0
tp91
a(I2
F1.233
tp92
aa(lp93
(NF0.0
tp94
aa(lp95
(NF0.0
tp96
a(I4
F0.898
tp97
aa(lp98
(NF0.0
tp99
a(I1
F1.033
tp100
aa(lp101
(NF0.0
tp102
a(I4
F1.053
tp103
aa(lp104
(NF0.0
tp105
a(I1
F1.061
tp106
aa(lp107
(NF0.0
tp108
a(I1
F1.003
tp109
aa(lp110
(NF0.0
tp111
a(I1
F0.905
tp112
aa(lp113
(NF0.0
tp114
a(I2
F1.12
tp115
aa(lp116
(NF0.0
tp117
a(I1
F0.652
tp118
aa(lp119
(NF0.0
tp120
a(I2
F1.066
tp121
aa(lp122
(NF0.0
tp123
a(I3
F1.3
tp124
aa(lp125
(NF0.0
tp126
a(I2
F1.348
tp127
aa(lp128
(NF0.0
tp129
a(I2
F1.443
tp130
aa(lp131
(NF0.0
tp132
a(I2
F1.674
tp133
aa(lp134
(NF0.0
tp135
a(I4
F1.084
tp136
aa(lp137
(NF0.0
tp138
a(I2
F1.713
tp139
aa(lp140
(NF0.0
tp141
a(I4
F1.014
tp142
aa(lp143
(NF0.0
tp144
a(I1
F1.411
tp145
aa(lp146
(NF0.0
tp147
a(I1
F1.266
tp148
aa(lp149
(NF0.0
tp150
a(I2
F1.568
tp151
aa(lp152
(NF0.0
tp153
a(I1
F1.402
tp154
aa(lp155
(NF0.0
tp156
aa(lp157
(NF0.0
tp158
a(I3
F1.58
tp159
aa(lp160
(NF0.0
tp161
a(I2
F1.718
tp162
aasS'run_time'
p163
F123.10906505584717
sS'total_iters'
p164
(lp165
I0
aI1
aI2
aI3
aI4
aI5
aI6
aI7
aI8
aI9
aI10
aI11
aI12
aI13
aI14
aI15
aI16
aI17
aI18
aI19
aI20
aI21
aI22
aI23
aI24
aI25
aI26
aI27
aI28
aI29
aI30
aI31
aI32
aI33
aI34
aI35
aI36
aI37
aI38
aI39
as.