(lp0
S'Very boring'
p1
aS'Very tired'
p2
accopy_reg
_reconstructor
p3
(cfuture.types.newstr
newstr
p4
c__builtin__
unicode
p5
VFaces because they were more "easily" recognizable in comparison to landscapes.
p6
tp7
Rp8
ag3
(g4
g5
VLeft
p9
tp10
Rp11
ag3
(g4
g5
VThinking about key words such as "long hallway" or "book shelves".
p12
tp13
Rp14
a.